
SignalSnagger.elf:     file format elf32-avr

Sections:
Idx Name          Size      VMA       LMA       File off  Algn
  0 .data         000000e2  00804000  00007eda  00007f8e  2**0
                  CONTENTS, ALLOC, LOAD, DATA
  1 .text         00007eda  00000000  00000000  000000b4  2**1
                  CONTENTS, ALLOC, LOAD, READONLY, CODE
  2 .bss          0000016b  008040e2  008040e2  00008070  2**0
                  ALLOC
  3 .eeprom       00000112  00810000  00810000  00008070  2**0
                  CONTENTS, ALLOC, LOAD, READONLY, DATA
  4 .comment      0000005c  00000000  00000000  00008182  2**0
                  CONTENTS, READONLY
  5 .note.gnu.avr.deviceinfo 00000040  00000000  00000000  000081e0  2**2
                  CONTENTS, READONLY
  6 .debug_aranges 000008f0  00000000  00000000  00008220  2**3
                  CONTENTS, READONLY, DEBUGGING
  7 .debug_info   0000f3af  00000000  00000000  00008b10  2**0
                  CONTENTS, READONLY, DEBUGGING
  8 .debug_abbrev 000056f8  00000000  00000000  00017ebf  2**0
                  CONTENTS, READONLY, DEBUGGING
  9 .debug_line   00007450  00000000  00000000  0001d5b7  2**0
                  CONTENTS, READONLY, DEBUGGING
 10 .debug_frame  00001fe8  00000000  00000000  00024a08  2**2
                  CONTENTS, READONLY, DEBUGGING
 11 .debug_str    000063d5  00000000  00000000  000269f0  2**0
                  CONTENTS, READONLY, DEBUGGING
 12 .debug_loc    000041ca  00000000  00000000  0002cdc5  2**0
                  CONTENTS, READONLY, DEBUGGING
 13 .debug_ranges 00000770  00000000  00000000  00030f8f  2**0
                  CONTENTS, READONLY, DEBUGGING

Disassembly of section .text:

00000000 <__vectors>:
       0:	0c 94 b4 00 	jmp	0x168	; 0x168 <__dtors_end>
       4:	0c 94 de 00 	jmp	0x1bc	; 0x1bc <__bad_interrupt>
       8:	0c 94 de 00 	jmp	0x1bc	; 0x1bc <__bad_interrupt>
       c:	0c 94 61 01 	jmp	0x2c2	; 0x2c2 <__vector_3>
      10:	0c 94 de 00 	jmp	0x1bc	; 0x1bc <__bad_interrupt>
      14:	0c 94 de 00 	jmp	0x1bc	; 0x1bc <__bad_interrupt>
      18:	0c 94 30 08 	jmp	0x1060	; 0x1060 <__vector_6>
      1c:	0c 94 de 00 	jmp	0x1bc	; 0x1bc <__bad_interrupt>
      20:	0c 94 de 00 	jmp	0x1bc	; 0x1bc <__bad_interrupt>
      24:	0c 94 de 00 	jmp	0x1bc	; 0x1bc <__bad_interrupt>
      28:	0c 94 de 00 	jmp	0x1bc	; 0x1bc <__bad_interrupt>
      2c:	0c 94 de 00 	jmp	0x1bc	; 0x1bc <__bad_interrupt>
      30:	0c 94 6b 04 	jmp	0x8d6	; 0x8d6 <__vector_12>
      34:	0c 94 bc 35 	jmp	0x6b78	; 0x6b78 <__vector_13>
      38:	0c 94 de 00 	jmp	0x1bc	; 0x1bc <__bad_interrupt>
      3c:	0c 94 de 00 	jmp	0x1bc	; 0x1bc <__bad_interrupt>
      40:	0c 94 de 00 	jmp	0x1bc	; 0x1bc <__bad_interrupt>
      44:	0c 94 de 00 	jmp	0x1bc	; 0x1bc <__bad_interrupt>
      48:	0c 94 de 00 	jmp	0x1bc	; 0x1bc <__bad_interrupt>
      4c:	0c 94 de 00 	jmp	0x1bc	; 0x1bc <__bad_interrupt>
      50:	0c 94 de 00 	jmp	0x1bc	; 0x1bc <__bad_interrupt>
      54:	0c 94 de 00 	jmp	0x1bc	; 0x1bc <__bad_interrupt>
      58:	0c 94 de 00 	jmp	0x1bc	; 0x1bc <__bad_interrupt>
      5c:	0c 94 de 00 	jmp	0x1bc	; 0x1bc <__bad_interrupt>
      60:	0c 94 b3 03 	jmp	0x766	; 0x766 <__vector_24>
      64:	0c 94 de 00 	jmp	0x1bc	; 0x1bc <__bad_interrupt>
      68:	0c 94 de 00 	jmp	0x1bc	; 0x1bc <__bad_interrupt>
      6c:	0c 94 de 00 	jmp	0x1bc	; 0x1bc <__bad_interrupt>
      70:	0c 94 de 00 	jmp	0x1bc	; 0x1bc <__bad_interrupt>
      74:	0c 94 de 00 	jmp	0x1bc	; 0x1bc <__bad_interrupt>
      78:	0c 94 64 35 	jmp	0x6ac8	; 0x6ac8 <__vector_30>
      7c:	0c 94 de 00 	jmp	0x1bc	; 0x1bc <__bad_interrupt>
      80:	0c 94 de 00 	jmp	0x1bc	; 0x1bc <__bad_interrupt>
      84:	0c 94 de 00 	jmp	0x1bc	; 0x1bc <__bad_interrupt>
      88:	0c 94 5b 08 	jmp	0x10b6	; 0x10b6 <__vector_34>
      8c:	0c 94 de 00 	jmp	0x1bc	; 0x1bc <__bad_interrupt>
      90:	0c 94 de 00 	jmp	0x1bc	; 0x1bc <__bad_interrupt>
      94:	0c 94 de 00 	jmp	0x1bc	; 0x1bc <__bad_interrupt>
      98:	0c 94 de 00 	jmp	0x1bc	; 0x1bc <__bad_interrupt>
      9c:	0c 94 de 00 	jmp	0x1bc	; 0x1bc <__bad_interrupt>
      a0:	0c 94 de 00 	jmp	0x1bc	; 0x1bc <__bad_interrupt>
      a4:	0c 94 cc 23 	jmp	0x4798	; 0x4798 <__vector_41>
      a8:	0c 94 de 00 	jmp	0x1bc	; 0x1bc <__bad_interrupt>
      ac:	0c 94 de 00 	jmp	0x1bc	; 0x1bc <__bad_interrupt>
      b0:	0c 94 de 00 	jmp	0x1bc	; 0x1bc <__bad_interrupt>
      b4:	0c 94 de 00 	jmp	0x1bc	; 0x1bc <__bad_interrupt>
      b8:	0c 94 f3 01 	jmp	0x3e6	; 0x3e6 <__vector_46>
      bc:	0c 94 de 00 	jmp	0x1bc	; 0x1bc <__bad_interrupt>
      c0:	0c 94 de 00 	jmp	0x1bc	; 0x1bc <__bad_interrupt>
      c4:	0c 94 de 00 	jmp	0x1bc	; 0x1bc <__bad_interrupt>
      c8:	0c 94 de 00 	jmp	0x1bc	; 0x1bc <__bad_interrupt>
      cc:	0c 94 de 00 	jmp	0x1bc	; 0x1bc <__bad_interrupt>
      d0:	0c 94 de 00 	jmp	0x1bc	; 0x1bc <__bad_interrupt>
      d4:	0c 94 de 00 	jmp	0x1bc	; 0x1bc <__bad_interrupt>
      d8:	0c 94 de 00 	jmp	0x1bc	; 0x1bc <__bad_interrupt>
      dc:	0c 94 de 00 	jmp	0x1bc	; 0x1bc <__bad_interrupt>
      e0:	0c 94 de 00 	jmp	0x1bc	; 0x1bc <__bad_interrupt>
      e4:	0c 94 de 00 	jmp	0x1bc	; 0x1bc <__bad_interrupt>
      e8:	05 a8       	ldd	r0, Z+53	; 0x35
      ea:	4c cd       	rjmp	.-1384   	; 0xfffffb84 <__eeprom_end+0xff7efa72>
      ec:	b2 d4       	rcall	.+2404   	; 0xa52 <__vector_12+0x17c>
      ee:	4e b9       	out	0x0e, r20	; 14
      f0:	38 36       	cpi	r19, 0x68	; 104
      f2:	a9 02       	muls	r26, r25
      f4:	0c 50       	subi	r16, 0x0C	; 12
      f6:	b9 91       	ld	r27, Y+
      f8:	86 88       	ldd	r8, Z+22	; 0x16
      fa:	08 3c       	cpi	r16, 0xC8	; 200
      fc:	a6 aa       	std	Z+54, r10	; 0x36
      fe:	aa 2a       	or	r10, r26
     100:	be 00       	.word	0x00be	; ????
     102:	00 00       	nop
     104:	80 3f       	cpi	r24, 0xF0	; 240
     106:	08 00       	.word	0x0008	; ????
     108:	00 00       	nop
     10a:	be 92       	st	-X, r11
     10c:	24 49       	sbci	r18, 0x94	; 148
     10e:	12 3e       	cpi	r17, 0xE2	; 226
     110:	ab aa       	std	Y+51, r10	; 0x33
     112:	aa 2a       	or	r10, r26
     114:	be cd       	rjmp	.-1156   	; 0xfffffc92 <__eeprom_end+0xff7efb80>
     116:	cc cc       	rjmp	.-1640   	; 0xfffffab0 <__eeprom_end+0xff7ef99e>
     118:	4c 3e       	cpi	r20, 0xEC	; 236
     11a:	00 00       	nop
     11c:	00 80       	ld	r0, Z
     11e:	be ab       	std	Y+54, r27	; 0x36
     120:	aa aa       	std	Y+50, r10	; 0x32
     122:	aa 3e       	cpi	r26, 0xEA	; 234
     124:	00 00       	nop
     126:	00 00       	nop
     128:	bf 00       	.word	0x00bf	; ????
     12a:	00 00       	nop
     12c:	80 3f       	cpi	r24, 0xF0	; 240
     12e:	00 00       	nop
     130:	00 00       	nop
     132:	00 08       	sbc	r0, r0
     134:	41 78       	andi	r20, 0x81	; 129
     136:	d3 bb       	out	0x13, r29	; 19
     138:	43 87       	std	Z+11, r20	; 0x0b
     13a:	d1 13       	cpse	r29, r17
     13c:	3d 19       	sub	r19, r13
     13e:	0e 3c       	cpi	r16, 0xCE	; 206
     140:	c3 bd       	out	0x23, r28	; 35
     142:	42 82       	std	Z+2, r4	; 0x02
     144:	ad 2b       	or	r26, r29
     146:	3e 68       	ori	r19, 0x8E	; 142
     148:	ec 82       	std	Y+4, r14	; 0x04
     14a:	76 be       	out	0x36, r7	; 54
     14c:	d9 8f       	std	Y+25, r29	; 0x19
     14e:	e1 a9       	ldd	r30, Z+49	; 0x31
     150:	3e 4c       	sbci	r19, 0xCE	; 206
     152:	80 ef       	ldi	r24, 0xF0	; 240
     154:	ff be       	out	0x3f, r15	; 63
     156:	01 c4       	rjmp	.+2050   	; 0x95a <__vector_12+0x84>
     158:	ff 7f       	andi	r31, 0xFF	; 255
     15a:	3f 00       	.word	0x003f	; ????
     15c:	00 00       	nop
	...

00000160 <__ctors_start>:
     160:	cb 0f       	add	r28, r27
     162:	d3 11       	cpse	r29, r3

00000164 <__ctors_end>:
     164:	d8 0f       	add	r29, r24
     166:	e0 11       	cpse	r30, r0

00000168 <__dtors_end>:
     168:	11 24       	eor	r1, r1
     16a:	1f be       	out	0x3f, r1	; 63
     16c:	cf ef       	ldi	r28, 0xFF	; 255
     16e:	cd bf       	out	0x3d, r28	; 61
     170:	df e7       	ldi	r29, 0x7F	; 127
     172:	de bf       	out	0x3e, r29	; 62

00000174 <__do_copy_data>:
     174:	10 e4       	ldi	r17, 0x40	; 64
     176:	a0 e0       	ldi	r26, 0x00	; 0
     178:	b0 e4       	ldi	r27, 0x40	; 64
     17a:	ea ed       	ldi	r30, 0xDA	; 218
     17c:	fe e7       	ldi	r31, 0x7E	; 126
     17e:	00 e0       	ldi	r16, 0x00	; 0
     180:	0b bf       	out	0x3b, r16	; 59
     182:	02 c0       	rjmp	.+4      	; 0x188 <__do_copy_data+0x14>
     184:	07 90       	elpm	r0, Z+
     186:	0d 92       	st	X+, r0
     188:	a2 3e       	cpi	r26, 0xE2	; 226
     18a:	b1 07       	cpc	r27, r17
     18c:	d9 f7       	brne	.-10     	; 0x184 <__do_copy_data+0x10>

0000018e <__do_clear_bss>:
     18e:	22 e4       	ldi	r18, 0x42	; 66
     190:	a2 ee       	ldi	r26, 0xE2	; 226
     192:	b0 e4       	ldi	r27, 0x40	; 64
     194:	01 c0       	rjmp	.+2      	; 0x198 <.do_clear_bss_start>

00000196 <.do_clear_bss_loop>:
     196:	1d 92       	st	X+, r1

00000198 <.do_clear_bss_start>:
     198:	ad 34       	cpi	r26, 0x4D	; 77
     19a:	b2 07       	cpc	r27, r18
     19c:	e1 f7       	brne	.-8      	; 0x196 <.do_clear_bss_loop>

0000019e <__do_global_ctors>:
     19e:	10 e0       	ldi	r17, 0x00	; 0
     1a0:	c2 eb       	ldi	r28, 0xB2	; 178
     1a2:	d0 e0       	ldi	r29, 0x00	; 0
     1a4:	04 c0       	rjmp	.+8      	; 0x1ae <__do_global_ctors+0x10>
     1a6:	21 97       	sbiw	r28, 0x01	; 1
     1a8:	fe 01       	movw	r30, r28
     1aa:	0e 94 0d 3b 	call	0x761a	; 0x761a <__tablejump2__>
     1ae:	c0 3b       	cpi	r28, 0xB0	; 176
     1b0:	d1 07       	cpc	r29, r17
     1b2:	c9 f7       	brne	.-14     	; 0x1a6 <__do_global_ctors+0x8>
     1b4:	0e 94 88 09 	call	0x1310	; 0x1310 <main>
     1b8:	0c 94 60 3f 	jmp	0x7ec0	; 0x7ec0 <__do_global_dtors>

000001bc <__bad_interrupt>:
     1bc:	0c 94 00 00 	jmp	0	; 0x0 <__vectors>

000001c0 <set_system_time>:
     1c0:	0f b6       	in	r0, 0x3f	; 63
     1c2:	f8 94       	cli
     1c4:	60 93 49 42 	sts	0x4249, r22	; 0x804249 <__system_time>
     1c8:	70 93 4a 42 	sts	0x424A, r23	; 0x80424a <__system_time+0x1>
     1cc:	80 93 4b 42 	sts	0x424B, r24	; 0x80424b <__system_time+0x2>
     1d0:	90 93 4c 42 	sts	0x424C, r25	; 0x80424c <__system_time+0x3>
     1d4:	0f be       	out	0x3f, r0	; 63
     1d6:	08 95       	ret

000001d8 <time>:
     1d8:	fc 01       	movw	r30, r24
     1da:	0f b6       	in	r0, 0x3f	; 63
     1dc:	f8 94       	cli
     1de:	60 91 49 42 	lds	r22, 0x4249	; 0x804249 <__system_time>
     1e2:	70 91 4a 42 	lds	r23, 0x424A	; 0x80424a <__system_time+0x1>
     1e6:	80 91 4b 42 	lds	r24, 0x424B	; 0x80424b <__system_time+0x2>
     1ea:	90 91 4c 42 	lds	r25, 0x424C	; 0x80424c <__system_time+0x3>
     1ee:	0f be       	out	0x3f, r0	; 63
     1f0:	30 97       	sbiw	r30, 0x00	; 0
     1f2:	21 f0       	breq	.+8      	; 0x1fc <time+0x24>
     1f4:	60 83       	st	Z, r22
     1f6:	71 83       	std	Z+1, r23	; 0x01
     1f8:	82 83       	std	Z+2, r24	; 0x02
     1fa:	93 83       	std	Z+3, r25	; 0x03
     1fc:	08 95       	ret

000001fe <system_tick>:
     1fe:	8f 93       	push	r24
     200:	8f b7       	in	r24, 0x3f	; 63
     202:	8f 93       	push	r24
     204:	f8 94       	cli
     206:	80 91 49 42 	lds	r24, 0x4249	; 0x804249 <__system_time>
     20a:	8f 5f       	subi	r24, 0xFF	; 255
     20c:	80 93 49 42 	sts	0x4249, r24	; 0x804249 <__system_time>
     210:	80 91 4a 42 	lds	r24, 0x424A	; 0x80424a <__system_time+0x1>
     214:	8f 4f       	sbci	r24, 0xFF	; 255
     216:	80 93 4a 42 	sts	0x424A, r24	; 0x80424a <__system_time+0x1>
     21a:	80 91 4b 42 	lds	r24, 0x424B	; 0x80424b <__system_time+0x2>
     21e:	8f 4f       	sbci	r24, 0xFF	; 255
     220:	80 93 4b 42 	sts	0x424B, r24	; 0x80424b <__system_time+0x2>
     224:	80 91 4c 42 	lds	r24, 0x424C	; 0x80424c <__system_time+0x3>
     228:	8f 4f       	sbci	r24, 0xFF	; 255
     22a:	80 93 4c 42 	sts	0x424C, r24	; 0x80424c <__system_time+0x3>
     22e:	8f 91       	pop	r24
     230:	8f bf       	out	0x3f, r24	; 63
     232:	8f 91       	pop	r24
     234:	08 95       	ret

00000236 <atmel_start_init>:

/**
 * Initializes MCU, drivers and middleware in the project
 **/
void atmel_start_init(void)
{
     236:	cf 93       	push	r28
     238:	df 93       	push	r29
     23a:	cd b7       	in	r28, 0x3d	; 61
     23c:	de b7       	in	r29, 0x3e	; 62
	system_init();
     23e:	0e 94 07 1e 	call	0x3c0e	; 0x3c0e <system_init>
}
     242:	00 00       	nop
     244:	df 91       	pop	r29
     246:	cf 91       	pop	r28
     248:	08 95       	ret

0000024a <PORTA_set_pin_level>:

  // Write new null terminator character
  end[1] = '\0';

  return str;
     24a:	cf 93       	push	r28
     24c:	df 93       	push	r29
     24e:	00 d0       	rcall	.+0      	; 0x250 <PORTA_set_pin_level+0x6>
     250:	cd b7       	in	r28, 0x3d	; 61
     252:	de b7       	in	r29, 0x3e	; 62
     254:	89 83       	std	Y+1, r24	; 0x01
     256:	6a 83       	std	Y+2, r22	; 0x02
     258:	8a 81       	ldd	r24, Y+2	; 0x02
     25a:	88 23       	and	r24, r24
     25c:	b1 f0       	breq	.+44     	; 0x28a <PORTA_set_pin_level+0x40>
     25e:	80 e0       	ldi	r24, 0x00	; 0
     260:	90 e0       	ldi	r25, 0x00	; 0
     262:	fc 01       	movw	r30, r24
     264:	81 81       	ldd	r24, Z+1	; 0x01
     266:	48 2f       	mov	r20, r24
     268:	89 81       	ldd	r24, Y+1	; 0x01
     26a:	28 2f       	mov	r18, r24
     26c:	30 e0       	ldi	r19, 0x00	; 0
     26e:	81 e0       	ldi	r24, 0x01	; 1
     270:	90 e0       	ldi	r25, 0x00	; 0
     272:	02 c0       	rjmp	.+4      	; 0x278 <PORTA_set_pin_level+0x2e>
     274:	88 0f       	add	r24, r24
     276:	99 1f       	adc	r25, r25
     278:	2a 95       	dec	r18
     27a:	e2 f7       	brpl	.-8      	; 0x274 <PORTA_set_pin_level+0x2a>
     27c:	24 2f       	mov	r18, r20
     27e:	28 2b       	or	r18, r24
     280:	80 e0       	ldi	r24, 0x00	; 0
     282:	90 e0       	ldi	r25, 0x00	; 0
     284:	fc 01       	movw	r30, r24
     286:	21 83       	std	Z+1, r18	; 0x01
     288:	16 c0       	rjmp	.+44     	; 0x2b6 <PORTA_set_pin_level+0x6c>
     28a:	80 e0       	ldi	r24, 0x00	; 0
     28c:	90 e0       	ldi	r25, 0x00	; 0
     28e:	fc 01       	movw	r30, r24
     290:	81 81       	ldd	r24, Z+1	; 0x01
     292:	48 2f       	mov	r20, r24
     294:	89 81       	ldd	r24, Y+1	; 0x01
     296:	28 2f       	mov	r18, r24
     298:	30 e0       	ldi	r19, 0x00	; 0
     29a:	81 e0       	ldi	r24, 0x01	; 1
     29c:	90 e0       	ldi	r25, 0x00	; 0
     29e:	02 c0       	rjmp	.+4      	; 0x2a4 <PORTA_set_pin_level+0x5a>
     2a0:	88 0f       	add	r24, r24
     2a2:	99 1f       	adc	r25, r25
     2a4:	2a 95       	dec	r18
     2a6:	e2 f7       	brpl	.-8      	; 0x2a0 <PORTA_set_pin_level+0x56>
     2a8:	80 95       	com	r24
     2aa:	24 2f       	mov	r18, r20
     2ac:	28 23       	and	r18, r24
     2ae:	80 e0       	ldi	r24, 0x00	; 0
     2b0:	90 e0       	ldi	r25, 0x00	; 0
     2b2:	fc 01       	movw	r30, r24
     2b4:	21 83       	std	Z+1, r18	; 0x01
     2b6:	00 00       	nop
     2b8:	0f 90       	pop	r0
     2ba:	0f 90       	pop	r0
     2bc:	df 91       	pop	r29
     2be:	cf 91       	pop	r28
     2c0:	08 95       	ret

000002c2 <__vector_3>:
     2c2:	1f 92       	push	r1
     2c4:	0f 92       	push	r0
     2c6:	0f b6       	in	r0, 0x3f	; 63
     2c8:	0f 92       	push	r0
     2ca:	11 24       	eor	r1, r1
     2cc:	0b b6       	in	r0, 0x3b	; 59
     2ce:	0f 92       	push	r0
     2d0:	2f 93       	push	r18
     2d2:	3f 93       	push	r19
     2d4:	4f 93       	push	r20
     2d6:	5f 93       	push	r21
     2d8:	6f 93       	push	r22
     2da:	7f 93       	push	r23
     2dc:	8f 93       	push	r24
     2de:	9f 93       	push	r25
     2e0:	af 93       	push	r26
     2e2:	bf 93       	push	r27
     2e4:	ef 93       	push	r30
     2e6:	ff 93       	push	r31
     2e8:	cf 93       	push	r28
     2ea:	df 93       	push	r29
     2ec:	1f 92       	push	r1
     2ee:	cd b7       	in	r28, 0x3d	; 61
     2f0:	de b7       	in	r29, 0x3e	; 62
     2f2:	80 e4       	ldi	r24, 0x40	; 64
     2f4:	91 e0       	ldi	r25, 0x01	; 1
     2f6:	fc 01       	movw	r30, r24
     2f8:	83 81       	ldd	r24, Z+3	; 0x03
     2fa:	89 83       	std	Y+1, r24	; 0x01
     2fc:	89 81       	ldd	r24, Y+1	; 0x01
     2fe:	88 2f       	mov	r24, r24
     300:	90 e0       	ldi	r25, 0x00	; 0
     302:	81 70       	andi	r24, 0x01	; 1
     304:	99 27       	eor	r25, r25
     306:	89 2b       	or	r24, r25
     308:	09 f4       	brne	.+2      	; 0x30c <__vector_3+0x4a>
     30a:	51 c0       	rjmp	.+162    	; 0x3ae <__vector_3+0xec>
     30c:	0e 94 ff 00 	call	0x1fe	; 0x1fe <system_tick>
     310:	80 91 06 40 	lds	r24, 0x4006	; 0x804006 <_ZL19g_powerdown_seconds>
     314:	90 91 07 40 	lds	r25, 0x4007	; 0x804007 <_ZL19g_powerdown_seconds+0x1>
     318:	21 e0       	ldi	r18, 0x01	; 1
     31a:	89 2b       	or	r24, r25
     31c:	09 f4       	brne	.+2      	; 0x320 <__vector_3+0x5e>
     31e:	20 e0       	ldi	r18, 0x00	; 0
     320:	22 23       	and	r18, r18
     322:	49 f0       	breq	.+18     	; 0x336 <__vector_3+0x74>
     324:	80 91 06 40 	lds	r24, 0x4006	; 0x804006 <_ZL19g_powerdown_seconds>
     328:	90 91 07 40 	lds	r25, 0x4007	; 0x804007 <_ZL19g_powerdown_seconds+0x1>
     32c:	01 97       	sbiw	r24, 0x01	; 1
     32e:	80 93 06 40 	sts	0x4006, r24	; 0x804006 <_ZL19g_powerdown_seconds>
     332:	90 93 07 40 	sts	0x4007, r25	; 0x804007 <_ZL19g_powerdown_seconds+0x1>
     336:	81 e0       	ldi	r24, 0x01	; 1
     338:	80 93 56 41 	sts	0x4156, r24	; 0x804156 <g_seconds_transition>
     33c:	80 91 57 41 	lds	r24, 0x4157	; 0x804157 <g_seconds_since_poweron>
     340:	90 91 58 41 	lds	r25, 0x4158	; 0x804158 <g_seconds_since_poweron+0x1>
     344:	a0 91 59 41 	lds	r26, 0x4159	; 0x804159 <g_seconds_since_poweron+0x2>
     348:	b0 91 5a 41 	lds	r27, 0x415A	; 0x80415a <g_seconds_since_poweron+0x3>
     34c:	01 96       	adiw	r24, 0x01	; 1
     34e:	a1 1d       	adc	r26, r1
     350:	b1 1d       	adc	r27, r1
     352:	80 93 57 41 	sts	0x4157, r24	; 0x804157 <g_seconds_since_poweron>
     356:	90 93 58 41 	sts	0x4158, r25	; 0x804158 <g_seconds_since_poweron+0x1>
     35a:	a0 93 59 41 	sts	0x4159, r26	; 0x804159 <g_seconds_since_poweron+0x2>
     35e:	b0 93 5a 41 	sts	0x415A, r27	; 0x80415a <g_seconds_since_poweron+0x3>
     362:	80 91 57 41 	lds	r24, 0x4157	; 0x804157 <g_seconds_since_poweron>
     366:	90 91 58 41 	lds	r25, 0x4158	; 0x804158 <g_seconds_since_poweron+0x1>
     36a:	a0 91 59 41 	lds	r26, 0x4159	; 0x804159 <g_seconds_since_poweron+0x2>
     36e:	b0 91 5a 41 	lds	r27, 0x415A	; 0x80415a <g_seconds_since_poweron+0x3>
     372:	21 e0       	ldi	r18, 0x01	; 1
     374:	02 97       	sbiw	r24, 0x02	; 2
     376:	a1 05       	cpc	r26, r1
     378:	b1 05       	cpc	r27, r1
     37a:	09 f0       	breq	.+2      	; 0x37e <__vector_3+0xbc>
     37c:	20 e0       	ldi	r18, 0x00	; 0
     37e:	22 23       	and	r18, r18
     380:	19 f0       	breq	.+6      	; 0x388 <__vector_3+0xc6>
     382:	81 e0       	ldi	r24, 0x01	; 1
     384:	80 93 4d 41 	sts	0x414D, r24	; 0x80414d <_ZL15g_rotary_enable>
     388:	80 91 57 41 	lds	r24, 0x4157	; 0x804157 <g_seconds_since_poweron>
     38c:	90 91 58 41 	lds	r25, 0x4158	; 0x804158 <g_seconds_since_poweron+0x1>
     390:	a0 91 59 41 	lds	r26, 0x4159	; 0x804159 <g_seconds_since_poweron+0x2>
     394:	b0 91 5a 41 	lds	r27, 0x415A	; 0x80415a <g_seconds_since_poweron+0x3>
     398:	21 e0       	ldi	r18, 0x01	; 1
     39a:	05 97       	sbiw	r24, 0x05	; 5
     39c:	a1 05       	cpc	r26, r1
     39e:	b1 05       	cpc	r27, r1
     3a0:	09 f0       	breq	.+2      	; 0x3a4 <__vector_3+0xe2>
     3a2:	20 e0       	ldi	r18, 0x00	; 0
     3a4:	22 23       	and	r18, r18
     3a6:	19 f0       	breq	.+6      	; 0x3ae <__vector_3+0xec>
     3a8:	81 e0       	ldi	r24, 0x01	; 1
     3aa:	80 93 5b 41 	sts	0x415B, r24	; 0x80415b <g_display_active>
     3ae:	80 e4       	ldi	r24, 0x40	; 64
     3b0:	91 e0       	ldi	r25, 0x01	; 1
     3b2:	23 e0       	ldi	r18, 0x03	; 3
     3b4:	fc 01       	movw	r30, r24
     3b6:	23 83       	std	Z+3, r18	; 0x03
     3b8:	00 00       	nop
     3ba:	0f 90       	pop	r0
     3bc:	df 91       	pop	r29
     3be:	cf 91       	pop	r28
     3c0:	ff 91       	pop	r31
     3c2:	ef 91       	pop	r30
     3c4:	bf 91       	pop	r27
     3c6:	af 91       	pop	r26
     3c8:	9f 91       	pop	r25
     3ca:	8f 91       	pop	r24
     3cc:	7f 91       	pop	r23
     3ce:	6f 91       	pop	r22
     3d0:	5f 91       	pop	r21
     3d2:	4f 91       	pop	r20
     3d4:	3f 91       	pop	r19
     3d6:	2f 91       	pop	r18
     3d8:	0f 90       	pop	r0
     3da:	0b be       	out	0x3b, r0	; 59
     3dc:	0f 90       	pop	r0
     3de:	0f be       	out	0x3f, r0	; 63
     3e0:	0f 90       	pop	r0
     3e2:	1f 90       	pop	r1
     3e4:	18 95       	reti

000003e6 <__vector_46>:
     3e6:	1f 92       	push	r1
     3e8:	0f 92       	push	r0
     3ea:	0f b6       	in	r0, 0x3f	; 63
     3ec:	0f 92       	push	r0
     3ee:	11 24       	eor	r1, r1
     3f0:	0b b6       	in	r0, 0x3b	; 59
     3f2:	0f 92       	push	r0
     3f4:	2f 93       	push	r18
     3f6:	3f 93       	push	r19
     3f8:	4f 93       	push	r20
     3fa:	5f 93       	push	r21
     3fc:	6f 93       	push	r22
     3fe:	7f 93       	push	r23
     400:	8f 93       	push	r24
     402:	9f 93       	push	r25
     404:	af 93       	push	r26
     406:	bf 93       	push	r27
     408:	ef 93       	push	r30
     40a:	ff 93       	push	r31
     40c:	cf 93       	push	r28
     40e:	df 93       	push	r29
     410:	cd b7       	in	r28, 0x3d	; 61
     412:	de b7       	in	r29, 0x3e	; 62
     414:	27 97       	sbiw	r28, 0x07	; 7
     416:	cd bf       	out	0x3d, r28	; 61
     418:	de bf       	out	0x3e, r29	; 62
     41a:	80 e4       	ldi	r24, 0x40	; 64
     41c:	9a e0       	ldi	r25, 0x0A	; 10
     41e:	fc 01       	movw	r30, r24
     420:	83 85       	ldd	r24, Z+11	; 0x0b
     422:	8b 83       	std	Y+3, r24	; 0x03
     424:	8b 81       	ldd	r24, Y+3	; 0x03
     426:	88 2f       	mov	r24, r24
     428:	90 e0       	ldi	r25, 0x00	; 0
     42a:	81 70       	andi	r24, 0x01	; 1
     42c:	99 27       	eor	r25, r25
     42e:	89 2b       	or	r24, r25
     430:	09 f4       	brne	.+2      	; 0x434 <__LOCK_REGION_LENGTH__+0x34>
     432:	7b c1       	rjmp	.+758    	; 0x72a <__LOCK_REGION_LENGTH__+0x32a>
     434:	19 82       	std	Y+1, r1	; 0x01
     436:	89 81       	ldd	r24, Y+1	; 0x01
     438:	83 30       	cpi	r24, 0x03	; 3
     43a:	a8 f5       	brcc	.+106    	; 0x4a6 <__LOCK_REGION_LENGTH__+0xa6>
     43c:	89 81       	ldd	r24, Y+1	; 0x01
     43e:	88 2f       	mov	r24, r24
     440:	90 e0       	ldi	r25, 0x00	; 0
     442:	88 0f       	add	r24, r24
     444:	99 1f       	adc	r25, r25
     446:	8f 5e       	subi	r24, 0xEF	; 239
     448:	9f 4b       	sbci	r25, 0xBF	; 191
     44a:	fc 01       	movw	r30, r24
     44c:	80 81       	ld	r24, Z
     44e:	91 81       	ldd	r25, Z+1	; 0x01
     450:	89 2b       	or	r24, r25
     452:	71 f0       	breq	.+28     	; 0x470 <__LOCK_REGION_LENGTH__+0x70>
     454:	89 81       	ldd	r24, Y+1	; 0x01
     456:	88 2f       	mov	r24, r24
     458:	90 e0       	ldi	r25, 0x00	; 0
     45a:	88 0f       	add	r24, r24
     45c:	99 1f       	adc	r25, r25
     45e:	8f 52       	subi	r24, 0x2F	; 47
     460:	9f 4b       	sbci	r25, 0xBF	; 191
     462:	fc 01       	movw	r30, r24
     464:	80 81       	ld	r24, Z
     466:	91 81       	ldd	r25, Z+1	; 0x01
     468:	89 2b       	or	r24, r25
     46a:	11 f0       	breq	.+4      	; 0x470 <__LOCK_REGION_LENGTH__+0x70>
     46c:	81 e0       	ldi	r24, 0x01	; 1
     46e:	01 c0       	rjmp	.+2      	; 0x472 <__LOCK_REGION_LENGTH__+0x72>
     470:	80 e0       	ldi	r24, 0x00	; 0
     472:	88 23       	and	r24, r24
     474:	a1 f0       	breq	.+40     	; 0x49e <__LOCK_REGION_LENGTH__+0x9e>
     476:	89 81       	ldd	r24, Y+1	; 0x01
     478:	88 2f       	mov	r24, r24
     47a:	90 e0       	ldi	r25, 0x00	; 0
     47c:	9c 01       	movw	r18, r24
     47e:	22 0f       	add	r18, r18
     480:	33 1f       	adc	r19, r19
     482:	2f 5e       	subi	r18, 0xEF	; 239
     484:	3f 4b       	sbci	r19, 0xBF	; 191
     486:	f9 01       	movw	r30, r18
     488:	20 81       	ld	r18, Z
     48a:	31 81       	ldd	r19, Z+1	; 0x01
     48c:	21 50       	subi	r18, 0x01	; 1
     48e:	31 09       	sbc	r19, r1
     490:	88 0f       	add	r24, r24
     492:	99 1f       	adc	r25, r25
     494:	8f 5e       	subi	r24, 0xEF	; 239
     496:	9f 4b       	sbci	r25, 0xBF	; 191
     498:	fc 01       	movw	r30, r24
     49a:	20 83       	st	Z, r18
     49c:	31 83       	std	Z+1, r19	; 0x01
     49e:	89 81       	ldd	r24, Y+1	; 0x01
     4a0:	8f 5f       	subi	r24, 0xFF	; 255
     4a2:	89 83       	std	Y+1, r24	; 0x01
     4a4:	c8 cf       	rjmp	.-112    	; 0x436 <__LOCK_REGION_LENGTH__+0x36>
     4a6:	90 91 cd 41 	lds	r25, 0x41CD	; 0x8041cd <_ZZ11__vector_46E19conversionInProcess>
     4aa:	81 e0       	ldi	r24, 0x01	; 1
     4ac:	89 27       	eor	r24, r25
     4ae:	88 23       	and	r24, r24
     4b0:	09 f4       	brne	.+2      	; 0x4b4 <__LOCK_REGION_LENGTH__+0xb4>
     4b2:	50 c0       	rjmp	.+160    	; 0x554 <__LOCK_REGION_LENGTH__+0x154>
     4b4:	8f ef       	ldi	r24, 0xFF	; 255
     4b6:	80 93 ce 41 	sts	0x41CE, r24	; 0x8041ce <_ZZ11__vector_46E24indexConversionInProcess>
     4ba:	1a 82       	std	Y+2, r1	; 0x02
     4bc:	8a 81       	ldd	r24, Y+2	; 0x02
     4be:	83 30       	cpi	r24, 0x03	; 3
     4c0:	c0 f4       	brcc	.+48     	; 0x4f2 <__LOCK_REGION_LENGTH__+0xf2>
     4c2:	8a 81       	ldd	r24, Y+2	; 0x02
     4c4:	88 2f       	mov	r24, r24
     4c6:	90 e0       	ldi	r25, 0x00	; 0
     4c8:	88 0f       	add	r24, r24
     4ca:	99 1f       	adc	r25, r25
     4cc:	8f 5e       	subi	r24, 0xEF	; 239
     4ce:	9f 4b       	sbci	r25, 0xBF	; 191
     4d0:	fc 01       	movw	r30, r24
     4d2:	80 81       	ld	r24, Z
     4d4:	91 81       	ldd	r25, Z+1	; 0x01
     4d6:	21 e0       	ldi	r18, 0x01	; 1
     4d8:	89 2b       	or	r24, r25
     4da:	09 f0       	breq	.+2      	; 0x4de <__LOCK_REGION_LENGTH__+0xde>
     4dc:	20 e0       	ldi	r18, 0x00	; 0
     4de:	22 23       	and	r18, r18
     4e0:	21 f0       	breq	.+8      	; 0x4ea <__LOCK_REGION_LENGTH__+0xea>
     4e2:	8a 81       	ldd	r24, Y+2	; 0x02
     4e4:	80 93 ce 41 	sts	0x41CE, r24	; 0x8041ce <_ZZ11__vector_46E24indexConversionInProcess>
     4e8:	04 c0       	rjmp	.+8      	; 0x4f2 <__LOCK_REGION_LENGTH__+0xf2>
     4ea:	8a 81       	ldd	r24, Y+2	; 0x02
     4ec:	8f 5f       	subi	r24, 0xFF	; 255
     4ee:	8a 83       	std	Y+2, r24	; 0x02
     4f0:	e5 cf       	rjmp	.-54     	; 0x4bc <__LOCK_REGION_LENGTH__+0xbc>
     4f2:	80 91 ce 41 	lds	r24, 0x41CE	; 0x8041ce <_ZZ11__vector_46E24indexConversionInProcess>
     4f6:	88 23       	and	r24, r24
     4f8:	0c f4       	brge	.+2      	; 0x4fc <__LOCK_REGION_LENGTH__+0xfc>
     4fa:	17 c1       	rjmp	.+558    	; 0x72a <__LOCK_REGION_LENGTH__+0x32a>
     4fc:	80 91 ce 41 	lds	r24, 0x41CE	; 0x8041ce <_ZZ11__vector_46E24indexConversionInProcess>
     500:	28 2f       	mov	r18, r24
     502:	88 0f       	add	r24, r24
     504:	33 0b       	sbc	r19, r19
     506:	80 91 ce 41 	lds	r24, 0x41CE	; 0x8041ce <_ZZ11__vector_46E24indexConversionInProcess>
     50a:	08 2e       	mov	r0, r24
     50c:	00 0c       	add	r0, r0
     50e:	99 0b       	sbc	r25, r25
     510:	22 0f       	add	r18, r18
     512:	33 1f       	adc	r19, r19
     514:	2f 52       	subi	r18, 0x2F	; 47
     516:	3f 4b       	sbci	r19, 0xBF	; 191
     518:	f9 01       	movw	r30, r18
     51a:	20 81       	ld	r18, Z
     51c:	31 81       	ldd	r19, Z+1	; 0x01
     51e:	88 0f       	add	r24, r24
     520:	99 1f       	adc	r25, r25
     522:	8f 5e       	subi	r24, 0xEF	; 239
     524:	9f 4b       	sbci	r25, 0xBF	; 191
     526:	fc 01       	movw	r30, r24
     528:	20 83       	st	Z, r18
     52a:	31 83       	std	Z+1, r19	; 0x01
     52c:	80 91 ce 41 	lds	r24, 0x41CE	; 0x8041ce <_ZZ11__vector_46E24indexConversionInProcess>
     530:	08 2e       	mov	r0, r24
     532:	00 0c       	add	r0, r0
     534:	99 0b       	sbc	r25, r25
     536:	88 0f       	add	r24, r24
     538:	99 1f       	adc	r25, r25
     53a:	85 5f       	subi	r24, 0xF5	; 245
     53c:	9f 4b       	sbci	r25, 0xBF	; 191
     53e:	fc 01       	movw	r30, r24
     540:	80 81       	ld	r24, Z
     542:	91 81       	ldd	r25, Z+1	; 0x01
     544:	0e 94 e5 0f 	call	0x1fca	; 0x1fca <_Z18ADC0_setADCChannel20ADC_Active_Channel_t>
     548:	0e 94 91 10 	call	0x2122	; 0x2122 <_Z20ADC0_startConversionv>
     54c:	81 e0       	ldi	r24, 0x01	; 1
     54e:	80 93 cd 41 	sts	0x41CD, r24	; 0x8041cd <_ZZ11__vector_46E19conversionInProcess>
     552:	eb c0       	rjmp	.+470    	; 0x72a <__LOCK_REGION_LENGTH__+0x32a>
     554:	0e 94 a4 10 	call	0x2148	; 0x2148 <_Z19ADC0_conversionDonev>
     558:	88 23       	and	r24, r24
     55a:	09 f4       	brne	.+2      	; 0x55e <__LOCK_REGION_LENGTH__+0x15e>
     55c:	cb c0       	rjmp	.+406    	; 0x6f4 <__LOCK_REGION_LENGTH__+0x2f4>
     55e:	0e 94 b8 10 	call	0x2170	; 0x2170 <_Z9ADC0_readv>
     562:	8c 83       	std	Y+4, r24	; 0x04
     564:	9d 83       	std	Y+5, r25	; 0x05
     566:	8c 81       	ldd	r24, Y+4	; 0x04
     568:	9d 81       	ldd	r25, Y+5	; 0x05
     56a:	8a 3f       	cpi	r24, 0xFA	; 250
     56c:	9f 40       	sbci	r25, 0x0F	; 15
     56e:	08 f0       	brcs	.+2      	; 0x572 <__LOCK_REGION_LENGTH__+0x172>
     570:	be c0       	rjmp	.+380    	; 0x6ee <__LOCK_REGION_LENGTH__+0x2ee>
     572:	8c 81       	ldd	r24, Y+4	; 0x04
     574:	9d 81       	ldd	r25, Y+5	; 0x05
     576:	80 93 cf 41 	sts	0x41CF, r24	; 0x8041cf <_ZZ11__vector_46E20holdConversionResult>
     57a:	90 93 d0 41 	sts	0x41D0, r25	; 0x8041d0 <_ZZ11__vector_46E20holdConversionResult+0x1>
     57e:	80 91 ce 41 	lds	r24, 0x41CE	; 0x8041ce <_ZZ11__vector_46E24indexConversionInProcess>
     582:	08 2e       	mov	r0, r24
     584:	00 0c       	add	r0, r0
     586:	99 0b       	sbc	r25, r25
     588:	88 0f       	add	r24, r24
     58a:	99 1f       	adc	r25, r25
     58c:	8f 59       	subi	r24, 0x9F	; 159
     58e:	9e 4b       	sbci	r25, 0xBE	; 190
     590:	fc 01       	movw	r30, r24
     592:	80 81       	ld	r24, Z
     594:	91 81       	ldd	r25, Z+1	; 0x01
     596:	8e 83       	std	Y+6, r24	; 0x06
     598:	9f 83       	std	Y+7, r25	; 0x07
     59a:	80 91 ce 41 	lds	r24, 0x41CE	; 0x8041ce <_ZZ11__vector_46E24indexConversionInProcess>
     59e:	08 2e       	mov	r0, r24
     5a0:	00 0c       	add	r0, r0
     5a2:	99 0b       	sbc	r25, r25
     5a4:	82 5a       	subi	r24, 0xA2	; 162
     5a6:	9e 4b       	sbci	r25, 0xBE	; 190
     5a8:	21 e0       	ldi	r18, 0x01	; 1
     5aa:	fc 01       	movw	r30, r24
     5ac:	20 83       	st	Z, r18
     5ae:	80 91 ce 41 	lds	r24, 0x41CE	; 0x8041ce <_ZZ11__vector_46E24indexConversionInProcess>
     5b2:	08 2e       	mov	r0, r24
     5b4:	00 0c       	add	r0, r0
     5b6:	99 0b       	sbc	r25, r25
     5b8:	88 0f       	add	r24, r24
     5ba:	99 1f       	adc	r25, r25
     5bc:	85 5f       	subi	r24, 0xF5	; 245
     5be:	9f 4b       	sbci	r25, 0xBF	; 191
     5c0:	fc 01       	movw	r30, r24
     5c2:	80 81       	ld	r24, Z
     5c4:	91 81       	ldd	r25, Z+1	; 0x01
     5c6:	04 97       	sbiw	r24, 0x04	; 4
     5c8:	09 f0       	breq	.+2      	; 0x5cc <__LOCK_REGION_LENGTH__+0x1cc>
     5ca:	53 c0       	rjmp	.+166    	; 0x672 <__LOCK_REGION_LENGTH__+0x272>
     5cc:	80 91 cf 41 	lds	r24, 0x41CF	; 0x8041cf <_ZZ11__vector_46E20holdConversionResult>
     5d0:	90 91 d0 41 	lds	r25, 0x41D0	; 0x8041d0 <_ZZ11__vector_46E20holdConversionResult+0x1>
     5d4:	2e 81       	ldd	r18, Y+6	; 0x06
     5d6:	3f 81       	ldd	r19, Y+7	; 0x07
     5d8:	28 17       	cp	r18, r24
     5da:	39 07       	cpc	r19, r25
     5dc:	08 f5       	brcc	.+66     	; 0x620 <__LOCK_REGION_LENGTH__+0x220>
     5de:	8e 81       	ldd	r24, Y+6	; 0x06
     5e0:	9f 81       	ldd	r25, Y+7	; 0x07
     5e2:	9c 01       	movw	r18, r24
     5e4:	22 0f       	add	r18, r18
     5e6:	33 1f       	adc	r19, r19
     5e8:	80 91 cf 41 	lds	r24, 0x41CF	; 0x8041cf <_ZZ11__vector_46E20holdConversionResult>
     5ec:	90 91 d0 41 	lds	r25, 0x41D0	; 0x8041d0 <_ZZ11__vector_46E20holdConversionResult+0x1>
     5f0:	82 0f       	add	r24, r18
     5f2:	93 1f       	adc	r25, r19
     5f4:	20 91 ce 41 	lds	r18, 0x41CE	; 0x8041ce <_ZZ11__vector_46E24indexConversionInProcess>
     5f8:	42 2f       	mov	r20, r18
     5fa:	22 0f       	add	r18, r18
     5fc:	55 0b       	sbc	r21, r21
     5fe:	9c 01       	movw	r18, r24
     600:	ab ea       	ldi	r26, 0xAB	; 171
     602:	ba ea       	ldi	r27, 0xAA	; 170
     604:	0e 94 16 3b 	call	0x762c	; 0x762c <__umulhisi3>
     608:	9c 01       	movw	r18, r24
     60a:	36 95       	lsr	r19
     60c:	27 95       	ror	r18
     60e:	ca 01       	movw	r24, r20
     610:	88 0f       	add	r24, r24
     612:	99 1f       	adc	r25, r25
     614:	8f 59       	subi	r24, 0x9F	; 159
     616:	9e 4b       	sbci	r25, 0xBE	; 190
     618:	fc 01       	movw	r30, r24
     61a:	20 83       	st	Z, r18
     61c:	31 83       	std	Z+1, r19	; 0x01
     61e:	67 c0       	rjmp	.+206    	; 0x6ee <__LOCK_REGION_LENGTH__+0x2ee>
     620:	8e 81       	ldd	r24, Y+6	; 0x06
     622:	9f 81       	ldd	r25, Y+7	; 0x07
     624:	9c 01       	movw	r18, r24
     626:	22 0f       	add	r18, r18
     628:	33 1f       	adc	r19, r19
     62a:	22 0f       	add	r18, r18
     62c:	33 1f       	adc	r19, r19
     62e:	22 0f       	add	r18, r18
     630:	33 1f       	adc	r19, r19
     632:	80 91 cf 41 	lds	r24, 0x41CF	; 0x8041cf <_ZZ11__vector_46E20holdConversionResult>
     636:	90 91 d0 41 	lds	r25, 0x41D0	; 0x8041d0 <_ZZ11__vector_46E20holdConversionResult+0x1>
     63a:	82 0f       	add	r24, r18
     63c:	93 1f       	adc	r25, r19
     63e:	20 91 ce 41 	lds	r18, 0x41CE	; 0x8041ce <_ZZ11__vector_46E24indexConversionInProcess>
     642:	42 2f       	mov	r20, r18
     644:	22 0f       	add	r18, r18
     646:	55 0b       	sbc	r21, r21
     648:	9c 01       	movw	r18, r24
     64a:	af e8       	ldi	r26, 0x8F	; 143
     64c:	b3 ee       	ldi	r27, 0xE3	; 227
     64e:	0e 94 16 3b 	call	0x762c	; 0x762c <__umulhisi3>
     652:	9c 01       	movw	r18, r24
     654:	36 95       	lsr	r19
     656:	27 95       	ror	r18
     658:	36 95       	lsr	r19
     65a:	27 95       	ror	r18
     65c:	36 95       	lsr	r19
     65e:	27 95       	ror	r18
     660:	ca 01       	movw	r24, r20
     662:	88 0f       	add	r24, r24
     664:	99 1f       	adc	r25, r25
     666:	8f 59       	subi	r24, 0x9F	; 159
     668:	9e 4b       	sbci	r25, 0xBE	; 190
     66a:	fc 01       	movw	r30, r24
     66c:	20 83       	st	Z, r18
     66e:	31 83       	std	Z+1, r19	; 0x01
     670:	3e c0       	rjmp	.+124    	; 0x6ee <__LOCK_REGION_LENGTH__+0x2ee>
     672:	80 91 ce 41 	lds	r24, 0x41CE	; 0x8041ce <_ZZ11__vector_46E24indexConversionInProcess>
     676:	08 2e       	mov	r0, r24
     678:	00 0c       	add	r0, r0
     67a:	99 0b       	sbc	r25, r25
     67c:	88 0f       	add	r24, r24
     67e:	99 1f       	adc	r25, r25
     680:	85 5f       	subi	r24, 0xF5	; 245
     682:	9f 4b       	sbci	r25, 0xBF	; 191
     684:	fc 01       	movw	r30, r24
     686:	80 81       	ld	r24, Z
     688:	91 81       	ldd	r25, Z+1	; 0x01
     68a:	89 2b       	or	r24, r25
     68c:	01 f5       	brne	.+64     	; 0x6ce <__LOCK_REGION_LENGTH__+0x2ce>
     68e:	80 91 cf 41 	lds	r24, 0x41CF	; 0x8041cf <_ZZ11__vector_46E20holdConversionResult>
     692:	90 91 d0 41 	lds	r25, 0x41D0	; 0x8041d0 <_ZZ11__vector_46E20holdConversionResult+0x1>
     696:	0e 94 69 1a 	call	0x34d2	; 0x34d2 <_Z11DAC0_setValj>
     69a:	20 91 cf 41 	lds	r18, 0x41CF	; 0x8041cf <_ZZ11__vector_46E20holdConversionResult>
     69e:	30 91 d0 41 	lds	r19, 0x41D0	; 0x8041d0 <_ZZ11__vector_46E20holdConversionResult+0x1>
     6a2:	80 91 ce 41 	lds	r24, 0x41CE	; 0x8041ce <_ZZ11__vector_46E24indexConversionInProcess>
     6a6:	08 2e       	mov	r0, r24
     6a8:	00 0c       	add	r0, r0
     6aa:	99 0b       	sbc	r25, r25
     6ac:	00 24       	eor	r0, r0
     6ae:	36 95       	lsr	r19
     6b0:	27 95       	ror	r18
     6b2:	07 94       	ror	r0
     6b4:	36 95       	lsr	r19
     6b6:	27 95       	ror	r18
     6b8:	07 94       	ror	r0
     6ba:	32 2f       	mov	r19, r18
     6bc:	20 2d       	mov	r18, r0
     6be:	88 0f       	add	r24, r24
     6c0:	99 1f       	adc	r25, r25
     6c2:	8f 59       	subi	r24, 0x9F	; 159
     6c4:	9e 4b       	sbci	r25, 0xBE	; 190
     6c6:	fc 01       	movw	r30, r24
     6c8:	20 83       	st	Z, r18
     6ca:	31 83       	std	Z+1, r19	; 0x01
     6cc:	10 c0       	rjmp	.+32     	; 0x6ee <__LOCK_REGION_LENGTH__+0x2ee>
     6ce:	80 91 ce 41 	lds	r24, 0x41CE	; 0x8041ce <_ZZ11__vector_46E24indexConversionInProcess>
     6d2:	08 2e       	mov	r0, r24
     6d4:	00 0c       	add	r0, r0
     6d6:	99 0b       	sbc	r25, r25
     6d8:	20 91 cf 41 	lds	r18, 0x41CF	; 0x8041cf <_ZZ11__vector_46E20holdConversionResult>
     6dc:	30 91 d0 41 	lds	r19, 0x41D0	; 0x8041d0 <_ZZ11__vector_46E20holdConversionResult+0x1>
     6e0:	88 0f       	add	r24, r24
     6e2:	99 1f       	adc	r25, r25
     6e4:	8f 59       	subi	r24, 0x9F	; 159
     6e6:	9e 4b       	sbci	r25, 0xBE	; 190
     6e8:	fc 01       	movw	r30, r24
     6ea:	20 83       	st	Z, r18
     6ec:	31 83       	std	Z+1, r19	; 0x01
     6ee:	10 92 cd 41 	sts	0x41CD, r1	; 0x8041cd <_ZZ11__vector_46E19conversionInProcess>
     6f2:	1b c0       	rjmp	.+54     	; 0x72a <__LOCK_REGION_LENGTH__+0x32a>
     6f4:	80 e4       	ldi	r24, 0x40	; 64
     6f6:	9a e0       	ldi	r25, 0x0A	; 10
     6f8:	fc 01       	movw	r30, r24
     6fa:	86 a1       	ldd	r24, Z+38	; 0x26
     6fc:	97 a1       	ldd	r25, Z+39	; 0x27
     6fe:	80 93 cb 41 	sts	0x41CB, r24	; 0x8041cb <_ZZ11__vector_46E3top>
     702:	90 93 cc 41 	sts	0x41CC, r25	; 0x8041cc <_ZZ11__vector_46E3top+0x1>
     706:	80 91 cb 41 	lds	r24, 0x41CB	; 0x8041cb <_ZZ11__vector_46E3top>
     70a:	90 91 cc 41 	lds	r25, 0x41CC	; 0x8041cc <_ZZ11__vector_46E3top+0x1>
     70e:	01 96       	adiw	r24, 0x01	; 1
     710:	80 93 cb 41 	sts	0x41CB, r24	; 0x8041cb <_ZZ11__vector_46E3top>
     714:	90 93 cc 41 	sts	0x41CC, r25	; 0x8041cc <_ZZ11__vector_46E3top+0x1>
     718:	80 e4       	ldi	r24, 0x40	; 64
     71a:	9a e0       	ldi	r25, 0x0A	; 10
     71c:	20 91 cb 41 	lds	r18, 0x41CB	; 0x8041cb <_ZZ11__vector_46E3top>
     720:	30 91 cc 41 	lds	r19, 0x41CC	; 0x8041cc <_ZZ11__vector_46E3top+0x1>
     724:	fc 01       	movw	r30, r24
     726:	26 a3       	std	Z+38, r18	; 0x26
     728:	37 a3       	std	Z+39, r19	; 0x27
     72a:	80 e4       	ldi	r24, 0x40	; 64
     72c:	9a e0       	ldi	r25, 0x0A	; 10
     72e:	21 e7       	ldi	r18, 0x71	; 113
     730:	fc 01       	movw	r30, r24
     732:	23 87       	std	Z+11, r18	; 0x0b
     734:	00 00       	nop
     736:	27 96       	adiw	r28, 0x07	; 7
     738:	cd bf       	out	0x3d, r28	; 61
     73a:	de bf       	out	0x3e, r29	; 62
     73c:	df 91       	pop	r29
     73e:	cf 91       	pop	r28
     740:	ff 91       	pop	r31
     742:	ef 91       	pop	r30
     744:	bf 91       	pop	r27
     746:	af 91       	pop	r26
     748:	9f 91       	pop	r25
     74a:	8f 91       	pop	r24
     74c:	7f 91       	pop	r23
     74e:	6f 91       	pop	r22
     750:	5f 91       	pop	r21
     752:	4f 91       	pop	r20
     754:	3f 91       	pop	r19
     756:	2f 91       	pop	r18
     758:	0f 90       	pop	r0
     75a:	0b be       	out	0x3b, r0	; 59
     75c:	0f 90       	pop	r0
     75e:	0f be       	out	0x3f, r0	; 63
     760:	0f 90       	pop	r0
     762:	1f 90       	pop	r1
     764:	18 95       	reti

00000766 <__vector_24>:
     766:	1f 92       	push	r1
     768:	0f 92       	push	r0
     76a:	0f b6       	in	r0, 0x3f	; 63
     76c:	0f 92       	push	r0
     76e:	11 24       	eor	r1, r1
     770:	0b b6       	in	r0, 0x3b	; 59
     772:	0f 92       	push	r0
     774:	2f 93       	push	r18
     776:	3f 93       	push	r19
     778:	4f 93       	push	r20
     77a:	5f 93       	push	r21
     77c:	6f 93       	push	r22
     77e:	7f 93       	push	r23
     780:	8f 93       	push	r24
     782:	9f 93       	push	r25
     784:	af 93       	push	r26
     786:	bf 93       	push	r27
     788:	ef 93       	push	r30
     78a:	ff 93       	push	r31
     78c:	cf 93       	push	r28
     78e:	df 93       	push	r29
     790:	cd b7       	in	r28, 0x3d	; 61
     792:	de b7       	in	r29, 0x3e	; 62
     794:	25 97       	sbiw	r28, 0x05	; 5
     796:	cd bf       	out	0x3d, r28	; 61
     798:	de bf       	out	0x3e, r29	; 62
     79a:	80 e0       	ldi	r24, 0x00	; 0
     79c:	96 e0       	ldi	r25, 0x06	; 6
     79e:	fc 01       	movw	r30, r24
     7a0:	85 85       	ldd	r24, Z+13	; 0x0d
     7a2:	8b 83       	std	Y+3, r24	; 0x03
     7a4:	8b 81       	ldd	r24, Y+3	; 0x03
     7a6:	88 2f       	mov	r24, r24
     7a8:	90 e0       	ldi	r25, 0x00	; 0
     7aa:	81 70       	andi	r24, 0x01	; 1
     7ac:	99 27       	eor	r25, r25
     7ae:	89 2b       	or	r24, r25
     7b0:	09 f4       	brne	.+2      	; 0x7b4 <__vector_24+0x4e>
     7b2:	73 c0       	rjmp	.+230    	; 0x89a <__vector_24+0x134>
     7b4:	80 e0       	ldi	r24, 0x00	; 0
     7b6:	96 e0       	ldi	r25, 0x06	; 6
     7b8:	fc 01       	movw	r30, r24
     7ba:	80 89       	ldd	r24, Z+16	; 0x10
     7bc:	91 89       	ldd	r25, Z+17	; 0x11
     7be:	8c 83       	std	Y+4, r24	; 0x04
     7c0:	9d 83       	std	Y+5, r25	; 0x05
     7c2:	8c 81       	ldd	r24, Y+4	; 0x04
     7c4:	9d 81       	ldd	r25, Y+5	; 0x05
     7c6:	89 83       	std	Y+1, r24	; 0x01
     7c8:	9a 83       	std	Y+2, r25	; 0x02
     7ca:	80 91 c9 41 	lds	r24, 0x41C9	; 0x8041c9 <_ZL6g_beep>
     7ce:	90 91 ca 41 	lds	r25, 0x41CA	; 0x8041ca <_ZL6g_beep+0x1>
     7d2:	21 e0       	ldi	r18, 0x01	; 1
     7d4:	89 2b       	or	r24, r25
     7d6:	09 f4       	brne	.+2      	; 0x7da <__vector_24+0x74>
     7d8:	20 e0       	ldi	r18, 0x00	; 0
     7da:	22 23       	and	r18, r18
     7dc:	21 f1       	breq	.+72     	; 0x826 <__vector_24+0xc0>
     7de:	80 91 d1 41 	lds	r24, 0x41D1	; 0x8041d1 <_ZZ11__vector_24E9sineIndex>
     7e2:	91 e0       	ldi	r25, 0x01	; 1
     7e4:	98 0f       	add	r25, r24
     7e6:	90 93 d1 41 	sts	0x41D1, r25	; 0x8041d1 <_ZZ11__vector_24E9sineIndex>
     7ea:	88 2f       	mov	r24, r24
     7ec:	90 e0       	ldi	r25, 0x00	; 0
     7ee:	88 0f       	add	r24, r24
     7f0:	99 1f       	adc	r25, r25
     7f2:	89 56       	subi	r24, 0x69	; 105
     7f4:	9e 4b       	sbci	r25, 0xBE	; 190
     7f6:	fc 01       	movw	r30, r24
     7f8:	80 81       	ld	r24, Z
     7fa:	91 81       	ldd	r25, Z+1	; 0x01
     7fc:	29 81       	ldd	r18, Y+1	; 0x01
     7fe:	3a 81       	ldd	r19, Y+2	; 0x02
     800:	82 0f       	add	r24, r18
     802:	93 1f       	adc	r25, r19
     804:	89 83       	std	Y+1, r24	; 0x01
     806:	9a 83       	std	Y+2, r25	; 0x02
     808:	80 91 d1 41 	lds	r24, 0x41D1	; 0x8041d1 <_ZZ11__vector_24E9sineIndex>
     80c:	89 31       	cpi	r24, 0x19	; 25
     80e:	11 f4       	brne	.+4      	; 0x814 <__vector_24+0xae>
     810:	10 92 d1 41 	sts	0x41D1, r1	; 0x8041d1 <_ZZ11__vector_24E9sineIndex>
     814:	80 91 c9 41 	lds	r24, 0x41C9	; 0x8041c9 <_ZL6g_beep>
     818:	90 91 ca 41 	lds	r25, 0x41CA	; 0x8041ca <_ZL6g_beep+0x1>
     81c:	01 97       	sbiw	r24, 0x01	; 1
     81e:	80 93 c9 41 	sts	0x41C9, r24	; 0x8041c9 <_ZL6g_beep>
     822:	90 93 ca 41 	sts	0x41CA, r25	; 0x8041ca <_ZL6g_beep+0x1>
     826:	80 91 17 40 	lds	r24, 0x4017	; 0x804017 <g_audio_gain>
     82a:	90 91 18 40 	lds	r25, 0x4018	; 0x804018 <g_audio_gain+0x1>
     82e:	21 e0       	ldi	r18, 0x01	; 1
     830:	05 97       	sbiw	r24, 0x05	; 5
     832:	08 f4       	brcc	.+2      	; 0x836 <__vector_24+0xd0>
     834:	20 e0       	ldi	r18, 0x00	; 0
     836:	22 23       	and	r18, r18
     838:	89 f0       	breq	.+34     	; 0x85c <__vector_24+0xf6>
     83a:	80 91 17 40 	lds	r24, 0x4017	; 0x804017 <g_audio_gain>
     83e:	90 91 18 40 	lds	r25, 0x4018	; 0x804018 <g_audio_gain+0x1>
     842:	9c 01       	movw	r18, r24
     844:	24 50       	subi	r18, 0x04	; 4
     846:	31 09       	sbc	r19, r1
     848:	89 81       	ldd	r24, Y+1	; 0x01
     84a:	9a 81       	ldd	r25, Y+2	; 0x02
     84c:	02 c0       	rjmp	.+4      	; 0x852 <__vector_24+0xec>
     84e:	88 0f       	add	r24, r24
     850:	99 1f       	adc	r25, r25
     852:	2a 95       	dec	r18
     854:	e2 f7       	brpl	.-8      	; 0x84e <__vector_24+0xe8>
     856:	89 83       	std	Y+1, r24	; 0x01
     858:	9a 83       	std	Y+2, r25	; 0x02
     85a:	14 c0       	rjmp	.+40     	; 0x884 <__vector_24+0x11e>
     85c:	80 91 17 40 	lds	r24, 0x4017	; 0x804017 <g_audio_gain>
     860:	90 91 18 40 	lds	r25, 0x4018	; 0x804018 <g_audio_gain+0x1>
     864:	04 97       	sbiw	r24, 0x04	; 4
     866:	99 23       	and	r25, r25
     868:	1c f4       	brge	.+6      	; 0x870 <__vector_24+0x10a>
     86a:	91 95       	neg	r25
     86c:	81 95       	neg	r24
     86e:	91 09       	sbc	r25, r1
     870:	9c 01       	movw	r18, r24
     872:	89 81       	ldd	r24, Y+1	; 0x01
     874:	9a 81       	ldd	r25, Y+2	; 0x02
     876:	02 c0       	rjmp	.+4      	; 0x87c <__vector_24+0x116>
     878:	96 95       	lsr	r25
     87a:	87 95       	ror	r24
     87c:	2a 95       	dec	r18
     87e:	e2 f7       	brpl	.-8      	; 0x878 <__vector_24+0x112>
     880:	89 83       	std	Y+1, r24	; 0x01
     882:	9a 83       	std	Y+2, r25	; 0x02
     884:	89 81       	ldd	r24, Y+1	; 0x01
     886:	9a 81       	ldd	r25, Y+2	; 0x02
     888:	0e 94 69 1a 	call	0x34d2	; 0x34d2 <_Z11DAC0_setValj>
     88c:	8c 81       	ldd	r24, Y+4	; 0x04
     88e:	9d 81       	ldd	r25, Y+5	; 0x05
     890:	bc 01       	movw	r22, r24
     892:	84 ee       	ldi	r24, 0xE4	; 228
     894:	91 e4       	ldi	r25, 0x41	; 65
     896:	0e 94 6f 20 	call	0x40de	; 0x40de <_ZN8Goertzel9DataPointEi>
     89a:	80 e0       	ldi	r24, 0x00	; 0
     89c:	96 e0       	ldi	r25, 0x06	; 6
     89e:	23 e0       	ldi	r18, 0x03	; 3
     8a0:	fc 01       	movw	r30, r24
     8a2:	25 87       	std	Z+13, r18	; 0x0d
     8a4:	00 00       	nop
     8a6:	25 96       	adiw	r28, 0x05	; 5
     8a8:	cd bf       	out	0x3d, r28	; 61
     8aa:	de bf       	out	0x3e, r29	; 62
     8ac:	df 91       	pop	r29
     8ae:	cf 91       	pop	r28
     8b0:	ff 91       	pop	r31
     8b2:	ef 91       	pop	r30
     8b4:	bf 91       	pop	r27
     8b6:	af 91       	pop	r26
     8b8:	9f 91       	pop	r25
     8ba:	8f 91       	pop	r24
     8bc:	7f 91       	pop	r23
     8be:	6f 91       	pop	r22
     8c0:	5f 91       	pop	r21
     8c2:	4f 91       	pop	r20
     8c4:	3f 91       	pop	r19
     8c6:	2f 91       	pop	r18
     8c8:	0f 90       	pop	r0
     8ca:	0b be       	out	0x3b, r0	; 59
     8cc:	0f 90       	pop	r0
     8ce:	0f be       	out	0x3f, r0	; 63
     8d0:	0f 90       	pop	r0
     8d2:	1f 90       	pop	r1
     8d4:	18 95       	reti

000008d6 <__vector_12>:
     8d6:	1f 92       	push	r1
     8d8:	0f 92       	push	r0
     8da:	0f b6       	in	r0, 0x3f	; 63
     8dc:	0f 92       	push	r0
     8de:	11 24       	eor	r1, r1
     8e0:	0b b6       	in	r0, 0x3b	; 59
     8e2:	0f 92       	push	r0
     8e4:	2f 93       	push	r18
     8e6:	3f 93       	push	r19
     8e8:	4f 93       	push	r20
     8ea:	5f 93       	push	r21
     8ec:	6f 93       	push	r22
     8ee:	7f 93       	push	r23
     8f0:	8f 93       	push	r24
     8f2:	9f 93       	push	r25
     8f4:	af 93       	push	r26
     8f6:	bf 93       	push	r27
     8f8:	ef 93       	push	r30
     8fa:	ff 93       	push	r31
     8fc:	cf 93       	push	r28
     8fe:	df 93       	push	r29
     900:	cd b7       	in	r28, 0x3d	; 61
     902:	de b7       	in	r29, 0x3e	; 62
     904:	2e 97       	sbiw	r28, 0x0e	; 14
     906:	cd bf       	out	0x3d, r28	; 61
     908:	de bf       	out	0x3e, r29	; 62
     90a:	80 e0       	ldi	r24, 0x00	; 0
     90c:	9b e0       	ldi	r25, 0x0B	; 11
     90e:	fc 01       	movw	r30, r24
     910:	86 81       	ldd	r24, Z+6	; 0x06
     912:	8b 83       	std	Y+3, r24	; 0x03
     914:	8b 81       	ldd	r24, Y+3	; 0x03
     916:	88 2f       	mov	r24, r24
     918:	90 e0       	ldi	r25, 0x00	; 0
     91a:	81 70       	andi	r24, 0x01	; 1
     91c:	99 27       	eor	r25, r25
     91e:	89 2b       	or	r24, r25
     920:	09 f4       	brne	.+2      	; 0x924 <__vector_12+0x4e>
     922:	80 c3       	rjmp	.+1792   	; 0x1024 <__vector_12+0x74e>
     924:	1c 82       	std	Y+4, r1	; 0x04
     926:	1d 82       	std	Y+5, r1	; 0x05
     928:	80 91 19 40 	lds	r24, 0x4019	; 0x804019 <_ZZ11__vector_12E7fiftyMS>
     92c:	8f 5f       	subi	r24, 0xFF	; 255
     92e:	80 93 19 40 	sts	0x4019, r24	; 0x804019 <_ZZ11__vector_12E7fiftyMS>
     932:	20 91 19 40 	lds	r18, 0x4019	; 0x804019 <_ZZ11__vector_12E7fiftyMS>
     936:	8b ea       	ldi	r24, 0xAB	; 171
     938:	28 9f       	mul	r18, r24
     93a:	81 2d       	mov	r24, r1
     93c:	11 24       	eor	r1, r1
     93e:	98 2f       	mov	r25, r24
     940:	96 95       	lsr	r25
     942:	96 95       	lsr	r25
     944:	89 2f       	mov	r24, r25
     946:	88 0f       	add	r24, r24
     948:	89 0f       	add	r24, r25
     94a:	88 0f       	add	r24, r24
     94c:	92 2f       	mov	r25, r18
     94e:	98 1b       	sub	r25, r24
     950:	99 23       	and	r25, r25
     952:	09 f0       	breq	.+2      	; 0x956 <__vector_12+0x80>
     954:	cb c2       	rjmp	.+1430   	; 0xeec <__vector_12+0x616>
     956:	87 e1       	ldi	r24, 0x17	; 23
     958:	8e 83       	std	Y+6, r24	; 0x06
     95a:	0e 94 d2 15 	call	0x2ba4	; 0x2ba4 <_Z18portAdebouncedValsv>
     95e:	98 2f       	mov	r25, r24
     960:	8e 81       	ldd	r24, Y+6	; 0x06
     962:	89 23       	and	r24, r25
     964:	8c 83       	std	Y+4, r24	; 0x04
     966:	0e 94 86 15 	call	0x2b0c	; 0x2b0c <_Z8debouncev>
     96a:	0e 94 d2 15 	call	0x2ba4	; 0x2ba4 <_Z18portAdebouncedValsv>
     96e:	98 2f       	mov	r25, r24
     970:	8e 81       	ldd	r24, Y+6	; 0x06
     972:	89 23       	and	r24, r25
     974:	8d 83       	std	Y+5, r24	; 0x05
     976:	8c 81       	ldd	r24, Y+4	; 0x04
     978:	82 70       	andi	r24, 0x02	; 2
     97a:	8f 83       	std	Y+7, r24	; 0x07
     97c:	8c 81       	ldd	r24, Y+4	; 0x04
     97e:	81 70       	andi	r24, 0x01	; 1
     980:	88 87       	std	Y+8, r24	; 0x08
     982:	8c 81       	ldd	r24, Y+4	; 0x04
     984:	84 70       	andi	r24, 0x04	; 4
     986:	89 87       	std	Y+9, r24	; 0x09
     988:	8c 81       	ldd	r24, Y+4	; 0x04
     98a:	80 71       	andi	r24, 0x10	; 16
     98c:	8a 87       	std	Y+10, r24	; 0x0a
     98e:	81 e0       	ldi	r24, 0x01	; 1
     990:	9a 85       	ldd	r25, Y+10	; 0x0a
     992:	99 23       	and	r25, r25
     994:	09 f0       	breq	.+2      	; 0x998 <__vector_12+0xc2>
     996:	80 e0       	ldi	r24, 0x00	; 0
     998:	80 93 4a 41 	sts	0x414A, r24	; 0x80414a <_ZL21g_headphones_detected>
     99c:	88 23       	and	r24, r24
     99e:	31 f0       	breq	.+12     	; 0x9ac <__vector_12+0xd6>
     9a0:	8c e3       	ldi	r24, 0x3C	; 60
     9a2:	90 e0       	ldi	r25, 0x00	; 0
     9a4:	80 93 06 40 	sts	0x4006, r24	; 0x804006 <_ZL19g_powerdown_seconds>
     9a8:	90 93 07 40 	sts	0x4007, r25	; 0x804007 <_ZL19g_powerdown_seconds+0x1>
     9ac:	10 92 55 41 	sts	0x4155, r1	; 0x804155 <_ZL19g_bothSense_pressed>
     9b0:	8f 81       	ldd	r24, Y+7	; 0x07
     9b2:	88 23       	and	r24, r24
     9b4:	79 f4       	brne	.+30     	; 0x9d4 <__vector_12+0xfe>
     9b6:	88 85       	ldd	r24, Y+8	; 0x08
     9b8:	88 23       	and	r24, r24
     9ba:	61 f0       	breq	.+24     	; 0x9d4 <__vector_12+0xfe>
     9bc:	60 e0       	ldi	r22, 0x00	; 0
     9be:	86 e0       	ldi	r24, 0x06	; 6
     9c0:	0e 94 25 01 	call	0x24a	; 0x24a <PORTA_set_pin_level>
     9c4:	61 e0       	ldi	r22, 0x01	; 1
     9c6:	85 e0       	ldi	r24, 0x05	; 5
     9c8:	0e 94 25 01 	call	0x24a	; 0x24a <PORTA_set_pin_level>
     9cc:	81 e0       	ldi	r24, 0x01	; 1
     9ce:	80 93 53 41 	sts	0x4153, r24	; 0x804153 <_ZL19g_leftSense_pressed>
     9d2:	29 c0       	rjmp	.+82     	; 0xa26 <__vector_12+0x150>
     9d4:	88 85       	ldd	r24, Y+8	; 0x08
     9d6:	88 23       	and	r24, r24
     9d8:	79 f4       	brne	.+30     	; 0x9f8 <__vector_12+0x122>
     9da:	8f 81       	ldd	r24, Y+7	; 0x07
     9dc:	88 23       	and	r24, r24
     9de:	61 f0       	breq	.+24     	; 0x9f8 <__vector_12+0x122>
     9e0:	60 e0       	ldi	r22, 0x00	; 0
     9e2:	85 e0       	ldi	r24, 0x05	; 5
     9e4:	0e 94 25 01 	call	0x24a	; 0x24a <PORTA_set_pin_level>
     9e8:	61 e0       	ldi	r22, 0x01	; 1
     9ea:	86 e0       	ldi	r24, 0x06	; 6
     9ec:	0e 94 25 01 	call	0x24a	; 0x24a <PORTA_set_pin_level>
     9f0:	81 e0       	ldi	r24, 0x01	; 1
     9f2:	80 93 54 41 	sts	0x4154, r24	; 0x804154 <_ZL20g_rightSense_pressed>
     9f6:	17 c0       	rjmp	.+46     	; 0xa26 <__vector_12+0x150>
     9f8:	60 e0       	ldi	r22, 0x00	; 0
     9fa:	85 e0       	ldi	r24, 0x05	; 5
     9fc:	0e 94 25 01 	call	0x24a	; 0x24a <PORTA_set_pin_level>
     a00:	60 e0       	ldi	r22, 0x00	; 0
     a02:	86 e0       	ldi	r24, 0x06	; 6
     a04:	0e 94 25 01 	call	0x24a	; 0x24a <PORTA_set_pin_level>
     a08:	10 92 53 41 	sts	0x4153, r1	; 0x804153 <_ZL19g_leftSense_pressed>
     a0c:	10 92 54 41 	sts	0x4154, r1	; 0x804154 <_ZL20g_rightSense_pressed>
     a10:	8f 81       	ldd	r24, Y+7	; 0x07
     a12:	88 23       	and	r24, r24
     a14:	29 f4       	brne	.+10     	; 0xa20 <__vector_12+0x14a>
     a16:	88 85       	ldd	r24, Y+8	; 0x08
     a18:	88 23       	and	r24, r24
     a1a:	11 f4       	brne	.+4      	; 0xa20 <__vector_12+0x14a>
     a1c:	81 e0       	ldi	r24, 0x01	; 1
     a1e:	01 c0       	rjmp	.+2      	; 0xa22 <__vector_12+0x14c>
     a20:	80 e0       	ldi	r24, 0x00	; 0
     a22:	80 93 55 41 	sts	0x4155, r24	; 0x804155 <_ZL19g_bothSense_pressed>
     a26:	89 85       	ldd	r24, Y+9	; 0x09
     a28:	88 23       	and	r24, r24
     a2a:	21 f4       	brne	.+8      	; 0xa34 <__vector_12+0x15e>
     a2c:	81 e0       	ldi	r24, 0x01	; 1
     a2e:	80 93 52 41 	sts	0x4152, r24	; 0x804152 <_ZL22g_rotary_shaft_pressed>
     a32:	02 c0       	rjmp	.+4      	; 0xa38 <__vector_12+0x162>
     a34:	10 92 52 41 	sts	0x4152, r1	; 0x804152 <_ZL22g_rotary_shaft_pressed>
     a38:	9c 81       	ldd	r25, Y+4	; 0x04
     a3a:	8d 81       	ldd	r24, Y+5	; 0x05
     a3c:	98 17       	cp	r25, r24
     a3e:	09 f4       	brne	.+2      	; 0xa42 <__vector_12+0x16c>
     a40:	c0 c0       	rjmp	.+384    	; 0xbc2 <__vector_12+0x2ec>
     a42:	9d 81       	ldd	r25, Y+5	; 0x05
     a44:	8c 81       	ldd	r24, Y+4	; 0x04
     a46:	89 27       	eor	r24, r25
     a48:	8b 87       	std	Y+11, r24	; 0x0b
     a4a:	8b 85       	ldd	r24, Y+11	; 0x0b
     a4c:	08 2e       	mov	r0, r24
     a4e:	00 0c       	add	r0, r0
     a50:	99 0b       	sbc	r25, r25
     a52:	82 70       	andi	r24, 0x02	; 2
     a54:	99 27       	eor	r25, r25
     a56:	89 2b       	or	r24, r25
     a58:	b1 f1       	breq	.+108    	; 0xac6 <__vector_12+0x1f0>
     a5a:	8f 81       	ldd	r24, Y+7	; 0x07
     a5c:	88 23       	and	r24, r24
     a5e:	a9 f0       	breq	.+42     	; 0xa8a <__vector_12+0x1b4>
     a60:	8b e8       	ldi	r24, 0x8B	; 139
     a62:	91 e4       	ldi	r25, 0x41	; 65
     a64:	0e 94 4d 25 	call	0x4a9a	; 0x4a9a <_ZN4leds6activeEv>
     a68:	88 23       	and	r24, r24
     a6a:	61 f0       	breq	.+24     	; 0xa84 <__vector_12+0x1ae>
     a6c:	80 91 77 41 	lds	r24, 0x4177	; 0x804177 <g_leftsense_presses_count>
     a70:	90 91 78 41 	lds	r25, 0x4178	; 0x804178 <g_leftsense_presses_count+0x1>
     a74:	01 96       	adiw	r24, 0x01	; 1
     a76:	80 93 77 41 	sts	0x4177, r24	; 0x804177 <g_leftsense_presses_count>
     a7a:	90 93 78 41 	sts	0x4178, r25	; 0x804178 <g_leftsense_presses_count+0x1>
     a7e:	10 92 d8 41 	sts	0x41D8, r1	; 0x8041d8 <_ZZ11__vector_12E17leftsenseReleased>
     a82:	21 c0       	rjmp	.+66     	; 0xac6 <__vector_12+0x1f0>
     a84:	10 92 1a 40 	sts	0x401A, r1	; 0x80401a <_ZZ11__vector_12E25leftsenseLongPressEnabled>
     a88:	1e c0       	rjmp	.+60     	; 0xac6 <__vector_12+0x1f0>
     a8a:	88 ee       	ldi	r24, 0xE8	; 232
     a8c:	93 e0       	ldi	r25, 0x03	; 3
     a8e:	80 93 c9 41 	sts	0x41C9, r24	; 0x8041c9 <_ZL6g_beep>
     a92:	90 93 ca 41 	sts	0x41CA, r25	; 0x8041ca <_ZL6g_beep+0x1>
     a96:	8b e8       	ldi	r24, 0x8B	; 139
     a98:	91 e4       	ldi	r25, 0x41	; 65
     a9a:	0e 94 4d 25 	call	0x4a9a	; 0x4a9a <_ZN4leds6activeEv>
     a9e:	98 2f       	mov	r25, r24
     aa0:	81 e0       	ldi	r24, 0x01	; 1
     aa2:	89 27       	eor	r24, r25
     aa4:	88 23       	and	r24, r24
     aa6:	29 f0       	breq	.+10     	; 0xab2 <__vector_12+0x1dc>
     aa8:	8b e8       	ldi	r24, 0x8B	; 139
     aaa:	91 e4       	ldi	r25, 0x41	; 65
     aac:	0e 94 c7 25 	call	0x4b8e	; 0x4b8e <_ZN4leds4initEv>
     ab0:	07 c0       	rjmp	.+14     	; 0xac0 <__vector_12+0x1ea>
     ab2:	10 92 6b 41 	sts	0x416B, r1	; 0x80416b <g_leftsense_closed_time>
     ab6:	10 92 6c 41 	sts	0x416C, r1	; 0x80416c <g_leftsense_closed_time+0x1>
     aba:	81 e0       	ldi	r24, 0x01	; 1
     abc:	80 93 d8 41 	sts	0x41D8, r24	; 0x8041d8 <_ZZ11__vector_12E17leftsenseReleased>
     ac0:	81 e0       	ldi	r24, 0x01	; 1
     ac2:	80 93 1a 40 	sts	0x401A, r24	; 0x80401a <_ZZ11__vector_12E25leftsenseLongPressEnabled>
     ac6:	8b 85       	ldd	r24, Y+11	; 0x0b
     ac8:	08 2e       	mov	r0, r24
     aca:	00 0c       	add	r0, r0
     acc:	99 0b       	sbc	r25, r25
     ace:	81 70       	andi	r24, 0x01	; 1
     ad0:	99 27       	eor	r25, r25
     ad2:	89 2b       	or	r24, r25
     ad4:	b1 f1       	breq	.+108    	; 0xb42 <__vector_12+0x26c>
     ad6:	88 85       	ldd	r24, Y+8	; 0x08
     ad8:	88 23       	and	r24, r24
     ada:	a9 f0       	breq	.+42     	; 0xb06 <__vector_12+0x230>
     adc:	8b e8       	ldi	r24, 0x8B	; 139
     ade:	91 e4       	ldi	r25, 0x41	; 65
     ae0:	0e 94 4d 25 	call	0x4a9a	; 0x4a9a <_ZN4leds6activeEv>
     ae4:	88 23       	and	r24, r24
     ae6:	61 f0       	breq	.+24     	; 0xb00 <__vector_12+0x22a>
     ae8:	80 91 79 41 	lds	r24, 0x4179	; 0x804179 <g_rightsense_presses_count>
     aec:	90 91 7a 41 	lds	r25, 0x417A	; 0x80417a <g_rightsense_presses_count+0x1>
     af0:	01 96       	adiw	r24, 0x01	; 1
     af2:	80 93 79 41 	sts	0x4179, r24	; 0x804179 <g_rightsense_presses_count>
     af6:	90 93 7a 41 	sts	0x417A, r25	; 0x80417a <g_rightsense_presses_count+0x1>
     afa:	10 92 d9 41 	sts	0x41D9, r1	; 0x8041d9 <_ZZ11__vector_12E18rightsenseReleased>
     afe:	21 c0       	rjmp	.+66     	; 0xb42 <__vector_12+0x26c>
     b00:	10 92 1b 40 	sts	0x401B, r1	; 0x80401b <_ZZ11__vector_12E26rightsenseLongPressEnabled>
     b04:	1e c0       	rjmp	.+60     	; 0xb42 <__vector_12+0x26c>
     b06:	88 ee       	ldi	r24, 0xE8	; 232
     b08:	93 e0       	ldi	r25, 0x03	; 3
     b0a:	80 93 c9 41 	sts	0x41C9, r24	; 0x8041c9 <_ZL6g_beep>
     b0e:	90 93 ca 41 	sts	0x41CA, r25	; 0x8041ca <_ZL6g_beep+0x1>
     b12:	8b e8       	ldi	r24, 0x8B	; 139
     b14:	91 e4       	ldi	r25, 0x41	; 65
     b16:	0e 94 4d 25 	call	0x4a9a	; 0x4a9a <_ZN4leds6activeEv>
     b1a:	98 2f       	mov	r25, r24
     b1c:	81 e0       	ldi	r24, 0x01	; 1
     b1e:	89 27       	eor	r24, r25
     b20:	88 23       	and	r24, r24
     b22:	29 f0       	breq	.+10     	; 0xb2e <__vector_12+0x258>
     b24:	8b e8       	ldi	r24, 0x8B	; 139
     b26:	91 e4       	ldi	r25, 0x41	; 65
     b28:	0e 94 c7 25 	call	0x4b8e	; 0x4b8e <_ZN4leds4initEv>
     b2c:	07 c0       	rjmp	.+14     	; 0xb3c <__vector_12+0x266>
     b2e:	10 92 6d 41 	sts	0x416D, r1	; 0x80416d <g_rightsense_closed_time>
     b32:	10 92 6e 41 	sts	0x416E, r1	; 0x80416e <g_rightsense_closed_time+0x1>
     b36:	81 e0       	ldi	r24, 0x01	; 1
     b38:	80 93 d9 41 	sts	0x41D9, r24	; 0x8041d9 <_ZZ11__vector_12E18rightsenseReleased>
     b3c:	81 e0       	ldi	r24, 0x01	; 1
     b3e:	80 93 1b 40 	sts	0x401B, r24	; 0x80401b <_ZZ11__vector_12E26rightsenseLongPressEnabled>
     b42:	8b 85       	ldd	r24, Y+11	; 0x0b
     b44:	08 2e       	mov	r0, r24
     b46:	00 0c       	add	r0, r0
     b48:	99 0b       	sbc	r25, r25
     b4a:	84 70       	andi	r24, 0x04	; 4
     b4c:	99 27       	eor	r25, r25
     b4e:	89 2b       	or	r24, r25
     b50:	09 f4       	brne	.+2      	; 0xb54 <__vector_12+0x27e>
     b52:	c4 c0       	rjmp	.+392    	; 0xcdc <__vector_12+0x406>
     b54:	89 85       	ldd	r24, Y+9	; 0x09
     b56:	88 23       	and	r24, r24
     b58:	a9 f0       	breq	.+42     	; 0xb84 <__vector_12+0x2ae>
     b5a:	8b e8       	ldi	r24, 0x8B	; 139
     b5c:	91 e4       	ldi	r25, 0x41	; 65
     b5e:	0e 94 4d 25 	call	0x4a9a	; 0x4a9a <_ZN4leds6activeEv>
     b62:	88 23       	and	r24, r24
     b64:	61 f0       	breq	.+24     	; 0xb7e <__vector_12+0x2a8>
     b66:	80 91 7b 41 	lds	r24, 0x417B	; 0x80417b <g_encoder_presses_count>
     b6a:	90 91 7c 41 	lds	r25, 0x417C	; 0x80417c <g_encoder_presses_count+0x1>
     b6e:	01 96       	adiw	r24, 0x01	; 1
     b70:	80 93 7b 41 	sts	0x417B, r24	; 0x80417b <g_encoder_presses_count>
     b74:	90 93 7c 41 	sts	0x417C, r25	; 0x80417c <g_encoder_presses_count+0x1>
     b78:	10 92 da 41 	sts	0x41DA, r1	; 0x8041da <_ZZ11__vector_12E15encoderReleased>
     b7c:	af c0       	rjmp	.+350    	; 0xcdc <__vector_12+0x406>
     b7e:	10 92 1c 40 	sts	0x401C, r1	; 0x80401c <_ZZ11__vector_12E23encoderLongPressEnabled>
     b82:	ac c0       	rjmp	.+344    	; 0xcdc <__vector_12+0x406>
     b84:	88 ee       	ldi	r24, 0xE8	; 232
     b86:	93 e0       	ldi	r25, 0x03	; 3
     b88:	80 93 c9 41 	sts	0x41C9, r24	; 0x8041c9 <_ZL6g_beep>
     b8c:	90 93 ca 41 	sts	0x41CA, r25	; 0x8041ca <_ZL6g_beep+0x1>
     b90:	8b e8       	ldi	r24, 0x8B	; 139
     b92:	91 e4       	ldi	r25, 0x41	; 65
     b94:	0e 94 4d 25 	call	0x4a9a	; 0x4a9a <_ZN4leds6activeEv>
     b98:	98 2f       	mov	r25, r24
     b9a:	81 e0       	ldi	r24, 0x01	; 1
     b9c:	89 27       	eor	r24, r25
     b9e:	88 23       	and	r24, r24
     ba0:	29 f0       	breq	.+10     	; 0xbac <__vector_12+0x2d6>
     ba2:	8b e8       	ldi	r24, 0x8B	; 139
     ba4:	91 e4       	ldi	r25, 0x41	; 65
     ba6:	0e 94 c7 25 	call	0x4b8e	; 0x4b8e <_ZN4leds4initEv>
     baa:	07 c0       	rjmp	.+14     	; 0xbba <__vector_12+0x2e4>
     bac:	10 92 6f 41 	sts	0x416F, r1	; 0x80416f <g_encoder_closed_time>
     bb0:	10 92 70 41 	sts	0x4170, r1	; 0x804170 <g_encoder_closed_time+0x1>
     bb4:	81 e0       	ldi	r24, 0x01	; 1
     bb6:	80 93 da 41 	sts	0x41DA, r24	; 0x8041da <_ZZ11__vector_12E15encoderReleased>
     bba:	81 e0       	ldi	r24, 0x01	; 1
     bbc:	80 93 1c 40 	sts	0x401C, r24	; 0x80401c <_ZZ11__vector_12E23encoderLongPressEnabled>
     bc0:	8d c0       	rjmp	.+282    	; 0xcdc <__vector_12+0x406>
     bc2:	8f 81       	ldd	r24, Y+7	; 0x07
     bc4:	88 23       	and	r24, r24
     bc6:	61 f5       	brne	.+88     	; 0xc20 <__vector_12+0x34a>
     bc8:	90 91 7d 41 	lds	r25, 0x417D	; 0x80417d <g_long_leftsense_press>
     bcc:	81 e0       	ldi	r24, 0x01	; 1
     bce:	89 27       	eor	r24, r25
     bd0:	88 23       	and	r24, r24
     bd2:	31 f0       	breq	.+12     	; 0xbe0 <__vector_12+0x30a>
     bd4:	80 91 1a 40 	lds	r24, 0x401A	; 0x80401a <_ZZ11__vector_12E25leftsenseLongPressEnabled>
     bd8:	88 23       	and	r24, r24
     bda:	11 f0       	breq	.+4      	; 0xbe0 <__vector_12+0x30a>
     bdc:	81 e0       	ldi	r24, 0x01	; 1
     bde:	01 c0       	rjmp	.+2      	; 0xbe2 <__vector_12+0x30c>
     be0:	80 e0       	ldi	r24, 0x00	; 0
     be2:	88 23       	and	r24, r24
     be4:	e9 f0       	breq	.+58     	; 0xc20 <__vector_12+0x34a>
     be6:	80 91 6b 41 	lds	r24, 0x416B	; 0x80416b <g_leftsense_closed_time>
     bea:	90 91 6c 41 	lds	r25, 0x416C	; 0x80416c <g_leftsense_closed_time+0x1>
     bee:	01 96       	adiw	r24, 0x01	; 1
     bf0:	80 93 6b 41 	sts	0x416B, r24	; 0x80416b <g_leftsense_closed_time>
     bf4:	90 93 6c 41 	sts	0x416C, r25	; 0x80416c <g_leftsense_closed_time+0x1>
     bf8:	21 e0       	ldi	r18, 0x01	; 1
     bfa:	88 3c       	cpi	r24, 0xC8	; 200
     bfc:	91 05       	cpc	r25, r1
     bfe:	08 f4       	brcc	.+2      	; 0xc02 <__vector_12+0x32c>
     c00:	20 e0       	ldi	r18, 0x00	; 0
     c02:	22 23       	and	r18, r18
     c04:	69 f0       	breq	.+26     	; 0xc20 <__vector_12+0x34a>
     c06:	81 e0       	ldi	r24, 0x01	; 1
     c08:	80 93 7d 41 	sts	0x417D, r24	; 0x80417d <g_long_leftsense_press>
     c0c:	10 92 6b 41 	sts	0x416B, r1	; 0x80416b <g_leftsense_closed_time>
     c10:	10 92 6c 41 	sts	0x416C, r1	; 0x80416c <g_leftsense_closed_time+0x1>
     c14:	10 92 77 41 	sts	0x4177, r1	; 0x804177 <g_leftsense_presses_count>
     c18:	10 92 78 41 	sts	0x4178, r1	; 0x804178 <g_leftsense_presses_count+0x1>
     c1c:	10 92 1a 40 	sts	0x401A, r1	; 0x80401a <_ZZ11__vector_12E25leftsenseLongPressEnabled>
     c20:	88 85       	ldd	r24, Y+8	; 0x08
     c22:	88 23       	and	r24, r24
     c24:	61 f5       	brne	.+88     	; 0xc7e <__vector_12+0x3a8>
     c26:	90 91 7e 41 	lds	r25, 0x417E	; 0x80417e <g_long_rightsense_press>
     c2a:	81 e0       	ldi	r24, 0x01	; 1
     c2c:	89 27       	eor	r24, r25
     c2e:	88 23       	and	r24, r24
     c30:	31 f0       	breq	.+12     	; 0xc3e <__vector_12+0x368>
     c32:	80 91 1b 40 	lds	r24, 0x401B	; 0x80401b <_ZZ11__vector_12E26rightsenseLongPressEnabled>
     c36:	88 23       	and	r24, r24
     c38:	11 f0       	breq	.+4      	; 0xc3e <__vector_12+0x368>
     c3a:	81 e0       	ldi	r24, 0x01	; 1
     c3c:	01 c0       	rjmp	.+2      	; 0xc40 <__vector_12+0x36a>
     c3e:	80 e0       	ldi	r24, 0x00	; 0
     c40:	88 23       	and	r24, r24
     c42:	e9 f0       	breq	.+58     	; 0xc7e <__vector_12+0x3a8>
     c44:	80 91 6d 41 	lds	r24, 0x416D	; 0x80416d <g_rightsense_closed_time>
     c48:	90 91 6e 41 	lds	r25, 0x416E	; 0x80416e <g_rightsense_closed_time+0x1>
     c4c:	01 96       	adiw	r24, 0x01	; 1
     c4e:	80 93 6d 41 	sts	0x416D, r24	; 0x80416d <g_rightsense_closed_time>
     c52:	90 93 6e 41 	sts	0x416E, r25	; 0x80416e <g_rightsense_closed_time+0x1>
     c56:	21 e0       	ldi	r18, 0x01	; 1
     c58:	88 3c       	cpi	r24, 0xC8	; 200
     c5a:	91 05       	cpc	r25, r1
     c5c:	08 f4       	brcc	.+2      	; 0xc60 <__vector_12+0x38a>
     c5e:	20 e0       	ldi	r18, 0x00	; 0
     c60:	22 23       	and	r18, r18
     c62:	69 f0       	breq	.+26     	; 0xc7e <__vector_12+0x3a8>
     c64:	81 e0       	ldi	r24, 0x01	; 1
     c66:	80 93 7e 41 	sts	0x417E, r24	; 0x80417e <g_long_rightsense_press>
     c6a:	10 92 6d 41 	sts	0x416D, r1	; 0x80416d <g_rightsense_closed_time>
     c6e:	10 92 6e 41 	sts	0x416E, r1	; 0x80416e <g_rightsense_closed_time+0x1>
     c72:	10 92 79 41 	sts	0x4179, r1	; 0x804179 <g_rightsense_presses_count>
     c76:	10 92 7a 41 	sts	0x417A, r1	; 0x80417a <g_rightsense_presses_count+0x1>
     c7a:	10 92 1b 40 	sts	0x401B, r1	; 0x80401b <_ZZ11__vector_12E26rightsenseLongPressEnabled>
     c7e:	89 85       	ldd	r24, Y+9	; 0x09
     c80:	88 23       	and	r24, r24
     c82:	61 f5       	brne	.+88     	; 0xcdc <__vector_12+0x406>
     c84:	90 91 7f 41 	lds	r25, 0x417F	; 0x80417f <g_long_encoder_press>
     c88:	81 e0       	ldi	r24, 0x01	; 1
     c8a:	89 27       	eor	r24, r25
     c8c:	88 23       	and	r24, r24
     c8e:	31 f0       	breq	.+12     	; 0xc9c <__vector_12+0x3c6>
     c90:	80 91 1c 40 	lds	r24, 0x401C	; 0x80401c <_ZZ11__vector_12E23encoderLongPressEnabled>
     c94:	88 23       	and	r24, r24
     c96:	11 f0       	breq	.+4      	; 0xc9c <__vector_12+0x3c6>
     c98:	81 e0       	ldi	r24, 0x01	; 1
     c9a:	01 c0       	rjmp	.+2      	; 0xc9e <__vector_12+0x3c8>
     c9c:	80 e0       	ldi	r24, 0x00	; 0
     c9e:	88 23       	and	r24, r24
     ca0:	e9 f0       	breq	.+58     	; 0xcdc <__vector_12+0x406>
     ca2:	80 91 6f 41 	lds	r24, 0x416F	; 0x80416f <g_encoder_closed_time>
     ca6:	90 91 70 41 	lds	r25, 0x4170	; 0x804170 <g_encoder_closed_time+0x1>
     caa:	01 96       	adiw	r24, 0x01	; 1
     cac:	80 93 6f 41 	sts	0x416F, r24	; 0x80416f <g_encoder_closed_time>
     cb0:	90 93 70 41 	sts	0x4170, r25	; 0x804170 <g_encoder_closed_time+0x1>
     cb4:	21 e0       	ldi	r18, 0x01	; 1
     cb6:	88 3c       	cpi	r24, 0xC8	; 200
     cb8:	91 05       	cpc	r25, r1
     cba:	08 f4       	brcc	.+2      	; 0xcbe <__vector_12+0x3e8>
     cbc:	20 e0       	ldi	r18, 0x00	; 0
     cbe:	22 23       	and	r18, r18
     cc0:	69 f0       	breq	.+26     	; 0xcdc <__vector_12+0x406>
     cc2:	81 e0       	ldi	r24, 0x01	; 1
     cc4:	80 93 7f 41 	sts	0x417F, r24	; 0x80417f <g_long_encoder_press>
     cc8:	10 92 6f 41 	sts	0x416F, r1	; 0x80416f <g_encoder_closed_time>
     ccc:	10 92 70 41 	sts	0x4170, r1	; 0x804170 <g_encoder_closed_time+0x1>
     cd0:	10 92 7b 41 	sts	0x417B, r1	; 0x80417b <g_encoder_presses_count>
     cd4:	10 92 7c 41 	sts	0x417C, r1	; 0x80417c <g_encoder_presses_count+0x1>
     cd8:	10 92 1c 40 	sts	0x401C, r1	; 0x80401c <_ZZ11__vector_12E23encoderLongPressEnabled>
     cdc:	80 91 d2 41 	lds	r24, 0x41D2	; 0x8041d2 <_ZZ11__vector_12E31leftsense_closures_count_period>
     ce0:	90 91 d3 41 	lds	r25, 0x41D3	; 0x8041d3 <_ZZ11__vector_12E31leftsense_closures_count_period+0x1>
     ce4:	89 2b       	or	r24, r25
     ce6:	71 f1       	breq	.+92     	; 0xd44 <__vector_12+0x46e>
     ce8:	80 91 d2 41 	lds	r24, 0x41D2	; 0x8041d2 <_ZZ11__vector_12E31leftsense_closures_count_period>
     cec:	90 91 d3 41 	lds	r25, 0x41D3	; 0x8041d3 <_ZZ11__vector_12E31leftsense_closures_count_period+0x1>
     cf0:	01 97       	sbiw	r24, 0x01	; 1
     cf2:	80 93 d2 41 	sts	0x41D2, r24	; 0x8041d2 <_ZZ11__vector_12E31leftsense_closures_count_period>
     cf6:	90 93 d3 41 	sts	0x41D3, r25	; 0x8041d3 <_ZZ11__vector_12E31leftsense_closures_count_period+0x1>
     cfa:	80 91 d2 41 	lds	r24, 0x41D2	; 0x8041d2 <_ZZ11__vector_12E31leftsense_closures_count_period>
     cfe:	90 91 d3 41 	lds	r25, 0x41D3	; 0x8041d3 <_ZZ11__vector_12E31leftsense_closures_count_period+0x1>
     d02:	89 2b       	or	r24, r25
     d04:	09 f0       	breq	.+2      	; 0xd08 <__vector_12+0x432>
     d06:	42 c0       	rjmp	.+132    	; 0xd8c <__vector_12+0x4b6>
     d08:	80 91 77 41 	lds	r24, 0x4177	; 0x804177 <g_leftsense_presses_count>
     d0c:	90 91 78 41 	lds	r25, 0x4178	; 0x804178 <g_leftsense_presses_count+0x1>
     d10:	89 2b       	or	r24, r25
     d12:	41 f0       	breq	.+16     	; 0xd24 <__vector_12+0x44e>
     d14:	80 91 77 41 	lds	r24, 0x4177	; 0x804177 <g_leftsense_presses_count>
     d18:	90 91 78 41 	lds	r25, 0x4178	; 0x804178 <g_leftsense_presses_count+0x1>
     d1c:	03 97       	sbiw	r24, 0x03	; 3
     d1e:	10 f4       	brcc	.+4      	; 0xd24 <__vector_12+0x44e>
     d20:	81 e0       	ldi	r24, 0x01	; 1
     d22:	01 c0       	rjmp	.+2      	; 0xd26 <__vector_12+0x450>
     d24:	80 e0       	ldi	r24, 0x00	; 0
     d26:	88 23       	and	r24, r24
     d28:	41 f0       	breq	.+16     	; 0xd3a <__vector_12+0x464>
     d2a:	80 91 77 41 	lds	r24, 0x4177	; 0x804177 <g_leftsense_presses_count>
     d2e:	90 91 78 41 	lds	r25, 0x4178	; 0x804178 <g_leftsense_presses_count+0x1>
     d32:	80 93 71 41 	sts	0x4171, r24	; 0x804171 <g_handle_counted_leftsense_presses>
     d36:	90 93 72 41 	sts	0x4172, r25	; 0x804172 <g_handle_counted_leftsense_presses+0x1>
     d3a:	10 92 77 41 	sts	0x4177, r1	; 0x804177 <g_leftsense_presses_count>
     d3e:	10 92 78 41 	sts	0x4178, r1	; 0x804178 <g_leftsense_presses_count+0x1>
     d42:	24 c0       	rjmp	.+72     	; 0xd8c <__vector_12+0x4b6>
     d44:	80 91 77 41 	lds	r24, 0x4177	; 0x804177 <g_leftsense_presses_count>
     d48:	90 91 78 41 	lds	r25, 0x4178	; 0x804178 <g_leftsense_presses_count+0x1>
     d4c:	01 97       	sbiw	r24, 0x01	; 1
     d4e:	31 f4       	brne	.+12     	; 0xd5c <__vector_12+0x486>
     d50:	80 91 d8 41 	lds	r24, 0x41D8	; 0x8041d8 <_ZZ11__vector_12E17leftsenseReleased>
     d54:	88 23       	and	r24, r24
     d56:	11 f0       	breq	.+4      	; 0xd5c <__vector_12+0x486>
     d58:	81 e0       	ldi	r24, 0x01	; 1
     d5a:	01 c0       	rjmp	.+2      	; 0xd5e <__vector_12+0x488>
     d5c:	80 e0       	ldi	r24, 0x00	; 0
     d5e:	88 23       	and	r24, r24
     d60:	39 f0       	breq	.+14     	; 0xd70 <__vector_12+0x49a>
     d62:	82 e3       	ldi	r24, 0x32	; 50
     d64:	90 e0       	ldi	r25, 0x00	; 0
     d66:	80 93 d2 41 	sts	0x41D2, r24	; 0x8041d2 <_ZZ11__vector_12E31leftsense_closures_count_period>
     d6a:	90 93 d3 41 	sts	0x41D3, r25	; 0x8041d3 <_ZZ11__vector_12E31leftsense_closures_count_period+0x1>
     d6e:	0e c0       	rjmp	.+28     	; 0xd8c <__vector_12+0x4b6>
     d70:	80 91 77 41 	lds	r24, 0x4177	; 0x804177 <g_leftsense_presses_count>
     d74:	90 91 78 41 	lds	r25, 0x4178	; 0x804178 <g_leftsense_presses_count+0x1>
     d78:	21 e0       	ldi	r18, 0x01	; 1
     d7a:	03 97       	sbiw	r24, 0x03	; 3
     d7c:	08 f4       	brcc	.+2      	; 0xd80 <__vector_12+0x4aa>
     d7e:	20 e0       	ldi	r18, 0x00	; 0
     d80:	22 23       	and	r18, r18
     d82:	21 f0       	breq	.+8      	; 0xd8c <__vector_12+0x4b6>
     d84:	10 92 77 41 	sts	0x4177, r1	; 0x804177 <g_leftsense_presses_count>
     d88:	10 92 78 41 	sts	0x4178, r1	; 0x804178 <g_leftsense_presses_count+0x1>
     d8c:	80 91 d4 41 	lds	r24, 0x41D4	; 0x8041d4 <_ZZ11__vector_12E32rightsense_closures_count_period>
     d90:	90 91 d5 41 	lds	r25, 0x41D5	; 0x8041d5 <_ZZ11__vector_12E32rightsense_closures_count_period+0x1>
     d94:	89 2b       	or	r24, r25
     d96:	71 f1       	breq	.+92     	; 0xdf4 <__vector_12+0x51e>
     d98:	80 91 d4 41 	lds	r24, 0x41D4	; 0x8041d4 <_ZZ11__vector_12E32rightsense_closures_count_period>
     d9c:	90 91 d5 41 	lds	r25, 0x41D5	; 0x8041d5 <_ZZ11__vector_12E32rightsense_closures_count_period+0x1>
     da0:	01 97       	sbiw	r24, 0x01	; 1
     da2:	80 93 d4 41 	sts	0x41D4, r24	; 0x8041d4 <_ZZ11__vector_12E32rightsense_closures_count_period>
     da6:	90 93 d5 41 	sts	0x41D5, r25	; 0x8041d5 <_ZZ11__vector_12E32rightsense_closures_count_period+0x1>
     daa:	80 91 d4 41 	lds	r24, 0x41D4	; 0x8041d4 <_ZZ11__vector_12E32rightsense_closures_count_period>
     dae:	90 91 d5 41 	lds	r25, 0x41D5	; 0x8041d5 <_ZZ11__vector_12E32rightsense_closures_count_period+0x1>
     db2:	89 2b       	or	r24, r25
     db4:	09 f0       	breq	.+2      	; 0xdb8 <__vector_12+0x4e2>
     db6:	42 c0       	rjmp	.+132    	; 0xe3c <__vector_12+0x566>
     db8:	80 91 79 41 	lds	r24, 0x4179	; 0x804179 <g_rightsense_presses_count>
     dbc:	90 91 7a 41 	lds	r25, 0x417A	; 0x80417a <g_rightsense_presses_count+0x1>
     dc0:	89 2b       	or	r24, r25
     dc2:	41 f0       	breq	.+16     	; 0xdd4 <__vector_12+0x4fe>
     dc4:	80 91 79 41 	lds	r24, 0x4179	; 0x804179 <g_rightsense_presses_count>
     dc8:	90 91 7a 41 	lds	r25, 0x417A	; 0x80417a <g_rightsense_presses_count+0x1>
     dcc:	03 97       	sbiw	r24, 0x03	; 3
     dce:	10 f4       	brcc	.+4      	; 0xdd4 <__vector_12+0x4fe>
     dd0:	81 e0       	ldi	r24, 0x01	; 1
     dd2:	01 c0       	rjmp	.+2      	; 0xdd6 <__vector_12+0x500>
     dd4:	80 e0       	ldi	r24, 0x00	; 0
     dd6:	88 23       	and	r24, r24
     dd8:	41 f0       	breq	.+16     	; 0xdea <__vector_12+0x514>
     dda:	80 91 79 41 	lds	r24, 0x4179	; 0x804179 <g_rightsense_presses_count>
     dde:	90 91 7a 41 	lds	r25, 0x417A	; 0x80417a <g_rightsense_presses_count+0x1>
     de2:	80 93 73 41 	sts	0x4173, r24	; 0x804173 <g_handle_counted_rightsense_presses>
     de6:	90 93 74 41 	sts	0x4174, r25	; 0x804174 <g_handle_counted_rightsense_presses+0x1>
     dea:	10 92 79 41 	sts	0x4179, r1	; 0x804179 <g_rightsense_presses_count>
     dee:	10 92 7a 41 	sts	0x417A, r1	; 0x80417a <g_rightsense_presses_count+0x1>
     df2:	24 c0       	rjmp	.+72     	; 0xe3c <__vector_12+0x566>
     df4:	80 91 79 41 	lds	r24, 0x4179	; 0x804179 <g_rightsense_presses_count>
     df8:	90 91 7a 41 	lds	r25, 0x417A	; 0x80417a <g_rightsense_presses_count+0x1>
     dfc:	01 97       	sbiw	r24, 0x01	; 1
     dfe:	31 f4       	brne	.+12     	; 0xe0c <__vector_12+0x536>
     e00:	80 91 d9 41 	lds	r24, 0x41D9	; 0x8041d9 <_ZZ11__vector_12E18rightsenseReleased>
     e04:	88 23       	and	r24, r24
     e06:	11 f0       	breq	.+4      	; 0xe0c <__vector_12+0x536>
     e08:	81 e0       	ldi	r24, 0x01	; 1
     e0a:	01 c0       	rjmp	.+2      	; 0xe0e <__vector_12+0x538>
     e0c:	80 e0       	ldi	r24, 0x00	; 0
     e0e:	88 23       	and	r24, r24
     e10:	39 f0       	breq	.+14     	; 0xe20 <__vector_12+0x54a>
     e12:	82 e3       	ldi	r24, 0x32	; 50
     e14:	90 e0       	ldi	r25, 0x00	; 0
     e16:	80 93 d4 41 	sts	0x41D4, r24	; 0x8041d4 <_ZZ11__vector_12E32rightsense_closures_count_period>
     e1a:	90 93 d5 41 	sts	0x41D5, r25	; 0x8041d5 <_ZZ11__vector_12E32rightsense_closures_count_period+0x1>
     e1e:	0e c0       	rjmp	.+28     	; 0xe3c <__vector_12+0x566>
     e20:	80 91 79 41 	lds	r24, 0x4179	; 0x804179 <g_rightsense_presses_count>
     e24:	90 91 7a 41 	lds	r25, 0x417A	; 0x80417a <g_rightsense_presses_count+0x1>
     e28:	21 e0       	ldi	r18, 0x01	; 1
     e2a:	03 97       	sbiw	r24, 0x03	; 3
     e2c:	08 f4       	brcc	.+2      	; 0xe30 <__vector_12+0x55a>
     e2e:	20 e0       	ldi	r18, 0x00	; 0
     e30:	22 23       	and	r18, r18
     e32:	21 f0       	breq	.+8      	; 0xe3c <__vector_12+0x566>
     e34:	10 92 79 41 	sts	0x4179, r1	; 0x804179 <g_rightsense_presses_count>
     e38:	10 92 7a 41 	sts	0x417A, r1	; 0x80417a <g_rightsense_presses_count+0x1>
     e3c:	80 91 d6 41 	lds	r24, 0x41D6	; 0x8041d6 <_ZZ11__vector_12E29encoder_closures_count_period>
     e40:	90 91 d7 41 	lds	r25, 0x41D7	; 0x8041d7 <_ZZ11__vector_12E29encoder_closures_count_period+0x1>
     e44:	89 2b       	or	r24, r25
     e46:	71 f1       	breq	.+92     	; 0xea4 <__vector_12+0x5ce>
     e48:	80 91 d6 41 	lds	r24, 0x41D6	; 0x8041d6 <_ZZ11__vector_12E29encoder_closures_count_period>
     e4c:	90 91 d7 41 	lds	r25, 0x41D7	; 0x8041d7 <_ZZ11__vector_12E29encoder_closures_count_period+0x1>
     e50:	01 97       	sbiw	r24, 0x01	; 1
     e52:	80 93 d6 41 	sts	0x41D6, r24	; 0x8041d6 <_ZZ11__vector_12E29encoder_closures_count_period>
     e56:	90 93 d7 41 	sts	0x41D7, r25	; 0x8041d7 <_ZZ11__vector_12E29encoder_closures_count_period+0x1>
     e5a:	80 91 d6 41 	lds	r24, 0x41D6	; 0x8041d6 <_ZZ11__vector_12E29encoder_closures_count_period>
     e5e:	90 91 d7 41 	lds	r25, 0x41D7	; 0x8041d7 <_ZZ11__vector_12E29encoder_closures_count_period+0x1>
     e62:	89 2b       	or	r24, r25
     e64:	09 f0       	breq	.+2      	; 0xe68 <__vector_12+0x592>
     e66:	42 c0       	rjmp	.+132    	; 0xeec <__vector_12+0x616>
     e68:	80 91 7b 41 	lds	r24, 0x417B	; 0x80417b <g_encoder_presses_count>
     e6c:	90 91 7c 41 	lds	r25, 0x417C	; 0x80417c <g_encoder_presses_count+0x1>
     e70:	89 2b       	or	r24, r25
     e72:	41 f0       	breq	.+16     	; 0xe84 <__vector_12+0x5ae>
     e74:	80 91 7b 41 	lds	r24, 0x417B	; 0x80417b <g_encoder_presses_count>
     e78:	90 91 7c 41 	lds	r25, 0x417C	; 0x80417c <g_encoder_presses_count+0x1>
     e7c:	03 97       	sbiw	r24, 0x03	; 3
     e7e:	10 f4       	brcc	.+4      	; 0xe84 <__vector_12+0x5ae>
     e80:	81 e0       	ldi	r24, 0x01	; 1
     e82:	01 c0       	rjmp	.+2      	; 0xe86 <__vector_12+0x5b0>
     e84:	80 e0       	ldi	r24, 0x00	; 0
     e86:	88 23       	and	r24, r24
     e88:	41 f0       	breq	.+16     	; 0xe9a <__vector_12+0x5c4>
     e8a:	80 91 7b 41 	lds	r24, 0x417B	; 0x80417b <g_encoder_presses_count>
     e8e:	90 91 7c 41 	lds	r25, 0x417C	; 0x80417c <g_encoder_presses_count+0x1>
     e92:	80 93 75 41 	sts	0x4175, r24	; 0x804175 <g_handle_counted_encoder_presses>
     e96:	90 93 76 41 	sts	0x4176, r25	; 0x804176 <g_handle_counted_encoder_presses+0x1>
     e9a:	10 92 7b 41 	sts	0x417B, r1	; 0x80417b <g_encoder_presses_count>
     e9e:	10 92 7c 41 	sts	0x417C, r1	; 0x80417c <g_encoder_presses_count+0x1>
     ea2:	24 c0       	rjmp	.+72     	; 0xeec <__vector_12+0x616>
     ea4:	80 91 7b 41 	lds	r24, 0x417B	; 0x80417b <g_encoder_presses_count>
     ea8:	90 91 7c 41 	lds	r25, 0x417C	; 0x80417c <g_encoder_presses_count+0x1>
     eac:	01 97       	sbiw	r24, 0x01	; 1
     eae:	31 f4       	brne	.+12     	; 0xebc <__vector_12+0x5e6>
     eb0:	80 91 da 41 	lds	r24, 0x41DA	; 0x8041da <_ZZ11__vector_12E15encoderReleased>
     eb4:	88 23       	and	r24, r24
     eb6:	11 f0       	breq	.+4      	; 0xebc <__vector_12+0x5e6>
     eb8:	81 e0       	ldi	r24, 0x01	; 1
     eba:	01 c0       	rjmp	.+2      	; 0xebe <__vector_12+0x5e8>
     ebc:	80 e0       	ldi	r24, 0x00	; 0
     ebe:	88 23       	and	r24, r24
     ec0:	39 f0       	breq	.+14     	; 0xed0 <__vector_12+0x5fa>
     ec2:	82 e3       	ldi	r24, 0x32	; 50
     ec4:	90 e0       	ldi	r25, 0x00	; 0
     ec6:	80 93 d6 41 	sts	0x41D6, r24	; 0x8041d6 <_ZZ11__vector_12E29encoder_closures_count_period>
     eca:	90 93 d7 41 	sts	0x41D7, r25	; 0x8041d7 <_ZZ11__vector_12E29encoder_closures_count_period+0x1>
     ece:	0e c0       	rjmp	.+28     	; 0xeec <__vector_12+0x616>
     ed0:	80 91 7b 41 	lds	r24, 0x417B	; 0x80417b <g_encoder_presses_count>
     ed4:	90 91 7c 41 	lds	r25, 0x417C	; 0x80417c <g_encoder_presses_count+0x1>
     ed8:	21 e0       	ldi	r18, 0x01	; 1
     eda:	03 97       	sbiw	r24, 0x03	; 3
     edc:	08 f4       	brcc	.+2      	; 0xee0 <__vector_12+0x60a>
     ede:	20 e0       	ldi	r18, 0x00	; 0
     ee0:	22 23       	and	r18, r18
     ee2:	21 f0       	breq	.+8      	; 0xeec <__vector_12+0x616>
     ee4:	10 92 7b 41 	sts	0x417B, r1	; 0x80417b <g_encoder_presses_count>
     ee8:	10 92 7c 41 	sts	0x417C, r1	; 0x80417c <g_encoder_presses_count+0x1>
     eec:	80 91 50 41 	lds	r24, 0x4150	; 0x804150 <_ZL14g_rotary_edges>
     ef0:	90 91 51 41 	lds	r25, 0x4151	; 0x804151 <_ZL14g_rotary_edges+0x1>
     ef4:	21 e0       	ldi	r18, 0x01	; 1
     ef6:	89 2b       	or	r24, r25
     ef8:	09 f4       	brne	.+2      	; 0xefc <__vector_12+0x626>
     efa:	20 e0       	ldi	r18, 0x00	; 0
     efc:	22 23       	and	r18, r18
     efe:	09 f4       	brne	.+2      	; 0xf02 <__vector_12+0x62c>
     f00:	91 c0       	rjmp	.+290    	; 0x1024 <__vector_12+0x74e>
     f02:	80 91 50 41 	lds	r24, 0x4150	; 0x804150 <_ZL14g_rotary_edges>
     f06:	90 91 51 41 	lds	r25, 0x4151	; 0x804151 <_ZL14g_rotary_edges+0x1>
     f0a:	89 2f       	mov	r24, r25
     f0c:	88 1f       	adc	r24, r24
     f0e:	88 27       	eor	r24, r24
     f10:	88 1f       	adc	r24, r24
     f12:	8c 87       	std	Y+12, r24	; 0x0c
     f14:	80 91 50 41 	lds	r24, 0x4150	; 0x804150 <_ZL14g_rotary_edges>
     f18:	90 91 51 41 	lds	r25, 0x4151	; 0x804151 <_ZL14g_rotary_edges+0x1>
     f1c:	99 23       	and	r25, r25
     f1e:	1c f4       	brge	.+6      	; 0xf26 <__vector_12+0x650>
     f20:	91 95       	neg	r25
     f22:	81 95       	neg	r24
     f24:	91 09       	sbc	r25, r1
     f26:	89 83       	std	Y+1, r24	; 0x01
     f28:	9a 83       	std	Y+2, r25	; 0x02
     f2a:	20 91 db 41 	lds	r18, 0x41DB	; 0x8041db <_ZZ11__vector_12E15holdRotaryEdges>
     f2e:	30 91 dc 41 	lds	r19, 0x41DC	; 0x8041dc <_ZZ11__vector_12E15holdRotaryEdges+0x1>
     f32:	80 91 50 41 	lds	r24, 0x4150	; 0x804150 <_ZL14g_rotary_edges>
     f36:	90 91 51 41 	lds	r25, 0x4151	; 0x804151 <_ZL14g_rotary_edges+0x1>
     f3a:	41 e0       	ldi	r20, 0x01	; 1
     f3c:	28 17       	cp	r18, r24
     f3e:	39 07       	cpc	r19, r25
     f40:	09 f0       	breq	.+2      	; 0xf44 <__vector_12+0x66e>
     f42:	40 e0       	ldi	r20, 0x00	; 0
     f44:	44 23       	and	r20, r20
     f46:	e9 f0       	breq	.+58     	; 0xf82 <__vector_12+0x6ac>
     f48:	80 91 dd 41 	lds	r24, 0x41DD	; 0x8041dd <_ZZ11__vector_12E23rotaryNoMotionCountdown>
     f4c:	90 91 de 41 	lds	r25, 0x41DE	; 0x8041de <_ZZ11__vector_12E23rotaryNoMotionCountdown+0x1>
     f50:	89 2b       	or	r24, r25
     f52:	49 f0       	breq	.+18     	; 0xf66 <__vector_12+0x690>
     f54:	80 91 dd 41 	lds	r24, 0x41DD	; 0x8041dd <_ZZ11__vector_12E23rotaryNoMotionCountdown>
     f58:	90 91 de 41 	lds	r25, 0x41DE	; 0x8041de <_ZZ11__vector_12E23rotaryNoMotionCountdown+0x1>
     f5c:	01 97       	sbiw	r24, 0x01	; 1
     f5e:	80 93 dd 41 	sts	0x41DD, r24	; 0x8041dd <_ZZ11__vector_12E23rotaryNoMotionCountdown>
     f62:	90 93 de 41 	sts	0x41DE, r25	; 0x8041de <_ZZ11__vector_12E23rotaryNoMotionCountdown+0x1>
     f66:	80 91 dd 41 	lds	r24, 0x41DD	; 0x8041dd <_ZZ11__vector_12E23rotaryNoMotionCountdown>
     f6a:	90 91 de 41 	lds	r25, 0x41DE	; 0x8041de <_ZZ11__vector_12E23rotaryNoMotionCountdown+0x1>
     f6e:	89 2b       	or	r24, r25
     f70:	09 f0       	breq	.+2      	; 0xf74 <__vector_12+0x69e>
     f72:	49 c0       	rjmp	.+146    	; 0x1006 <__vector_12+0x730>
     f74:	89 81       	ldd	r24, Y+1	; 0x01
     f76:	9a 81       	ldd	r25, Y+2	; 0x02
     f78:	03 96       	adiw	r24, 0x03	; 3
     f7a:	8c 7f       	andi	r24, 0xFC	; 252
     f7c:	89 83       	std	Y+1, r24	; 0x01
     f7e:	9a 83       	std	Y+2, r25	; 0x02
     f80:	42 c0       	rjmp	.+132    	; 0x1006 <__vector_12+0x730>
     f82:	89 81       	ldd	r24, Y+1	; 0x01
     f84:	9a 81       	ldd	r25, Y+2	; 0x02
     f86:	95 95       	asr	r25
     f88:	87 95       	ror	r24
     f8a:	95 95       	asr	r25
     f8c:	87 95       	ror	r24
     f8e:	8d 87       	std	Y+13, r24	; 0x0d
     f90:	9e 87       	std	Y+14, r25	; 0x0e
     f92:	8c 85       	ldd	r24, Y+12	; 0x0c
     f94:	88 23       	and	r24, r24
     f96:	79 f0       	breq	.+30     	; 0xfb6 <__vector_12+0x6e0>
     f98:	20 91 4e 41 	lds	r18, 0x414E	; 0x80414e <_ZL14g_rotary_count>
     f9c:	30 91 4f 41 	lds	r19, 0x414F	; 0x80414f <_ZL14g_rotary_count+0x1>
     fa0:	8d 85       	ldd	r24, Y+13	; 0x0d
     fa2:	9e 85       	ldd	r25, Y+14	; 0x0e
     fa4:	a9 01       	movw	r20, r18
     fa6:	48 1b       	sub	r20, r24
     fa8:	59 0b       	sbc	r21, r25
     faa:	ca 01       	movw	r24, r20
     fac:	80 93 4e 41 	sts	0x414E, r24	; 0x80414e <_ZL14g_rotary_count>
     fb0:	90 93 4f 41 	sts	0x414F, r25	; 0x80414f <_ZL14g_rotary_count+0x1>
     fb4:	0c c0       	rjmp	.+24     	; 0xfce <__vector_12+0x6f8>
     fb6:	20 91 4e 41 	lds	r18, 0x414E	; 0x80414e <_ZL14g_rotary_count>
     fba:	30 91 4f 41 	lds	r19, 0x414F	; 0x80414f <_ZL14g_rotary_count+0x1>
     fbe:	8d 85       	ldd	r24, Y+13	; 0x0d
     fc0:	9e 85       	ldd	r25, Y+14	; 0x0e
     fc2:	82 0f       	add	r24, r18
     fc4:	93 1f       	adc	r25, r19
     fc6:	80 93 4e 41 	sts	0x414E, r24	; 0x80414e <_ZL14g_rotary_count>
     fca:	90 93 4f 41 	sts	0x414F, r25	; 0x80414f <_ZL14g_rotary_count+0x1>
     fce:	8d 85       	ldd	r24, Y+13	; 0x0d
     fd0:	9e 85       	ldd	r25, Y+14	; 0x0e
     fd2:	88 0f       	add	r24, r24
     fd4:	99 1f       	adc	r25, r25
     fd6:	88 0f       	add	r24, r24
     fd8:	99 1f       	adc	r25, r25
     fda:	29 81       	ldd	r18, Y+1	; 0x01
     fdc:	3a 81       	ldd	r19, Y+2	; 0x02
     fde:	f9 01       	movw	r30, r18
     fe0:	e8 1b       	sub	r30, r24
     fe2:	f9 0b       	sbc	r31, r25
     fe4:	cf 01       	movw	r24, r30
     fe6:	89 83       	std	Y+1, r24	; 0x01
     fe8:	9a 83       	std	Y+2, r25	; 0x02
     fea:	86 e9       	ldi	r24, 0x96	; 150
     fec:	90 e0       	ldi	r25, 0x00	; 0
     fee:	80 93 dd 41 	sts	0x41DD, r24	; 0x8041dd <_ZZ11__vector_12E23rotaryNoMotionCountdown>
     ff2:	90 93 de 41 	sts	0x41DE, r25	; 0x8041de <_ZZ11__vector_12E23rotaryNoMotionCountdown+0x1>
     ff6:	80 91 50 41 	lds	r24, 0x4150	; 0x804150 <_ZL14g_rotary_edges>
     ffa:	90 91 51 41 	lds	r25, 0x4151	; 0x804151 <_ZL14g_rotary_edges+0x1>
     ffe:	80 93 db 41 	sts	0x41DB, r24	; 0x8041db <_ZZ11__vector_12E15holdRotaryEdges>
    1002:	90 93 dc 41 	sts	0x41DC, r25	; 0x8041dc <_ZZ11__vector_12E15holdRotaryEdges+0x1>
    1006:	8c 85       	ldd	r24, Y+12	; 0x0c
    1008:	88 23       	and	r24, r24
    100a:	31 f0       	breq	.+12     	; 0x1018 <__vector_12+0x742>
    100c:	89 81       	ldd	r24, Y+1	; 0x01
    100e:	9a 81       	ldd	r25, Y+2	; 0x02
    1010:	91 95       	neg	r25
    1012:	81 95       	neg	r24
    1014:	91 09       	sbc	r25, r1
    1016:	02 c0       	rjmp	.+4      	; 0x101c <__vector_12+0x746>
    1018:	89 81       	ldd	r24, Y+1	; 0x01
    101a:	9a 81       	ldd	r25, Y+2	; 0x02
    101c:	80 93 50 41 	sts	0x4150, r24	; 0x804150 <_ZL14g_rotary_edges>
    1020:	90 93 51 41 	sts	0x4151, r25	; 0x804151 <_ZL14g_rotary_edges+0x1>
    1024:	80 e0       	ldi	r24, 0x00	; 0
    1026:	9b e0       	ldi	r25, 0x0B	; 11
    1028:	23 e0       	ldi	r18, 0x03	; 3
    102a:	fc 01       	movw	r30, r24
    102c:	26 83       	std	Z+6, r18	; 0x06
    102e:	00 00       	nop
    1030:	2e 96       	adiw	r28, 0x0e	; 14
    1032:	cd bf       	out	0x3d, r28	; 61
    1034:	de bf       	out	0x3e, r29	; 62
    1036:	df 91       	pop	r29
    1038:	cf 91       	pop	r28
    103a:	ff 91       	pop	r31
    103c:	ef 91       	pop	r30
    103e:	bf 91       	pop	r27
    1040:	af 91       	pop	r26
    1042:	9f 91       	pop	r25
    1044:	8f 91       	pop	r24
    1046:	7f 91       	pop	r23
    1048:	6f 91       	pop	r22
    104a:	5f 91       	pop	r21
    104c:	4f 91       	pop	r20
    104e:	3f 91       	pop	r19
    1050:	2f 91       	pop	r18
    1052:	0f 90       	pop	r0
    1054:	0b be       	out	0x3b, r0	; 59
    1056:	0f 90       	pop	r0
    1058:	0f be       	out	0x3f, r0	; 63
    105a:	0f 90       	pop	r0
    105c:	1f 90       	pop	r1
    105e:	18 95       	reti

00001060 <__vector_6>:
    1060:	1f 92       	push	r1
    1062:	0f 92       	push	r0
    1064:	0f b6       	in	r0, 0x3f	; 63
    1066:	0f 92       	push	r0
    1068:	11 24       	eor	r1, r1
    106a:	0b b6       	in	r0, 0x3b	; 59
    106c:	0f 92       	push	r0
    106e:	2f 93       	push	r18
    1070:	8f 93       	push	r24
    1072:	9f 93       	push	r25
    1074:	ef 93       	push	r30
    1076:	ff 93       	push	r31
    1078:	cf 93       	push	r28
    107a:	df 93       	push	r29
    107c:	1f 92       	push	r1
    107e:	cd b7       	in	r28, 0x3d	; 61
    1080:	de b7       	in	r29, 0x3e	; 62
    1082:	80 e0       	ldi	r24, 0x00	; 0
    1084:	90 e0       	ldi	r25, 0x00	; 0
    1086:	fc 01       	movw	r30, r24
    1088:	83 81       	ldd	r24, Z+3	; 0x03
    108a:	89 83       	std	Y+1, r24	; 0x01
    108c:	80 e0       	ldi	r24, 0x00	; 0
    108e:	90 e0       	ldi	r25, 0x00	; 0
    1090:	2f ef       	ldi	r18, 0xFF	; 255
    1092:	fc 01       	movw	r30, r24
    1094:	23 83       	std	Z+3, r18	; 0x03
    1096:	00 00       	nop
    1098:	0f 90       	pop	r0
    109a:	df 91       	pop	r29
    109c:	cf 91       	pop	r28
    109e:	ff 91       	pop	r31
    10a0:	ef 91       	pop	r30
    10a2:	9f 91       	pop	r25
    10a4:	8f 91       	pop	r24
    10a6:	2f 91       	pop	r18
    10a8:	0f 90       	pop	r0
    10aa:	0b be       	out	0x3b, r0	; 59
    10ac:	0f 90       	pop	r0
    10ae:	0f be       	out	0x3f, r0	; 63
    10b0:	0f 90       	pop	r0
    10b2:	1f 90       	pop	r1
    10b4:	18 95       	reti

000010b6 <__vector_34>:
    10b6:	1f 92       	push	r1
    10b8:	0f 92       	push	r0
    10ba:	0f b6       	in	r0, 0x3f	; 63
    10bc:	0f 92       	push	r0
    10be:	11 24       	eor	r1, r1
    10c0:	0b b6       	in	r0, 0x3b	; 59
    10c2:	0f 92       	push	r0
    10c4:	2f 93       	push	r18
    10c6:	8f 93       	push	r24
    10c8:	9f 93       	push	r25
    10ca:	af 93       	push	r26
    10cc:	bf 93       	push	r27
    10ce:	ef 93       	push	r30
    10d0:	ff 93       	push	r31
    10d2:	cf 93       	push	r28
    10d4:	df 93       	push	r29
    10d6:	00 d0       	rcall	.+0      	; 0x10d8 <__vector_34+0x22>
    10d8:	1f 92       	push	r1
    10da:	cd b7       	in	r28, 0x3d	; 61
    10dc:	de b7       	in	r29, 0x3e	; 62
    10de:	84 e1       	ldi	r24, 0x14	; 20
    10e0:	90 e0       	ldi	r25, 0x00	; 0
    10e2:	fc 01       	movw	r30, r24
    10e4:	83 81       	ldd	r24, Z+3	; 0x03
    10e6:	89 83       	std	Y+1, r24	; 0x01
    10e8:	80 91 4d 41 	lds	r24, 0x414D	; 0x80414d <_ZL15g_rotary_enable>
    10ec:	88 23       	and	r24, r24
    10ee:	09 f4       	brne	.+2      	; 0x10f2 <__vector_34+0x3c>
    10f0:	5b c0       	rjmp	.+182    	; 0x11a8 <__vector_34+0xf2>
    10f2:	89 81       	ldd	r24, Y+1	; 0x01
    10f4:	88 2f       	mov	r24, r24
    10f6:	90 e0       	ldi	r25, 0x00	; 0
    10f8:	88 71       	andi	r24, 0x18	; 24
    10fa:	99 27       	eor	r25, r25
    10fc:	89 2b       	or	r24, r25
    10fe:	09 f4       	brne	.+2      	; 0x1102 <__vector_34+0x4c>
    1100:	53 c0       	rjmp	.+166    	; 0x11a8 <__vector_34+0xf2>
    1102:	80 ea       	ldi	r24, 0xA0	; 160
    1104:	94 e0       	ldi	r25, 0x04	; 4
    1106:	fc 01       	movw	r30, r24
    1108:	80 85       	ldd	r24, Z+8	; 0x08
    110a:	88 2f       	mov	r24, r24
    110c:	90 e0       	ldi	r25, 0x00	; 0
    110e:	95 95       	asr	r25
    1110:	87 95       	ror	r24
    1112:	95 95       	asr	r25
    1114:	87 95       	ror	r24
    1116:	95 95       	asr	r25
    1118:	87 95       	ror	r24
    111a:	83 70       	andi	r24, 0x03	; 3
    111c:	8a 83       	std	Y+2, r24	; 0x02
    111e:	80 91 df 41 	lds	r24, 0x41DF	; 0x8041df <prev_state>
    1122:	88 2f       	mov	r24, r24
    1124:	90 e0       	ldi	r25, 0x00	; 0
    1126:	88 0f       	add	r24, r24
    1128:	99 1f       	adc	r25, r25
    112a:	88 0f       	add	r24, r24
    112c:	99 1f       	adc	r25, r25
    112e:	98 2f       	mov	r25, r24
    1130:	8a 81       	ldd	r24, Y+2	; 0x02
    1132:	89 2b       	or	r24, r25
    1134:	8b 83       	std	Y+3, r24	; 0x03
    1136:	8b 81       	ldd	r24, Y+3	; 0x03
    1138:	88 2f       	mov	r24, r24
    113a:	90 e0       	ldi	r25, 0x00	; 0
    113c:	09 2e       	mov	r0, r25
    113e:	00 0c       	add	r0, r0
    1140:	aa 0b       	sbc	r26, r26
    1142:	bb 0b       	sbc	r27, r27
    1144:	01 97       	sbiw	r24, 0x01	; 1
    1146:	a1 09       	sbc	r26, r1
    1148:	b1 09       	sbc	r27, r1
    114a:	8e 30       	cpi	r24, 0x0E	; 14
    114c:	91 05       	cpc	r25, r1
    114e:	a1 05       	cpc	r26, r1
    1150:	b1 05       	cpc	r27, r1
    1152:	38 f5       	brcc	.+78     	; 0x11a2 <__vector_34+0xec>
    1154:	81 55       	subi	r24, 0x51	; 81
    1156:	97 4f       	sbci	r25, 0xF7	; 247
    1158:	fc 01       	movw	r30, r24
    115a:	0c 94 0d 3b 	jmp	0x761a	; 0x761a <__tablejump2__>
    115e:	bd 08       	sbc	r11, r13
    1160:	c7 08       	sbc	r12, r7
    1162:	d1 08       	sbc	r13, r1
    1164:	c7 08       	sbc	r12, r7
    1166:	d1 08       	sbc	r13, r1
    1168:	d1 08       	sbc	r13, r1
    116a:	bd 08       	sbc	r11, r13
    116c:	bd 08       	sbc	r11, r13
    116e:	d1 08       	sbc	r13, r1
    1170:	d1 08       	sbc	r13, r1
    1172:	c7 08       	sbc	r12, r7
    1174:	d1 08       	sbc	r13, r1
    1176:	c7 08       	sbc	r12, r7
    1178:	bd 08       	sbc	r11, r13
    117a:	80 91 50 41 	lds	r24, 0x4150	; 0x804150 <_ZL14g_rotary_edges>
    117e:	90 91 51 41 	lds	r25, 0x4151	; 0x804151 <_ZL14g_rotary_edges+0x1>
    1182:	01 96       	adiw	r24, 0x01	; 1
    1184:	80 93 50 41 	sts	0x4150, r24	; 0x804150 <_ZL14g_rotary_edges>
    1188:	90 93 51 41 	sts	0x4151, r25	; 0x804151 <_ZL14g_rotary_edges+0x1>
    118c:	0a c0       	rjmp	.+20     	; 0x11a2 <__vector_34+0xec>
    118e:	80 91 50 41 	lds	r24, 0x4150	; 0x804150 <_ZL14g_rotary_edges>
    1192:	90 91 51 41 	lds	r25, 0x4151	; 0x804151 <_ZL14g_rotary_edges+0x1>
    1196:	01 97       	sbiw	r24, 0x01	; 1
    1198:	80 93 50 41 	sts	0x4150, r24	; 0x804150 <_ZL14g_rotary_edges>
    119c:	90 93 51 41 	sts	0x4151, r25	; 0x804151 <_ZL14g_rotary_edges+0x1>
    11a0:	00 00       	nop
    11a2:	8a 81       	ldd	r24, Y+2	; 0x02
    11a4:	80 93 df 41 	sts	0x41DF, r24	; 0x8041df <prev_state>
    11a8:	80 ea       	ldi	r24, 0xA0	; 160
    11aa:	94 e0       	ldi	r25, 0x04	; 4
    11ac:	28 e1       	ldi	r18, 0x18	; 24
    11ae:	fc 01       	movw	r30, r24
    11b0:	21 87       	std	Z+9, r18	; 0x09
    11b2:	00 00       	nop
    11b4:	23 96       	adiw	r28, 0x03	; 3
    11b6:	cd bf       	out	0x3d, r28	; 61
    11b8:	de bf       	out	0x3e, r29	; 62
    11ba:	df 91       	pop	r29
    11bc:	cf 91       	pop	r28
    11be:	ff 91       	pop	r31
    11c0:	ef 91       	pop	r30
    11c2:	bf 91       	pop	r27
    11c4:	af 91       	pop	r26
    11c6:	9f 91       	pop	r25
    11c8:	8f 91       	pop	r24
    11ca:	2f 91       	pop	r18
    11cc:	0f 90       	pop	r0
    11ce:	0b be       	out	0x3b, r0	; 59
    11d0:	0f 90       	pop	r0
    11d2:	0f be       	out	0x3f, r0	; 63
    11d4:	0f 90       	pop	r0
    11d6:	1f 90       	pop	r1
    11d8:	18 95       	reti

000011da <_Z11powerDown5Vv>:
    11da:	cf 93       	push	r28
    11dc:	df 93       	push	r29
    11de:	cd b7       	in	r28, 0x3d	; 61
    11e0:	de b7       	in	r29, 0x3e	; 62
    11e2:	60 e0       	ldi	r22, 0x00	; 0
    11e4:	83 e0       	ldi	r24, 0x03	; 3
    11e6:	0e 94 25 01 	call	0x24a	; 0x24a <PORTA_set_pin_level>
    11ea:	00 00       	nop
    11ec:	df 91       	pop	r29
    11ee:	cf 91       	pop	r28
    11f0:	08 95       	ret

000011f2 <_Z9powerUp5Vv>:
    11f2:	cf 93       	push	r28
    11f4:	df 93       	push	r29
    11f6:	cd b7       	in	r28, 0x3d	; 61
    11f8:	de b7       	in	r29, 0x3e	; 62
    11fa:	61 e0       	ldi	r22, 0x01	; 1
    11fc:	83 e0       	ldi	r24, 0x03	; 3
    11fe:	0e 94 25 01 	call	0x24a	; 0x24a <PORTA_set_pin_level>
    1202:	00 00       	nop
    1204:	df 91       	pop	r29
    1206:	cf 91       	pop	r28
    1208:	08 95       	ret

0000120a <_ZL12sineWaveInitv>:
    120a:	0f 93       	push	r16
    120c:	1f 93       	push	r17
    120e:	cf 93       	push	r28
    1210:	df 93       	push	r29
    1212:	1f 92       	push	r1
    1214:	cd b7       	in	r28, 0x3d	; 61
    1216:	de b7       	in	r29, 0x3e	; 62
    1218:	19 82       	std	Y+1, r1	; 0x01
    121a:	89 81       	ldd	r24, Y+1	; 0x01
    121c:	89 31       	cpi	r24, 0x19	; 25
    121e:	08 f0       	brcs	.+2      	; 0x1222 <_ZL12sineWaveInitv+0x18>
    1220:	51 c0       	rjmp	.+162    	; 0x12c4 <_ZL12sineWaveInitv+0xba>
    1222:	89 81       	ldd	r24, Y+1	; 0x01
    1224:	88 2f       	mov	r24, r24
    1226:	90 e0       	ldi	r25, 0x00	; 0
    1228:	09 2e       	mov	r0, r25
    122a:	00 0c       	add	r0, r0
    122c:	aa 0b       	sbc	r26, r26
    122e:	bb 0b       	sbc	r27, r27
    1230:	bc 01       	movw	r22, r24
    1232:	cd 01       	movw	r24, r26
    1234:	0e 94 bd 38 	call	0x717a	; 0x717a <__floatsisf>
    1238:	dc 01       	movw	r26, r24
    123a:	cb 01       	movw	r24, r22
    123c:	2b ed       	ldi	r18, 0xDB	; 219
    123e:	3f e0       	ldi	r19, 0x0F	; 15
    1240:	49 ec       	ldi	r20, 0xC9	; 201
    1242:	50 e4       	ldi	r21, 0x40	; 64
    1244:	bc 01       	movw	r22, r24
    1246:	cd 01       	movw	r24, r26
    1248:	0e 94 17 3a 	call	0x742e	; 0x742e <__mulsf3>
    124c:	dc 01       	movw	r26, r24
    124e:	cb 01       	movw	r24, r22
    1250:	20 e0       	ldi	r18, 0x00	; 0
    1252:	30 e0       	ldi	r19, 0x00	; 0
    1254:	48 ec       	ldi	r20, 0xC8	; 200
    1256:	51 e4       	ldi	r21, 0x41	; 65
    1258:	bc 01       	movw	r22, r24
    125a:	cd 01       	movw	r24, r26
    125c:	0e 94 13 38 	call	0x7026	; 0x7026 <__divsf3>
    1260:	dc 01       	movw	r26, r24
    1262:	cb 01       	movw	r24, r22
    1264:	bc 01       	movw	r22, r24
    1266:	cd 01       	movw	r24, r26
    1268:	0e 94 84 3a 	call	0x7508	; 0x7508 <sin>
    126c:	dc 01       	movw	r26, r24
    126e:	cb 01       	movw	r24, r22
    1270:	20 e0       	ldi	r18, 0x00	; 0
    1272:	30 e0       	ldi	r19, 0x00	; 0
    1274:	40 e7       	ldi	r20, 0x70	; 112
    1276:	51 e4       	ldi	r21, 0x41	; 65
    1278:	bc 01       	movw	r22, r24
    127a:	cd 01       	movw	r24, r26
    127c:	0e 94 17 3a 	call	0x742e	; 0x742e <__mulsf3>
    1280:	dc 01       	movw	r26, r24
    1282:	cb 01       	movw	r24, r22
    1284:	20 e0       	ldi	r18, 0x00	; 0
    1286:	30 e0       	ldi	r19, 0x00	; 0
    1288:	40 e7       	ldi	r20, 0x70	; 112
    128a:	51 e4       	ldi	r21, 0x41	; 65
    128c:	bc 01       	movw	r22, r24
    128e:	cd 01       	movw	r24, r26
    1290:	0e 94 9d 37 	call	0x6f3a	; 0x6f3a <__addsf3>
    1294:	dc 01       	movw	r26, r24
    1296:	cb 01       	movw	r24, r22
    1298:	29 81       	ldd	r18, Y+1	; 0x01
    129a:	02 2f       	mov	r16, r18
    129c:	10 e0       	ldi	r17, 0x00	; 0
    129e:	bc 01       	movw	r22, r24
    12a0:	cd 01       	movw	r24, r26
    12a2:	0e 94 8c 38 	call	0x7118	; 0x7118 <__fixunssfsi>
    12a6:	dc 01       	movw	r26, r24
    12a8:	cb 01       	movw	r24, r22
    12aa:	9c 01       	movw	r18, r24
    12ac:	c8 01       	movw	r24, r16
    12ae:	88 0f       	add	r24, r24
    12b0:	99 1f       	adc	r25, r25
    12b2:	89 56       	subi	r24, 0x69	; 105
    12b4:	9e 4b       	sbci	r25, 0xBE	; 190
    12b6:	fc 01       	movw	r30, r24
    12b8:	20 83       	st	Z, r18
    12ba:	31 83       	std	Z+1, r19	; 0x01
    12bc:	89 81       	ldd	r24, Y+1	; 0x01
    12be:	8f 5f       	subi	r24, 0xFF	; 255
    12c0:	89 83       	std	Y+1, r24	; 0x01
    12c2:	ab cf       	rjmp	.-170    	; 0x121a <_ZL12sineWaveInitv+0x10>
    12c4:	00 00       	nop
    12c6:	0f 90       	pop	r0
    12c8:	df 91       	pop	r29
    12ca:	cf 91       	pop	r28
    12cc:	1f 91       	pop	r17
    12ce:	0f 91       	pop	r16
    12d0:	08 95       	ret

000012d2 <_Z9powerdownv>:
    12d2:	cf 93       	push	r28
    12d4:	df 93       	push	r29
    12d6:	cd b7       	in	r28, 0x3d	; 61
    12d8:	de b7       	in	r29, 0x3e	; 62
    12da:	60 e0       	ldi	r22, 0x00	; 0
    12dc:	83 e0       	ldi	r24, 0x03	; 3
    12de:	0e 94 25 01 	call	0x24a	; 0x24a <PORTA_set_pin_level>
    12e2:	60 e0       	ldi	r22, 0x00	; 0
    12e4:	87 e0       	ldi	r24, 0x07	; 7
    12e6:	0e 94 25 01 	call	0x24a	; 0x24a <PORTA_set_pin_level>
    12ea:	90 91 4a 41 	lds	r25, 0x414A	; 0x80414a <_ZL21g_headphones_detected>
    12ee:	81 e0       	ldi	r24, 0x01	; 1
    12f0:	89 27       	eor	r24, r25
    12f2:	88 23       	and	r24, r24
    12f4:	09 f0       	breq	.+2      	; 0x12f8 <_Z9powerdownv+0x26>
    12f6:	f9 cf       	rjmp	.-14     	; 0x12ea <_Z9powerdownv+0x18>
    12f8:	61 e0       	ldi	r22, 0x01	; 1
    12fa:	83 e0       	ldi	r24, 0x03	; 3
    12fc:	0e 94 25 01 	call	0x24a	; 0x24a <PORTA_set_pin_level>
    1300:	61 e0       	ldi	r22, 0x01	; 1
    1302:	87 e0       	ldi	r24, 0x07	; 7
    1304:	0e 94 25 01 	call	0x24a	; 0x24a <PORTA_set_pin_level>
    1308:	00 00       	nop
    130a:	df 91       	pop	r29
    130c:	cf 91       	pop	r28
    130e:	08 95       	ret

00001310 <main>:
    1310:	cf 93       	push	r28
    1312:	df 93       	push	r29
    1314:	cd b7       	in	r28, 0x3d	; 61
    1316:	de b7       	in	r29, 0x3e	; 62
    1318:	e2 97       	sbiw	r28, 0x32	; 50
    131a:	cd bf       	out	0x3d, r28	; 61
    131c:	de bf       	out	0x3e, r29	; 62
    131e:	0e 94 05 09 	call	0x120a	; 0x120a <_ZL12sineWaveInitv>
    1322:	19 82       	std	Y+1, r1	; 0x01
    1324:	1a 82       	std	Y+2, r1	; 0x02
    1326:	1b 82       	std	Y+3, r1	; 0x03
    1328:	1c 82       	std	Y+4, r1	; 0x04
    132a:	8f ef       	ldi	r24, 0xFF	; 255
    132c:	8d 83       	std	Y+5, r24	; 0x05
    132e:	1e 82       	std	Y+6, r1	; 0x06
    1330:	1f 82       	std	Y+7, r1	; 0x07
    1332:	18 86       	std	Y+8, r1	; 0x08
    1334:	19 86       	std	Y+9, r1	; 0x09
    1336:	1a 86       	std	Y+10, r1	; 0x0a
    1338:	1b 86       	std	Y+11, r1	; 0x0b
    133a:	81 e0       	ldi	r24, 0x01	; 1
    133c:	8c 87       	std	Y+12, r24	; 0x0c
    133e:	0e 94 1b 01 	call	0x236	; 0x236 <atmel_start_init>
    1342:	0e 94 d9 32 	call	0x65b2	; 0x65b2 <si5351_get_status>
    1346:	80 78       	andi	r24, 0x80	; 128
    1348:	8d 87       	std	Y+13, r24	; 0x0d
    134a:	68 ee       	ldi	r22, 0xE8	; 232
    134c:	73 e0       	ldi	r23, 0x03	; 3
    134e:	80 e0       	ldi	r24, 0x00	; 0
    1350:	90 e0       	ldi	r25, 0x00	; 0
    1352:	0e 94 a9 34 	call	0x6952	; 0x6952 <util_delay_ms>
    1356:	88 23       	and	r24, r24
    1358:	29 f0       	breq	.+10     	; 0x1364 <main+0x54>
    135a:	8d 85       	ldd	r24, Y+13	; 0x0d
    135c:	88 23       	and	r24, r24
    135e:	11 f0       	breq	.+4      	; 0x1364 <main+0x54>
    1360:	81 e0       	ldi	r24, 0x01	; 1
    1362:	01 c0       	rjmp	.+2      	; 0x1366 <main+0x56>
    1364:	80 e0       	ldi	r24, 0x00	; 0
    1366:	88 23       	and	r24, r24
    1368:	29 f0       	breq	.+10     	; 0x1374 <main+0x64>
    136a:	0e 94 d9 32 	call	0x65b2	; 0x65b2 <si5351_get_status>
    136e:	80 78       	andi	r24, 0x80	; 128
    1370:	8d 87       	std	Y+13, r24	; 0x0d
    1372:	eb cf       	rjmp	.-42     	; 0x134a <main+0x3a>
    1374:	64 e4       	ldi	r22, 0x44	; 68
    1376:	7b e7       	ldi	r23, 0x7B	; 123
    1378:	86 e3       	ldi	r24, 0x36	; 54
    137a:	90 e0       	ldi	r25, 0x00	; 0
    137c:	0e 94 3e 36 	call	0x6c7c	; 0x6c7c <_Z13init_receiverm>
    1380:	8c 8b       	std	Y+20, r24	; 0x14
    1382:	9d 8b       	std	Y+21, r25	; 0x15
    1384:	8c 89       	ldd	r24, Y+20	; 0x14
    1386:	9d 89       	ldd	r25, Y+21	; 0x15
    1388:	89 2b       	or	r24, r25
    138a:	49 f0       	breq	.+18     	; 0x139e <main+0x8e>
    138c:	80 91 4b 41 	lds	r24, 0x414B	; 0x80414b <_ZL16g_hardware_error>
    1390:	90 91 4c 41 	lds	r25, 0x414C	; 0x80414c <_ZL16g_hardware_error+0x1>
    1394:	82 60       	ori	r24, 0x02	; 2
    1396:	80 93 4b 41 	sts	0x414B, r24	; 0x80414b <_ZL16g_hardware_error>
    139a:	90 93 4c 41 	sts	0x414C, r25	; 0x80414c <_ZL16g_hardware_error+0x1>
    139e:	80 91 2a 40 	lds	r24, 0x402A	; 0x80402a <g_clock_calibration>
    13a2:	90 91 2b 40 	lds	r25, 0x402B	; 0x80402b <g_clock_calibration+0x1>
    13a6:	0e 94 f4 29 	call	0x53e8	; 0x53e8 <_Z19RTC_set_calibrationj>
    13aa:	60 e8       	ldi	r22, 0x80	; 128
    13ac:	73 e4       	ldi	r23, 0x43	; 67
    13ae:	8d e6       	ldi	r24, 0x6D	; 109
    13b0:	98 e3       	ldi	r25, 0x38	; 56
    13b2:	0e 94 e0 00 	call	0x1c0	; 0x1c0 <set_system_time>
    13b6:	80 e0       	ldi	r24, 0x00	; 0
    13b8:	90 e0       	ldi	r25, 0x00	; 0
    13ba:	0e 94 ec 00 	call	0x1d8	; 0x1d8 <time>
    13be:	dc 01       	movw	r26, r24
    13c0:	cb 01       	movw	r24, r22
    13c2:	8e 8b       	std	Y+22, r24	; 0x16
    13c4:	9f 8b       	std	Y+23, r25	; 0x17
    13c6:	a8 8f       	std	Y+24, r26	; 0x18
    13c8:	b9 8f       	std	Y+25, r27	; 0x19
    13ca:	60 ed       	ldi	r22, 0xD0	; 208
    13cc:	77 e0       	ldi	r23, 0x07	; 7
    13ce:	80 e0       	ldi	r24, 0x00	; 0
    13d0:	90 e0       	ldi	r25, 0x00	; 0
    13d2:	0e 94 a9 34 	call	0x6952	; 0x6952 <util_delay_ms>
    13d6:	88 23       	and	r24, r24
    13d8:	89 f0       	breq	.+34     	; 0x13fc <main+0xec>
    13da:	80 e0       	ldi	r24, 0x00	; 0
    13dc:	90 e0       	ldi	r25, 0x00	; 0
    13de:	0e 94 ec 00 	call	0x1d8	; 0x1d8 <time>
    13e2:	9b 01       	movw	r18, r22
    13e4:	ac 01       	movw	r20, r24
    13e6:	8e 89       	ldd	r24, Y+22	; 0x16
    13e8:	9f 89       	ldd	r25, Y+23	; 0x17
    13ea:	a8 8d       	ldd	r26, Y+24	; 0x18
    13ec:	b9 8d       	ldd	r27, Y+25	; 0x19
    13ee:	82 17       	cp	r24, r18
    13f0:	93 07       	cpc	r25, r19
    13f2:	a4 07       	cpc	r26, r20
    13f4:	b5 07       	cpc	r27, r21
    13f6:	11 f4       	brne	.+4      	; 0x13fc <main+0xec>
    13f8:	81 e0       	ldi	r24, 0x01	; 1
    13fa:	01 c0       	rjmp	.+2      	; 0x13fe <main+0xee>
    13fc:	80 e0       	ldi	r24, 0x00	; 0
    13fe:	88 23       	and	r24, r24
    1400:	09 f0       	breq	.+2      	; 0x1404 <main+0xf4>
    1402:	e3 cf       	rjmp	.-58     	; 0x13ca <main+0xba>
    1404:	80 e0       	ldi	r24, 0x00	; 0
    1406:	90 e0       	ldi	r25, 0x00	; 0
    1408:	0e 94 ec 00 	call	0x1d8	; 0x1d8 <time>
    140c:	9b 01       	movw	r18, r22
    140e:	ac 01       	movw	r20, r24
    1410:	61 e0       	ldi	r22, 0x01	; 1
    1412:	8e 89       	ldd	r24, Y+22	; 0x16
    1414:	9f 89       	ldd	r25, Y+23	; 0x17
    1416:	a8 8d       	ldd	r26, Y+24	; 0x18
    1418:	b9 8d       	ldd	r27, Y+25	; 0x19
    141a:	82 17       	cp	r24, r18
    141c:	93 07       	cpc	r25, r19
    141e:	a4 07       	cpc	r26, r20
    1420:	b5 07       	cpc	r27, r21
    1422:	09 f0       	breq	.+2      	; 0x1426 <main+0x116>
    1424:	60 e0       	ldi	r22, 0x00	; 0
    1426:	66 23       	and	r22, r22
    1428:	59 f0       	breq	.+22     	; 0x1440 <main+0x130>
    142a:	80 91 4b 41 	lds	r24, 0x414B	; 0x80414b <_ZL16g_hardware_error>
    142e:	90 91 4c 41 	lds	r25, 0x414C	; 0x80414c <_ZL16g_hardware_error+0x1>
    1432:	81 60       	ori	r24, 0x01	; 1
    1434:	80 93 4b 41 	sts	0x414B, r24	; 0x80414b <_ZL16g_hardware_error>
    1438:	90 93 4c 41 	sts	0x414C, r25	; 0x80414c <_ZL16g_hardware_error+0x1>
    143c:	0e 94 50 29 	call	0x52a0	; 0x52a0 <_Z15RTC_init_backupv>
    1440:	62 e0       	ldi	r22, 0x02	; 2
    1442:	70 e0       	ldi	r23, 0x00	; 0
    1444:	80 e8       	ldi	r24, 0x80	; 128
    1446:	91 e4       	ldi	r25, 0x41	; 65
    1448:	0e 94 df 1a 	call	0x35be	; 0x35be <_ZN7Display5beginE9display_t>
    144c:	80 91 4b 41 	lds	r24, 0x414B	; 0x80414b <_ZL16g_hardware_error>
    1450:	90 91 4c 41 	lds	r25, 0x414C	; 0x80414c <_ZL16g_hardware_error+0x1>
    1454:	21 e0       	ldi	r18, 0x01	; 1
    1456:	89 2b       	or	r24, r25
    1458:	09 f4       	brne	.+2      	; 0x145c <main+0x14c>
    145a:	20 e0       	ldi	r18, 0x00	; 0
    145c:	22 23       	and	r18, r18
    145e:	91 f1       	breq	.+100    	; 0x14c4 <main+0x1b4>
    1460:	41 e0       	ldi	r20, 0x01	; 1
    1462:	69 e0       	ldi	r22, 0x09	; 9
    1464:	70 e0       	ldi	r23, 0x00	; 0
    1466:	8b e8       	ldi	r24, 0x8B	; 139
    1468:	91 e4       	ldi	r25, 0x41	; 65
    146a:	0e 94 26 26 	call	0x4c4c	; 0x4c4c <_ZN4leds5blinkE7Blink_tb>
    146e:	64 e3       	ldi	r22, 0x34	; 52
    1470:	70 e4       	ldi	r23, 0x40	; 64
    1472:	8c e8       	ldi	r24, 0x8C	; 140
    1474:	91 e4       	ldi	r25, 0x41	; 65
    1476:	0e 94 4b 19 	call	0x3296	; 0x3296 <_ZN18CircularStringBuff9putStringEPc>
    147a:	80 91 4b 41 	lds	r24, 0x414B	; 0x80414b <_ZL16g_hardware_error>
    147e:	90 91 4c 41 	lds	r25, 0x414C	; 0x80414c <_ZL16g_hardware_error+0x1>
    1482:	82 70       	andi	r24, 0x02	; 2
    1484:	99 27       	eor	r25, r25
    1486:	21 e0       	ldi	r18, 0x01	; 1
    1488:	89 2b       	or	r24, r25
    148a:	09 f4       	brne	.+2      	; 0x148e <main+0x17e>
    148c:	20 e0       	ldi	r18, 0x00	; 0
    148e:	22 23       	and	r18, r18
    1490:	31 f0       	breq	.+12     	; 0x149e <main+0x18e>
    1492:	6d e3       	ldi	r22, 0x3D	; 61
    1494:	70 e4       	ldi	r23, 0x40	; 64
    1496:	8c e8       	ldi	r24, 0x8C	; 140
    1498:	91 e4       	ldi	r25, 0x41	; 65
    149a:	0e 94 4b 19 	call	0x3296	; 0x3296 <_ZN18CircularStringBuff9putStringEPc>
    149e:	80 91 4b 41 	lds	r24, 0x414B	; 0x80414b <_ZL16g_hardware_error>
    14a2:	90 91 4c 41 	lds	r25, 0x414C	; 0x80414c <_ZL16g_hardware_error+0x1>
    14a6:	81 70       	andi	r24, 0x01	; 1
    14a8:	99 27       	eor	r25, r25
    14aa:	21 e0       	ldi	r18, 0x01	; 1
    14ac:	89 2b       	or	r24, r25
    14ae:	09 f4       	brne	.+2      	; 0x14b2 <main+0x1a2>
    14b0:	20 e0       	ldi	r18, 0x00	; 0
    14b2:	22 23       	and	r18, r18
    14b4:	b1 f1       	breq	.+108    	; 0x1522 <main+0x212>
    14b6:	66 e4       	ldi	r22, 0x46	; 70
    14b8:	70 e4       	ldi	r23, 0x40	; 64
    14ba:	8c e8       	ldi	r24, 0x8C	; 140
    14bc:	91 e4       	ldi	r25, 0x41	; 65
    14be:	0e 94 4b 19 	call	0x3296	; 0x3296 <_ZN18CircularStringBuff9putStringEPc>
    14c2:	2f c0       	rjmp	.+94     	; 0x1522 <main+0x212>
    14c4:	60 e0       	ldi	r22, 0x00	; 0
    14c6:	70 e0       	ldi	r23, 0x00	; 0
    14c8:	8b e8       	ldi	r24, 0x8B	; 139
    14ca:	91 e4       	ldi	r25, 0x41	; 65
    14cc:	0e 94 0d 26 	call	0x4c1a	; 0x4c1a <_ZN4leds5blinkE7Blink_t>
    14d0:	6f e4       	ldi	r22, 0x4F	; 79
    14d2:	70 e4       	ldi	r23, 0x40	; 64
    14d4:	8c e8       	ldi	r24, 0x8C	; 140
    14d6:	91 e4       	ldi	r25, 0x41	; 65
    14d8:	0e 94 4b 19 	call	0x3296	; 0x3296 <_ZN18CircularStringBuff9putStringEPc>
    14dc:	68 e5       	ldi	r22, 0x58	; 88
    14de:	70 e4       	ldi	r23, 0x40	; 64
    14e0:	8c e8       	ldi	r24, 0x8C	; 140
    14e2:	91 e4       	ldi	r25, 0x41	; 65
    14e4:	0e 94 4b 19 	call	0x3296	; 0x3296 <_ZN18CircularStringBuff9putStringEPc>
    14e8:	83 e6       	ldi	r24, 0x63	; 99
    14ea:	90 e4       	ldi	r25, 0x40	; 64
    14ec:	89 2f       	mov	r24, r25
    14ee:	8f 93       	push	r24
    14f0:	83 e6       	ldi	r24, 0x63	; 99
    14f2:	90 e4       	ldi	r25, 0x40	; 64
    14f4:	8f 93       	push	r24
    14f6:	88 e6       	ldi	r24, 0x68	; 104
    14f8:	90 e4       	ldi	r25, 0x40	; 64
    14fa:	89 2f       	mov	r24, r25
    14fc:	8f 93       	push	r24
    14fe:	88 e6       	ldi	r24, 0x68	; 104
    1500:	90 e4       	ldi	r25, 0x40	; 64
    1502:	8f 93       	push	r24
    1504:	82 ee       	ldi	r24, 0xE2	; 226
    1506:	90 e4       	ldi	r25, 0x40	; 64
    1508:	89 2f       	mov	r24, r25
    150a:	8f 93       	push	r24
    150c:	82 ee       	ldi	r24, 0xE2	; 226
    150e:	90 e4       	ldi	r25, 0x40	; 64
    1510:	8f 93       	push	r24
    1512:	0e 94 95 3c 	call	0x792a	; 0x792a <sprintf>
    1516:	0f 90       	pop	r0
    1518:	0f 90       	pop	r0
    151a:	0f 90       	pop	r0
    151c:	0f 90       	pop	r0
    151e:	0f 90       	pop	r0
    1520:	0f 90       	pop	r0
    1522:	62 ee       	ldi	r22, 0xE2	; 226
    1524:	70 e4       	ldi	r23, 0x40	; 64
    1526:	8c e8       	ldi	r24, 0x8C	; 140
    1528:	91 e4       	ldi	r25, 0x41	; 65
    152a:	0e 94 4b 19 	call	0x3296	; 0x3296 <_ZN18CircularStringBuff9putStringEPc>
    152e:	82 e0       	ldi	r24, 0x02	; 2
    1530:	90 e0       	ldi	r25, 0x00	; 0
    1532:	0e 94 e5 0f 	call	0x1fca	; 0x1fca <_Z18ADC0_setADCChannel20ADC_Active_Channel_t>
    1536:	0e 94 91 10 	call	0x2122	; 0x2122 <_Z20ADC0_startConversionv>
    153a:	80 91 5b 41 	lds	r24, 0x415B	; 0x80415b <g_display_active>
    153e:	88 23       	and	r24, r24
    1540:	09 f4       	brne	.+2      	; 0x1544 <main+0x234>
    1542:	03 c1       	rjmp	.+518    	; 0x174a <main+0x43a>
    1544:	8c 85       	ldd	r24, Y+12	; 0x0c
    1546:	88 23       	and	r24, r24
    1548:	59 f0       	breq	.+22     	; 0x1560 <main+0x250>
    154a:	1c 86       	std	Y+12, r1	; 0x0c
    154c:	80 e8       	ldi	r24, 0x80	; 128
    154e:	91 e4       	ldi	r25, 0x41	; 65
    1550:	0e 94 ee 1b 	call	0x37dc	; 0x37dc <_ZN7Display3clsEv>
    1554:	19 82       	std	Y+1, r1	; 0x01
    1556:	1a 82       	std	Y+2, r1	; 0x02
    1558:	1b 82       	std	Y+3, r1	; 0x03
    155a:	1c 82       	std	Y+4, r1	; 0x04
    155c:	8f ef       	ldi	r24, 0xFF	; 255
    155e:	8d 83       	std	Y+5, r24	; 0x05
    1560:	80 91 30 40 	lds	r24, 0x4030	; 0x804030 <g_rx_frequency>
    1564:	90 91 31 40 	lds	r25, 0x4031	; 0x804031 <g_rx_frequency+0x1>
    1568:	a0 91 32 40 	lds	r26, 0x4032	; 0x804032 <g_rx_frequency+0x2>
    156c:	b0 91 33 40 	lds	r27, 0x4033	; 0x804033 <g_rx_frequency+0x3>
    1570:	61 e0       	ldi	r22, 0x01	; 1
    1572:	29 81       	ldd	r18, Y+1	; 0x01
    1574:	3a 81       	ldd	r19, Y+2	; 0x02
    1576:	4b 81       	ldd	r20, Y+3	; 0x03
    1578:	5c 81       	ldd	r21, Y+4	; 0x04
    157a:	28 17       	cp	r18, r24
    157c:	39 07       	cpc	r19, r25
    157e:	4a 07       	cpc	r20, r26
    1580:	5b 07       	cpc	r21, r27
    1582:	09 f4       	brne	.+2      	; 0x1586 <main+0x276>
    1584:	60 e0       	ldi	r22, 0x00	; 0
    1586:	66 23       	and	r22, r22
    1588:	c9 f1       	breq	.+114    	; 0x15fc <main+0x2ec>
    158a:	80 91 30 40 	lds	r24, 0x4030	; 0x804030 <g_rx_frequency>
    158e:	90 91 31 40 	lds	r25, 0x4031	; 0x804031 <g_rx_frequency+0x1>
    1592:	a0 91 32 40 	lds	r26, 0x4032	; 0x804032 <g_rx_frequency+0x2>
    1596:	b0 91 33 40 	lds	r27, 0x4033	; 0x804033 <g_rx_frequency+0x3>
    159a:	89 83       	std	Y+1, r24	; 0x01
    159c:	9a 83       	std	Y+2, r25	; 0x02
    159e:	ab 83       	std	Y+3, r26	; 0x03
    15a0:	bc 83       	std	Y+4, r27	; 0x04
    15a2:	89 81       	ldd	r24, Y+1	; 0x01
    15a4:	9a 81       	ldd	r25, Y+2	; 0x02
    15a6:	ab 81       	ldd	r26, Y+3	; 0x03
    15a8:	bc 81       	ldd	r27, Y+4	; 0x04
    15aa:	9e 01       	movw	r18, r28
    15ac:	2c 5d       	subi	r18, 0xDC	; 220
    15ae:	3f 4f       	sbci	r19, 0xFF	; 255
    15b0:	ac 01       	movw	r20, r24
    15b2:	bd 01       	movw	r22, r26
    15b4:	c9 01       	movw	r24, r18
    15b6:	0e 94 06 37 	call	0x6e0c	; 0x6e0c <_Z15frequencyStringPcm>
    15ba:	ce 01       	movw	r24, r28
    15bc:	84 96       	adiw	r24, 0x24	; 36
    15be:	29 2f       	mov	r18, r25
    15c0:	2f 93       	push	r18
    15c2:	8f 93       	push	r24
    15c4:	81 e7       	ldi	r24, 0x71	; 113
    15c6:	90 e4       	ldi	r25, 0x40	; 64
    15c8:	89 2f       	mov	r24, r25
    15ca:	8f 93       	push	r24
    15cc:	81 e7       	ldi	r24, 0x71	; 113
    15ce:	90 e4       	ldi	r25, 0x40	; 64
    15d0:	8f 93       	push	r24
    15d2:	82 ee       	ldi	r24, 0xE2	; 226
    15d4:	90 e4       	ldi	r25, 0x40	; 64
    15d6:	89 2f       	mov	r24, r25
    15d8:	8f 93       	push	r24
    15da:	82 ee       	ldi	r24, 0xE2	; 226
    15dc:	90 e4       	ldi	r25, 0x40	; 64
    15de:	8f 93       	push	r24
    15e0:	0e 94 95 3c 	call	0x792a	; 0x792a <sprintf>
    15e4:	0f 90       	pop	r0
    15e6:	0f 90       	pop	r0
    15e8:	0f 90       	pop	r0
    15ea:	0f 90       	pop	r0
    15ec:	0f 90       	pop	r0
    15ee:	0f 90       	pop	r0
    15f0:	62 ee       	ldi	r22, 0xE2	; 226
    15f2:	70 e4       	ldi	r23, 0x40	; 64
    15f4:	8c e8       	ldi	r24, 0x8C	; 140
    15f6:	91 e4       	ldi	r25, 0x41	; 65
    15f8:	0e 94 4b 19 	call	0x3296	; 0x3296 <_ZN18CircularStringBuff9putStringEPc>
    15fc:	80 91 08 40 	lds	r24, 0x4008	; 0x804008 <_ZL17g_rf_gain_setting>
    1600:	9d 81       	ldd	r25, Y+5	; 0x05
    1602:	98 17       	cp	r25, r24
    1604:	61 f1       	breq	.+88     	; 0x165e <main+0x34e>
    1606:	80 91 08 40 	lds	r24, 0x4008	; 0x804008 <_ZL17g_rf_gain_setting>
    160a:	8d 83       	std	Y+5, r24	; 0x05
    160c:	80 91 08 40 	lds	r24, 0x4008	; 0x804008 <_ZL17g_rf_gain_setting>
    1610:	88 2f       	mov	r24, r24
    1612:	90 e0       	ldi	r25, 0x00	; 0
    1614:	24 e6       	ldi	r18, 0x64	; 100
    1616:	30 e0       	ldi	r19, 0x00	; 0
    1618:	a9 01       	movw	r20, r18
    161a:	48 1b       	sub	r20, r24
    161c:	59 0b       	sbc	r21, r25
    161e:	ca 01       	movw	r24, r20
    1620:	29 2f       	mov	r18, r25
    1622:	2f 93       	push	r18
    1624:	8f 93       	push	r24
    1626:	86 e7       	ldi	r24, 0x76	; 118
    1628:	90 e4       	ldi	r25, 0x40	; 64
    162a:	89 2f       	mov	r24, r25
    162c:	8f 93       	push	r24
    162e:	86 e7       	ldi	r24, 0x76	; 118
    1630:	90 e4       	ldi	r25, 0x40	; 64
    1632:	8f 93       	push	r24
    1634:	82 ee       	ldi	r24, 0xE2	; 226
    1636:	90 e4       	ldi	r25, 0x40	; 64
    1638:	89 2f       	mov	r24, r25
    163a:	8f 93       	push	r24
    163c:	82 ee       	ldi	r24, 0xE2	; 226
    163e:	90 e4       	ldi	r25, 0x40	; 64
    1640:	8f 93       	push	r24
    1642:	0e 94 95 3c 	call	0x792a	; 0x792a <sprintf>
    1646:	0f 90       	pop	r0
    1648:	0f 90       	pop	r0
    164a:	0f 90       	pop	r0
    164c:	0f 90       	pop	r0
    164e:	0f 90       	pop	r0
    1650:	0f 90       	pop	r0
    1652:	62 ee       	ldi	r22, 0xE2	; 226
    1654:	70 e4       	ldi	r23, 0x40	; 64
    1656:	8c e8       	ldi	r24, 0x8C	; 140
    1658:	91 e4       	ldi	r25, 0x41	; 65
    165a:	0e 94 4b 19 	call	0x3296	; 0x3296 <_ZN18CircularStringBuff9putStringEPc>
    165e:	80 91 17 40 	lds	r24, 0x4017	; 0x804017 <g_audio_gain>
    1662:	90 91 18 40 	lds	r25, 0x4018	; 0x804018 <g_audio_gain+0x1>
    1666:	41 e0       	ldi	r20, 0x01	; 1
    1668:	2e 81       	ldd	r18, Y+6	; 0x06
    166a:	3f 81       	ldd	r19, Y+7	; 0x07
    166c:	28 17       	cp	r18, r24
    166e:	39 07       	cpc	r19, r25
    1670:	09 f4       	brne	.+2      	; 0x1674 <main+0x364>
    1672:	40 e0       	ldi	r20, 0x00	; 0
    1674:	44 23       	and	r20, r20
    1676:	31 f1       	breq	.+76     	; 0x16c4 <main+0x3b4>
    1678:	80 91 17 40 	lds	r24, 0x4017	; 0x804017 <g_audio_gain>
    167c:	90 91 18 40 	lds	r25, 0x4018	; 0x804018 <g_audio_gain+0x1>
    1680:	8e 83       	std	Y+6, r24	; 0x06
    1682:	9f 83       	std	Y+7, r25	; 0x07
    1684:	8f 81       	ldd	r24, Y+7	; 0x07
    1686:	8f 93       	push	r24
    1688:	8e 81       	ldd	r24, Y+6	; 0x06
    168a:	8f 93       	push	r24
    168c:	80 e8       	ldi	r24, 0x80	; 128
    168e:	90 e4       	ldi	r25, 0x40	; 64
    1690:	89 2f       	mov	r24, r25
    1692:	8f 93       	push	r24
    1694:	80 e8       	ldi	r24, 0x80	; 128
    1696:	90 e4       	ldi	r25, 0x40	; 64
    1698:	8f 93       	push	r24
    169a:	82 ee       	ldi	r24, 0xE2	; 226
    169c:	90 e4       	ldi	r25, 0x40	; 64
    169e:	89 2f       	mov	r24, r25
    16a0:	8f 93       	push	r24
    16a2:	82 ee       	ldi	r24, 0xE2	; 226
    16a4:	90 e4       	ldi	r25, 0x40	; 64
    16a6:	8f 93       	push	r24
    16a8:	0e 94 95 3c 	call	0x792a	; 0x792a <sprintf>
    16ac:	0f 90       	pop	r0
    16ae:	0f 90       	pop	r0
    16b0:	0f 90       	pop	r0
    16b2:	0f 90       	pop	r0
    16b4:	0f 90       	pop	r0
    16b6:	0f 90       	pop	r0
    16b8:	62 ee       	ldi	r22, 0xE2	; 226
    16ba:	70 e4       	ldi	r23, 0x40	; 64
    16bc:	8c e8       	ldi	r24, 0x8C	; 140
    16be:	91 e4       	ldi	r25, 0x41	; 65
    16c0:	0e 94 4b 19 	call	0x3296	; 0x3296 <_ZN18CircularStringBuff9putStringEPc>
    16c4:	80 91 67 41 	lds	r24, 0x4167	; 0x804167 <g_goertzel_rssi>
    16c8:	90 91 68 41 	lds	r25, 0x4168	; 0x804168 <g_goertzel_rssi+0x1>
    16cc:	a0 91 69 41 	lds	r26, 0x4169	; 0x804169 <g_goertzel_rssi+0x2>
    16d0:	b0 91 6a 41 	lds	r27, 0x416A	; 0x80416a <g_goertzel_rssi+0x3>
    16d4:	28 85       	ldd	r18, Y+8	; 0x08
    16d6:	39 85       	ldd	r19, Y+9	; 0x09
    16d8:	4a 85       	ldd	r20, Y+10	; 0x0a
    16da:	5b 85       	ldd	r21, Y+11	; 0x0b
    16dc:	28 17       	cp	r18, r24
    16de:	39 07       	cpc	r19, r25
    16e0:	4a 07       	cpc	r20, r26
    16e2:	5b 07       	cpc	r21, r27
    16e4:	91 f1       	breq	.+100    	; 0x174a <main+0x43a>
    16e6:	80 91 67 41 	lds	r24, 0x4167	; 0x804167 <g_goertzel_rssi>
    16ea:	90 91 68 41 	lds	r25, 0x4168	; 0x804168 <g_goertzel_rssi+0x1>
    16ee:	a0 91 69 41 	lds	r26, 0x4169	; 0x804169 <g_goertzel_rssi+0x2>
    16f2:	b0 91 6a 41 	lds	r27, 0x416A	; 0x80416a <g_goertzel_rssi+0x3>
    16f6:	88 87       	std	Y+8, r24	; 0x08
    16f8:	99 87       	std	Y+9, r25	; 0x09
    16fa:	aa 87       	std	Y+10, r26	; 0x0a
    16fc:	bb 87       	std	Y+11, r27	; 0x0b
    16fe:	8b 85       	ldd	r24, Y+11	; 0x0b
    1700:	8f 93       	push	r24
    1702:	8a 85       	ldd	r24, Y+10	; 0x0a
    1704:	8f 93       	push	r24
    1706:	89 85       	ldd	r24, Y+9	; 0x09
    1708:	8f 93       	push	r24
    170a:	88 85       	ldd	r24, Y+8	; 0x08
    170c:	8f 93       	push	r24
    170e:	89 e8       	ldi	r24, 0x89	; 137
    1710:	90 e4       	ldi	r25, 0x40	; 64
    1712:	89 2f       	mov	r24, r25
    1714:	8f 93       	push	r24
    1716:	89 e8       	ldi	r24, 0x89	; 137
    1718:	90 e4       	ldi	r25, 0x40	; 64
    171a:	8f 93       	push	r24
    171c:	1f 92       	push	r1
    171e:	8a e0       	ldi	r24, 0x0A	; 10
    1720:	8f 93       	push	r24
    1722:	82 ee       	ldi	r24, 0xE2	; 226
    1724:	90 e4       	ldi	r25, 0x40	; 64
    1726:	89 2f       	mov	r24, r25
    1728:	8f 93       	push	r24
    172a:	82 ee       	ldi	r24, 0xE2	; 226
    172c:	90 e4       	ldi	r25, 0x40	; 64
    172e:	8f 93       	push	r24
    1730:	0e 94 5e 3c 	call	0x78bc	; 0x78bc <snprintf>
    1734:	8d b7       	in	r24, 0x3d	; 61
    1736:	9e b7       	in	r25, 0x3e	; 62
    1738:	0a 96       	adiw	r24, 0x0a	; 10
    173a:	cd bf       	out	0x3d, r28	; 61
    173c:	de bf       	out	0x3e, r29	; 62
    173e:	62 ee       	ldi	r22, 0xE2	; 226
    1740:	70 e4       	ldi	r23, 0x40	; 64
    1742:	8c e8       	ldi	r24, 0x8C	; 140
    1744:	91 e4       	ldi	r25, 0x41	; 65
    1746:	0e 94 4b 19 	call	0x3296	; 0x3296 <_ZN18CircularStringBuff9putStringEPc>
    174a:	8c e8       	ldi	r24, 0x8C	; 140
    174c:	91 e4       	ldi	r25, 0x41	; 65
    174e:	0e 94 28 18 	call	0x3050	; 0x3050 <_ZNK18CircularStringBuff4sizeEv>
    1752:	21 e0       	ldi	r18, 0x01	; 1
    1754:	89 2b       	or	r24, r25
    1756:	09 f4       	brne	.+2      	; 0x175a <main+0x44a>
    1758:	20 e0       	ldi	r18, 0x00	; 0
    175a:	22 23       	and	r18, r18
    175c:	b9 f1       	breq	.+110    	; 0x17cc <main+0x4bc>
    175e:	ce 01       	movw	r24, r28
    1760:	8f 96       	adiw	r24, 0x2f	; 47
    1762:	ac 01       	movw	r20, r24
    1764:	62 ee       	ldi	r22, 0xE2	; 226
    1766:	70 e4       	ldi	r23, 0x40	; 64
    1768:	8c e8       	ldi	r24, 0x8C	; 140
    176a:	91 e4       	ldi	r25, 0x41	; 65
    176c:	0e 94 ae 19 	call	0x335c	; 0x335c <_ZN18CircularStringBuff9getStringEPcPj>
    1770:	8f a5       	ldd	r24, Y+47	; 0x2f
    1772:	98 a9       	ldd	r25, Y+48	; 0x30
    1774:	03 97       	sbiw	r24, 0x03	; 3
    1776:	50 f1       	brcs	.+84     	; 0x17cc <main+0x4bc>
    1778:	80 91 e2 40 	lds	r24, 0x40E2	; 0x8040e2 <__data_end>
    177c:	8a 8f       	std	Y+26, r24	; 0x1a
    177e:	80 91 e3 40 	lds	r24, 0x40E3	; 0x8040e3 <__data_end+0x1>
    1782:	8b 8f       	std	Y+27, r24	; 0x1b
    1784:	8a 8d       	ldd	r24, Y+26	; 0x1a
    1786:	80 53       	subi	r24, 0x30	; 48
    1788:	8c 8f       	std	Y+28, r24	; 0x1c
    178a:	8b 8d       	ldd	r24, Y+27	; 0x1b
    178c:	80 53       	subi	r24, 0x30	; 48
    178e:	8d 8f       	std	Y+29, r24	; 0x1d
    1790:	4d 8d       	ldd	r20, Y+29	; 0x1d
    1792:	6c 8d       	ldd	r22, Y+28	; 0x1c
    1794:	80 e8       	ldi	r24, 0x80	; 128
    1796:	91 e4       	ldi	r25, 0x41	; 65
    1798:	0e 94 00 1c 	call	0x3800	; 0x3800 <_ZN7Display6locateEhh>
    179c:	8f a5       	ldd	r24, Y+47	; 0x2f
    179e:	98 a9       	ldd	r25, Y+48	; 0x30
    17a0:	02 97       	sbiw	r24, 0x02	; 2
    17a2:	8f a7       	std	Y+47, r24	; 0x2f
    17a4:	98 ab       	std	Y+48, r25	; 0x30
    17a6:	8f a5       	ldd	r24, Y+47	; 0x2f
    17a8:	98 a9       	ldd	r25, Y+48	; 0x30
    17aa:	ac 01       	movw	r20, r24
    17ac:	64 ee       	ldi	r22, 0xE4	; 228
    17ae:	70 e4       	ldi	r23, 0x40	; 64
    17b0:	80 e8       	ldi	r24, 0x80	; 128
    17b2:	91 e4       	ldi	r25, 0x41	; 65
    17b4:	0e 94 9c 1c 	call	0x3938	; 0x3938 <_ZN7Display10sendBufferEPhj>
    17b8:	ce 01       	movw	r24, r28
    17ba:	8f 96       	adiw	r24, 0x2f	; 47
    17bc:	ac 01       	movw	r20, r24
    17be:	62 ee       	ldi	r22, 0xE2	; 226
    17c0:	70 e4       	ldi	r23, 0x40	; 64
    17c2:	8c e8       	ldi	r24, 0x8C	; 140
    17c4:	91 e4       	ldi	r25, 0x41	; 65
    17c6:	0e 94 ae 19 	call	0x335c	; 0x335c <_ZN18CircularStringBuff9getStringEPcPj>
    17ca:	d2 cf       	rjmp	.-92     	; 0x1770 <main+0x460>
    17cc:	80 91 06 40 	lds	r24, 0x4006	; 0x804006 <_ZL19g_powerdown_seconds>
    17d0:	90 91 07 40 	lds	r25, 0x4007	; 0x804007 <_ZL19g_powerdown_seconds+0x1>
    17d4:	21 e0       	ldi	r18, 0x01	; 1
    17d6:	89 2b       	or	r24, r25
    17d8:	09 f0       	breq	.+2      	; 0x17dc <main+0x4cc>
    17da:	20 e0       	ldi	r18, 0x00	; 0
    17dc:	22 23       	and	r18, r18
    17de:	11 f0       	breq	.+4      	; 0x17e4 <main+0x4d4>
    17e0:	0e 94 69 09 	call	0x12d2	; 0x12d2 <_Z9powerdownv>
    17e4:	80 91 71 41 	lds	r24, 0x4171	; 0x804171 <g_handle_counted_leftsense_presses>
    17e8:	90 91 72 41 	lds	r25, 0x4172	; 0x804172 <g_handle_counted_leftsense_presses+0x1>
    17ec:	21 e0       	ldi	r18, 0x01	; 1
    17ee:	89 2b       	or	r24, r25
    17f0:	09 f4       	brne	.+2      	; 0x17f4 <main+0x4e4>
    17f2:	20 e0       	ldi	r18, 0x00	; 0
    17f4:	22 23       	and	r18, r18
    17f6:	91 f0       	breq	.+36     	; 0x181c <main+0x50c>
    17f8:	80 91 71 41 	lds	r24, 0x4171	; 0x804171 <g_handle_counted_leftsense_presses>
    17fc:	90 91 72 41 	lds	r25, 0x4172	; 0x804172 <g_handle_counted_leftsense_presses+0x1>
    1800:	21 e0       	ldi	r18, 0x01	; 1
    1802:	01 97       	sbiw	r24, 0x01	; 1
    1804:	09 f0       	breq	.+2      	; 0x1808 <main+0x4f8>
    1806:	20 e0       	ldi	r18, 0x00	; 0
    1808:	22 23       	and	r18, r18
    180a:	21 f4       	brne	.+8      	; 0x1814 <main+0x504>
    180c:	80 91 71 41 	lds	r24, 0x4171	; 0x804171 <g_handle_counted_leftsense_presses>
    1810:	90 91 72 41 	lds	r25, 0x4172	; 0x804172 <g_handle_counted_leftsense_presses+0x1>
    1814:	10 92 71 41 	sts	0x4171, r1	; 0x804171 <g_handle_counted_leftsense_presses>
    1818:	10 92 72 41 	sts	0x4172, r1	; 0x804172 <g_handle_counted_leftsense_presses+0x1>
    181c:	80 91 6b 41 	lds	r24, 0x416B	; 0x80416b <g_leftsense_closed_time>
    1820:	90 91 6c 41 	lds	r25, 0x416C	; 0x80416c <g_leftsense_closed_time+0x1>
    1824:	80 91 7d 41 	lds	r24, 0x417D	; 0x80417d <g_long_leftsense_press>
    1828:	88 23       	and	r24, r24
    182a:	11 f0       	breq	.+4      	; 0x1830 <main+0x520>
    182c:	10 92 7d 41 	sts	0x417D, r1	; 0x80417d <g_long_leftsense_press>
    1830:	80 91 73 41 	lds	r24, 0x4173	; 0x804173 <g_handle_counted_rightsense_presses>
    1834:	90 91 74 41 	lds	r25, 0x4174	; 0x804174 <g_handle_counted_rightsense_presses+0x1>
    1838:	21 e0       	ldi	r18, 0x01	; 1
    183a:	89 2b       	or	r24, r25
    183c:	09 f4       	brne	.+2      	; 0x1840 <main+0x530>
    183e:	20 e0       	ldi	r18, 0x00	; 0
    1840:	22 23       	and	r18, r18
    1842:	91 f0       	breq	.+36     	; 0x1868 <main+0x558>
    1844:	80 91 73 41 	lds	r24, 0x4173	; 0x804173 <g_handle_counted_rightsense_presses>
    1848:	90 91 74 41 	lds	r25, 0x4174	; 0x804174 <g_handle_counted_rightsense_presses+0x1>
    184c:	21 e0       	ldi	r18, 0x01	; 1
    184e:	01 97       	sbiw	r24, 0x01	; 1
    1850:	09 f0       	breq	.+2      	; 0x1854 <main+0x544>
    1852:	20 e0       	ldi	r18, 0x00	; 0
    1854:	22 23       	and	r18, r18
    1856:	21 f4       	brne	.+8      	; 0x1860 <main+0x550>
    1858:	80 91 73 41 	lds	r24, 0x4173	; 0x804173 <g_handle_counted_rightsense_presses>
    185c:	90 91 74 41 	lds	r25, 0x4174	; 0x804174 <g_handle_counted_rightsense_presses+0x1>
    1860:	10 92 73 41 	sts	0x4173, r1	; 0x804173 <g_handle_counted_rightsense_presses>
    1864:	10 92 74 41 	sts	0x4174, r1	; 0x804174 <g_handle_counted_rightsense_presses+0x1>
    1868:	80 91 6d 41 	lds	r24, 0x416D	; 0x80416d <g_rightsense_closed_time>
    186c:	90 91 6e 41 	lds	r25, 0x416E	; 0x80416e <g_rightsense_closed_time+0x1>
    1870:	80 91 7e 41 	lds	r24, 0x417E	; 0x80417e <g_long_rightsense_press>
    1874:	88 23       	and	r24, r24
    1876:	11 f0       	breq	.+4      	; 0x187c <main+0x56c>
    1878:	10 92 7e 41 	sts	0x417E, r1	; 0x80417e <g_long_rightsense_press>
    187c:	80 91 75 41 	lds	r24, 0x4175	; 0x804175 <g_handle_counted_encoder_presses>
    1880:	90 91 76 41 	lds	r25, 0x4176	; 0x804176 <g_handle_counted_encoder_presses+0x1>
    1884:	21 e0       	ldi	r18, 0x01	; 1
    1886:	89 2b       	or	r24, r25
    1888:	09 f4       	brne	.+2      	; 0x188c <main+0x57c>
    188a:	20 e0       	ldi	r18, 0x00	; 0
    188c:	22 23       	and	r18, r18
    188e:	91 f0       	breq	.+36     	; 0x18b4 <main+0x5a4>
    1890:	80 91 75 41 	lds	r24, 0x4175	; 0x804175 <g_handle_counted_encoder_presses>
    1894:	90 91 76 41 	lds	r25, 0x4176	; 0x804176 <g_handle_counted_encoder_presses+0x1>
    1898:	21 e0       	ldi	r18, 0x01	; 1
    189a:	01 97       	sbiw	r24, 0x01	; 1
    189c:	09 f0       	breq	.+2      	; 0x18a0 <main+0x590>
    189e:	20 e0       	ldi	r18, 0x00	; 0
    18a0:	22 23       	and	r18, r18
    18a2:	21 f4       	brne	.+8      	; 0x18ac <main+0x59c>
    18a4:	80 91 75 41 	lds	r24, 0x4175	; 0x804175 <g_handle_counted_encoder_presses>
    18a8:	90 91 76 41 	lds	r25, 0x4176	; 0x804176 <g_handle_counted_encoder_presses+0x1>
    18ac:	10 92 75 41 	sts	0x4175, r1	; 0x804175 <g_handle_counted_encoder_presses>
    18b0:	10 92 76 41 	sts	0x4176, r1	; 0x804176 <g_handle_counted_encoder_presses+0x1>
    18b4:	80 91 6f 41 	lds	r24, 0x416F	; 0x80416f <g_encoder_closed_time>
    18b8:	90 91 70 41 	lds	r25, 0x4170	; 0x804170 <g_encoder_closed_time+0x1>
    18bc:	80 91 7f 41 	lds	r24, 0x417F	; 0x80417f <g_long_encoder_press>
    18c0:	88 23       	and	r24, r24
    18c2:	11 f0       	breq	.+4      	; 0x18c8 <main+0x5b8>
    18c4:	10 92 7f 41 	sts	0x417F, r1	; 0x80417f <g_long_encoder_press>
    18c8:	80 91 46 41 	lds	r24, 0x4146	; 0x804146 <_ZL17g_last_error_code>
    18cc:	90 91 47 41 	lds	r25, 0x4147	; 0x804147 <_ZL17g_last_error_code+0x1>
    18d0:	21 e0       	ldi	r18, 0x01	; 1
    18d2:	89 2b       	or	r24, r25
    18d4:	09 f4       	brne	.+2      	; 0x18d8 <main+0x5c8>
    18d6:	20 e0       	ldi	r18, 0x00	; 0
    18d8:	22 23       	and	r18, r18
    18da:	21 f0       	breq	.+8      	; 0x18e4 <main+0x5d4>
    18dc:	10 92 46 41 	sts	0x4146, r1	; 0x804146 <_ZL17g_last_error_code>
    18e0:	10 92 47 41 	sts	0x4147, r1	; 0x804147 <_ZL17g_last_error_code+0x1>
    18e4:	80 91 48 41 	lds	r24, 0x4148	; 0x804148 <_ZL18g_last_status_code>
    18e8:	90 91 49 41 	lds	r25, 0x4149	; 0x804149 <_ZL18g_last_status_code+0x1>
    18ec:	21 e0       	ldi	r18, 0x01	; 1
    18ee:	89 2b       	or	r24, r25
    18f0:	09 f4       	brne	.+2      	; 0x18f4 <main+0x5e4>
    18f2:	20 e0       	ldi	r18, 0x00	; 0
    18f4:	22 23       	and	r18, r18
    18f6:	21 f0       	breq	.+8      	; 0x1900 <main+0x5f0>
    18f8:	10 92 48 41 	sts	0x4148, r1	; 0x804148 <_ZL18g_last_status_code>
    18fc:	10 92 49 41 	sts	0x4149, r1	; 0x804149 <_ZL18g_last_status_code+0x1>
    1900:	80 91 4e 41 	lds	r24, 0x414E	; 0x80414e <_ZL14g_rotary_count>
    1904:	90 91 4f 41 	lds	r25, 0x414F	; 0x80414f <_ZL14g_rotary_count+0x1>
    1908:	21 e0       	ldi	r18, 0x01	; 1
    190a:	89 2b       	or	r24, r25
    190c:	09 f4       	brne	.+2      	; 0x1910 <main+0x600>
    190e:	20 e0       	ldi	r18, 0x00	; 0
    1910:	22 23       	and	r18, r18
    1912:	09 f4       	brne	.+2      	; 0x1916 <main+0x606>
    1914:	f7 c0       	rjmp	.+494    	; 0x1b04 <main+0x7f4>
    1916:	80 91 08 40 	lds	r24, 0x4008	; 0x804008 <_ZL17g_rf_gain_setting>
    191a:	8e 8f       	std	Y+30, r24	; 0x1e
    191c:	80 91 4e 41 	lds	r24, 0x414E	; 0x80414e <_ZL14g_rotary_count>
    1920:	90 91 4f 41 	lds	r25, 0x414F	; 0x80414f <_ZL14g_rotary_count+0x1>
    1924:	89 2f       	mov	r24, r25
    1926:	88 1f       	adc	r24, r24
    1928:	88 27       	eor	r24, r24
    192a:	88 1f       	adc	r24, r24
    192c:	88 23       	and	r24, r24
    192e:	09 f4       	brne	.+2      	; 0x1932 <main+0x622>
    1930:	6c c0       	rjmp	.+216    	; 0x1a0a <main+0x6fa>
    1932:	80 91 52 41 	lds	r24, 0x4152	; 0x804152 <_ZL22g_rotary_shaft_pressed>
    1936:	88 23       	and	r24, r24
    1938:	a9 f0       	breq	.+42     	; 0x1964 <main+0x654>
    193a:	80 91 17 40 	lds	r24, 0x4017	; 0x804017 <g_audio_gain>
    193e:	90 91 18 40 	lds	r25, 0x4018	; 0x804018 <g_audio_gain+0x1>
    1942:	21 e0       	ldi	r18, 0x01	; 1
    1944:	0a 97       	sbiw	r24, 0x0a	; 10
    1946:	08 f0       	brcs	.+2      	; 0x194a <main+0x63a>
    1948:	20 e0       	ldi	r18, 0x00	; 0
    194a:	22 23       	and	r18, r18
    194c:	09 f4       	brne	.+2      	; 0x1950 <main+0x640>
    194e:	53 c0       	rjmp	.+166    	; 0x19f6 <main+0x6e6>
    1950:	80 91 17 40 	lds	r24, 0x4017	; 0x804017 <g_audio_gain>
    1954:	90 91 18 40 	lds	r25, 0x4018	; 0x804018 <g_audio_gain+0x1>
    1958:	01 96       	adiw	r24, 0x01	; 1
    195a:	80 93 17 40 	sts	0x4017, r24	; 0x804017 <g_audio_gain>
    195e:	90 93 18 40 	sts	0x4018, r25	; 0x804018 <g_audio_gain+0x1>
    1962:	49 c0       	rjmp	.+146    	; 0x19f6 <main+0x6e6>
    1964:	80 91 55 41 	lds	r24, 0x4155	; 0x804155 <_ZL19g_bothSense_pressed>
    1968:	88 23       	and	r24, r24
    196a:	d1 f1       	breq	.+116    	; 0x19e0 <main+0x6d0>
    196c:	80 91 53 41 	lds	r24, 0x4153	; 0x804153 <_ZL19g_leftSense_pressed>
    1970:	88 23       	and	r24, r24
    1972:	a9 f0       	breq	.+42     	; 0x199e <main+0x68e>
    1974:	80 91 30 40 	lds	r24, 0x4030	; 0x804030 <g_rx_frequency>
    1978:	90 91 31 40 	lds	r25, 0x4031	; 0x804031 <g_rx_frequency+0x1>
    197c:	a0 91 32 40 	lds	r26, 0x4032	; 0x804032 <g_rx_frequency+0x2>
    1980:	b0 91 33 40 	lds	r27, 0x4033	; 0x804033 <g_rx_frequency+0x3>
    1984:	88 51       	subi	r24, 0x18	; 24
    1986:	9c 4f       	sbci	r25, 0xFC	; 252
    1988:	af 4f       	sbci	r26, 0xFF	; 255
    198a:	bf 4f       	sbci	r27, 0xFF	; 255
    198c:	80 93 30 40 	sts	0x4030, r24	; 0x804030 <g_rx_frequency>
    1990:	90 93 31 40 	sts	0x4031, r25	; 0x804031 <g_rx_frequency+0x1>
    1994:	a0 93 32 40 	sts	0x4032, r26	; 0x804032 <g_rx_frequency+0x2>
    1998:	b0 93 33 40 	sts	0x4033, r27	; 0x804033 <g_rx_frequency+0x3>
    199c:	14 c0       	rjmp	.+40     	; 0x19c6 <main+0x6b6>
    199e:	80 91 30 40 	lds	r24, 0x4030	; 0x804030 <g_rx_frequency>
    19a2:	90 91 31 40 	lds	r25, 0x4031	; 0x804031 <g_rx_frequency+0x1>
    19a6:	a0 91 32 40 	lds	r26, 0x4032	; 0x804032 <g_rx_frequency+0x2>
    19aa:	b0 91 33 40 	lds	r27, 0x4033	; 0x804033 <g_rx_frequency+0x3>
    19ae:	8c 59       	subi	r24, 0x9C	; 156
    19b0:	9f 4f       	sbci	r25, 0xFF	; 255
    19b2:	af 4f       	sbci	r26, 0xFF	; 255
    19b4:	bf 4f       	sbci	r27, 0xFF	; 255
    19b6:	80 93 30 40 	sts	0x4030, r24	; 0x804030 <g_rx_frequency>
    19ba:	90 93 31 40 	sts	0x4031, r25	; 0x804031 <g_rx_frequency+0x1>
    19be:	a0 93 32 40 	sts	0x4032, r26	; 0x804032 <g_rx_frequency+0x2>
    19c2:	b0 93 33 40 	sts	0x4033, r27	; 0x804033 <g_rx_frequency+0x3>
    19c6:	80 91 30 40 	lds	r24, 0x4030	; 0x804030 <g_rx_frequency>
    19ca:	90 91 31 40 	lds	r25, 0x4031	; 0x804031 <g_rx_frequency+0x1>
    19ce:	a0 91 32 40 	lds	r26, 0x4032	; 0x804032 <g_rx_frequency+0x2>
    19d2:	b0 91 33 40 	lds	r27, 0x4033	; 0x804033 <g_rx_frequency+0x3>
    19d6:	bc 01       	movw	r22, r24
    19d8:	cd 01       	movw	r24, r26
    19da:	0e 94 94 2d 	call	0x5b28	; 0x5b28 <si5351_set_quad_frequency>
    19de:	0b c0       	rjmp	.+22     	; 0x19f6 <main+0x6e6>
    19e0:	8e 8d       	ldd	r24, Y+30	; 0x1e
    19e2:	88 23       	and	r24, r24
    19e4:	41 f0       	breq	.+16     	; 0x19f6 <main+0x6e6>
    19e6:	8e 8d       	ldd	r24, Y+30	; 0x1e
    19e8:	81 50       	subi	r24, 0x01	; 1
    19ea:	8e 8f       	std	Y+30, r24	; 0x1e
    19ec:	8e 8d       	ldd	r24, Y+30	; 0x1e
    19ee:	88 2f       	mov	r24, r24
    19f0:	90 e0       	ldi	r25, 0x00	; 0
    19f2:	0e 94 d4 33 	call	0x67a8	; 0x67a8 <setPWM>
    19f6:	80 91 4e 41 	lds	r24, 0x414E	; 0x80414e <_ZL14g_rotary_count>
    19fa:	90 91 4f 41 	lds	r25, 0x414F	; 0x80414f <_ZL14g_rotary_count+0x1>
    19fe:	01 96       	adiw	r24, 0x01	; 1
    1a00:	80 93 4e 41 	sts	0x414E, r24	; 0x80414e <_ZL14g_rotary_count>
    1a04:	90 93 4f 41 	sts	0x414F, r25	; 0x80414f <_ZL14g_rotary_count+0x1>
    1a08:	6b c0       	rjmp	.+214    	; 0x1ae0 <main+0x7d0>
    1a0a:	80 91 52 41 	lds	r24, 0x4152	; 0x804152 <_ZL22g_rotary_shaft_pressed>
    1a0e:	88 23       	and	r24, r24
    1a10:	a9 f0       	breq	.+42     	; 0x1a3c <main+0x72c>
    1a12:	80 91 17 40 	lds	r24, 0x4017	; 0x804017 <g_audio_gain>
    1a16:	90 91 18 40 	lds	r25, 0x4018	; 0x804018 <g_audio_gain+0x1>
    1a1a:	21 e0       	ldi	r18, 0x01	; 1
    1a1c:	02 97       	sbiw	r24, 0x02	; 2
    1a1e:	08 f4       	brcc	.+2      	; 0x1a22 <main+0x712>
    1a20:	20 e0       	ldi	r18, 0x00	; 0
    1a22:	22 23       	and	r18, r18
    1a24:	09 f4       	brne	.+2      	; 0x1a28 <main+0x718>
    1a26:	53 c0       	rjmp	.+166    	; 0x1ace <main+0x7be>
    1a28:	80 91 17 40 	lds	r24, 0x4017	; 0x804017 <g_audio_gain>
    1a2c:	90 91 18 40 	lds	r25, 0x4018	; 0x804018 <g_audio_gain+0x1>
    1a30:	01 97       	sbiw	r24, 0x01	; 1
    1a32:	80 93 17 40 	sts	0x4017, r24	; 0x804017 <g_audio_gain>
    1a36:	90 93 18 40 	sts	0x4018, r25	; 0x804018 <g_audio_gain+0x1>
    1a3a:	49 c0       	rjmp	.+146    	; 0x1ace <main+0x7be>
    1a3c:	80 91 55 41 	lds	r24, 0x4155	; 0x804155 <_ZL19g_bothSense_pressed>
    1a40:	88 23       	and	r24, r24
    1a42:	d1 f1       	breq	.+116    	; 0x1ab8 <main+0x7a8>
    1a44:	80 91 53 41 	lds	r24, 0x4153	; 0x804153 <_ZL19g_leftSense_pressed>
    1a48:	88 23       	and	r24, r24
    1a4a:	a9 f0       	breq	.+42     	; 0x1a76 <main+0x766>
    1a4c:	80 91 30 40 	lds	r24, 0x4030	; 0x804030 <g_rx_frequency>
    1a50:	90 91 31 40 	lds	r25, 0x4031	; 0x804031 <g_rx_frequency+0x1>
    1a54:	a0 91 32 40 	lds	r26, 0x4032	; 0x804032 <g_rx_frequency+0x2>
    1a58:	b0 91 33 40 	lds	r27, 0x4033	; 0x804033 <g_rx_frequency+0x3>
    1a5c:	88 5e       	subi	r24, 0xE8	; 232
    1a5e:	93 40       	sbci	r25, 0x03	; 3
    1a60:	a1 09       	sbc	r26, r1
    1a62:	b1 09       	sbc	r27, r1
    1a64:	80 93 30 40 	sts	0x4030, r24	; 0x804030 <g_rx_frequency>
    1a68:	90 93 31 40 	sts	0x4031, r25	; 0x804031 <g_rx_frequency+0x1>
    1a6c:	a0 93 32 40 	sts	0x4032, r26	; 0x804032 <g_rx_frequency+0x2>
    1a70:	b0 93 33 40 	sts	0x4033, r27	; 0x804033 <g_rx_frequency+0x3>
    1a74:	14 c0       	rjmp	.+40     	; 0x1a9e <main+0x78e>
    1a76:	80 91 30 40 	lds	r24, 0x4030	; 0x804030 <g_rx_frequency>
    1a7a:	90 91 31 40 	lds	r25, 0x4031	; 0x804031 <g_rx_frequency+0x1>
    1a7e:	a0 91 32 40 	lds	r26, 0x4032	; 0x804032 <g_rx_frequency+0x2>
    1a82:	b0 91 33 40 	lds	r27, 0x4033	; 0x804033 <g_rx_frequency+0x3>
    1a86:	84 56       	subi	r24, 0x64	; 100
    1a88:	91 09       	sbc	r25, r1
    1a8a:	a1 09       	sbc	r26, r1
    1a8c:	b1 09       	sbc	r27, r1
    1a8e:	80 93 30 40 	sts	0x4030, r24	; 0x804030 <g_rx_frequency>
    1a92:	90 93 31 40 	sts	0x4031, r25	; 0x804031 <g_rx_frequency+0x1>
    1a96:	a0 93 32 40 	sts	0x4032, r26	; 0x804032 <g_rx_frequency+0x2>
    1a9a:	b0 93 33 40 	sts	0x4033, r27	; 0x804033 <g_rx_frequency+0x3>
    1a9e:	80 91 30 40 	lds	r24, 0x4030	; 0x804030 <g_rx_frequency>
    1aa2:	90 91 31 40 	lds	r25, 0x4031	; 0x804031 <g_rx_frequency+0x1>
    1aa6:	a0 91 32 40 	lds	r26, 0x4032	; 0x804032 <g_rx_frequency+0x2>
    1aaa:	b0 91 33 40 	lds	r27, 0x4033	; 0x804033 <g_rx_frequency+0x3>
    1aae:	bc 01       	movw	r22, r24
    1ab0:	cd 01       	movw	r24, r26
    1ab2:	0e 94 94 2d 	call	0x5b28	; 0x5b28 <si5351_set_quad_frequency>
    1ab6:	0b c0       	rjmp	.+22     	; 0x1ace <main+0x7be>
    1ab8:	8e 8d       	ldd	r24, Y+30	; 0x1e
    1aba:	84 36       	cpi	r24, 0x64	; 100
    1abc:	40 f4       	brcc	.+16     	; 0x1ace <main+0x7be>
    1abe:	8e 8d       	ldd	r24, Y+30	; 0x1e
    1ac0:	8f 5f       	subi	r24, 0xFF	; 255
    1ac2:	8e 8f       	std	Y+30, r24	; 0x1e
    1ac4:	8e 8d       	ldd	r24, Y+30	; 0x1e
    1ac6:	88 2f       	mov	r24, r24
    1ac8:	90 e0       	ldi	r25, 0x00	; 0
    1aca:	0e 94 d4 33 	call	0x67a8	; 0x67a8 <setPWM>
    1ace:	80 91 4e 41 	lds	r24, 0x414E	; 0x80414e <_ZL14g_rotary_count>
    1ad2:	90 91 4f 41 	lds	r25, 0x414F	; 0x80414f <_ZL14g_rotary_count+0x1>
    1ad6:	01 97       	sbiw	r24, 0x01	; 1
    1ad8:	80 93 4e 41 	sts	0x414E, r24	; 0x80414e <_ZL14g_rotary_count>
    1adc:	90 93 4f 41 	sts	0x414F, r25	; 0x80414f <_ZL14g_rotary_count+0x1>
    1ae0:	80 e0       	ldi	r24, 0x00	; 0
    1ae2:	90 e0       	ldi	r25, 0x00	; 0
    1ae4:	0e 94 15 30 	call	0x602a	; 0x602a <si5351_get_frequency>
    1ae8:	dc 01       	movw	r26, r24
    1aea:	cb 01       	movw	r24, r22
    1aec:	80 93 30 40 	sts	0x4030, r24	; 0x804030 <g_rx_frequency>
    1af0:	90 93 31 40 	sts	0x4031, r25	; 0x804031 <g_rx_frequency+0x1>
    1af4:	a0 93 32 40 	sts	0x4032, r26	; 0x804032 <g_rx_frequency+0x2>
    1af8:	b0 93 33 40 	sts	0x4033, r27	; 0x804033 <g_rx_frequency+0x3>
    1afc:	0e 94 34 34 	call	0x6868	; 0x6868 <getPWM>
    1b00:	80 93 08 40 	sts	0x4008, r24	; 0x804008 <_ZL17g_rf_gain_setting>
    1b04:	84 ee       	ldi	r24, 0xE4	; 228
    1b06:	91 e4       	ldi	r25, 0x41	; 65
    1b08:	0e 94 b8 20 	call	0x4170	; 0x4170 <_ZN8Goertzel12SamplesReadyEv>
    1b0c:	88 23       	and	r24, r24
    1b0e:	09 f4       	brne	.+2      	; 0x1b12 <main+0x802>
    1b10:	b3 c1       	rjmp	.+870    	; 0x1e78 <main+0xb68>
    1b12:	19 aa       	std	Y+49, r1	; 0x31
    1b14:	1a aa       	std	Y+50, r1	; 0x32
    1b16:	80 e0       	ldi	r24, 0x00	; 0
    1b18:	90 e8       	ldi	r25, 0x80	; 128
    1b1a:	ab e1       	ldi	r26, 0x1B	; 27
    1b1c:	b4 e4       	ldi	r27, 0x44	; 68
    1b1e:	ac 01       	movw	r20, r24
    1b20:	bd 01       	movw	r22, r26
    1b22:	84 ee       	ldi	r24, 0xE4	; 228
    1b24:	91 e4       	ldi	r25, 0x41	; 65
    1b26:	0e 94 13 1f 	call	0x3e26	; 0x3e26 <_ZN8Goertzel18SetTargetFrequencyEf>
    1b2a:	ce 01       	movw	r24, r28
    1b2c:	c1 96       	adiw	r24, 0x31	; 49
    1b2e:	bc 01       	movw	r22, r24
    1b30:	84 ee       	ldi	r24, 0xE4	; 228
    1b32:	91 e4       	ldi	r25, 0x41	; 65
    1b34:	0e 94 c6 20 	call	0x418c	; 0x418c <_ZN8Goertzel10Magnitude2EPi>
    1b38:	dc 01       	movw	r26, r24
    1b3a:	cb 01       	movw	r24, r22
    1b3c:	8f 8f       	std	Y+31, r24	; 0x1f
    1b3e:	98 a3       	std	Y+32, r25	; 0x20
    1b40:	a9 a3       	std	Y+33, r26	; 0x21
    1b42:	ba a3       	std	Y+34, r27	; 0x22
    1b44:	89 a9       	ldd	r24, Y+49	; 0x31
    1b46:	9a a9       	ldd	r25, Y+50	; 0x32
    1b48:	21 e0       	ldi	r18, 0x01	; 1
    1b4a:	c3 97       	sbiw	r24, 0x33	; 51
    1b4c:	0c f4       	brge	.+2      	; 0x1b50 <main+0x840>
    1b4e:	20 e0       	ldi	r18, 0x00	; 0
    1b50:	2b a3       	std	Y+35, r18	; 0x23
    1b52:	9b a1       	ldd	r25, Y+35	; 0x23
    1b54:	81 e0       	ldi	r24, 0x01	; 1
    1b56:	89 27       	eor	r24, r25
    1b58:	88 23       	and	r24, r24
    1b5a:	09 f4       	brne	.+2      	; 0x1b5e <main+0x84e>
    1b5c:	8d c1       	rjmp	.+794    	; 0x1e78 <main+0xb68>
    1b5e:	80 91 1d 40 	lds	r24, 0x401D	; 0x80401d <_ZZ4mainE4init>
    1b62:	88 23       	and	r24, r24
    1b64:	09 f4       	brne	.+2      	; 0x1b68 <main+0x858>
    1b66:	43 c0       	rjmp	.+134    	; 0x1bee <main+0x8de>
    1b68:	80 91 1d 40 	lds	r24, 0x401D	; 0x80401d <_ZZ4mainE4init>
    1b6c:	81 50       	subi	r24, 0x01	; 1
    1b6e:	80 93 1d 40 	sts	0x401D, r24	; 0x80401d <_ZZ4mainE4init>
    1b72:	80 91 e0 41 	lds	r24, 0x41E0	; 0x8041e0 <_ZZ4mainE13maxPitchLevel>
    1b76:	90 91 e1 41 	lds	r25, 0x41E1	; 0x8041e1 <_ZZ4mainE13maxPitchLevel+0x1>
    1b7a:	a0 91 e2 41 	lds	r26, 0x41E2	; 0x8041e2 <_ZZ4mainE13maxPitchLevel+0x2>
    1b7e:	b0 91 e3 41 	lds	r27, 0x41E3	; 0x8041e3 <_ZZ4mainE13maxPitchLevel+0x3>
    1b82:	9c 01       	movw	r18, r24
    1b84:	ad 01       	movw	r20, r26
    1b86:	6f 8d       	ldd	r22, Y+31	; 0x1f
    1b88:	78 a1       	ldd	r23, Y+32	; 0x20
    1b8a:	89 a1       	ldd	r24, Y+33	; 0x21
    1b8c:	9a a1       	ldd	r25, Y+34	; 0x22
    1b8e:	0e 94 ba 39 	call	0x7374	; 0x7374 <__gesf2>
    1b92:	18 16       	cp	r1, r24
    1b94:	64 f4       	brge	.+24     	; 0x1bae <main+0x89e>
    1b96:	8f 8d       	ldd	r24, Y+31	; 0x1f
    1b98:	98 a1       	ldd	r25, Y+32	; 0x20
    1b9a:	a9 a1       	ldd	r26, Y+33	; 0x21
    1b9c:	ba a1       	ldd	r27, Y+34	; 0x22
    1b9e:	80 93 e0 41 	sts	0x41E0, r24	; 0x8041e0 <_ZZ4mainE13maxPitchLevel>
    1ba2:	90 93 e1 41 	sts	0x41E1, r25	; 0x8041e1 <_ZZ4mainE13maxPitchLevel+0x1>
    1ba6:	a0 93 e2 41 	sts	0x41E2, r26	; 0x8041e2 <_ZZ4mainE13maxPitchLevel+0x2>
    1baa:	b0 93 e3 41 	sts	0x41E3, r27	; 0x8041e3 <_ZZ4mainE13maxPitchLevel+0x3>
    1bae:	80 91 1e 40 	lds	r24, 0x401E	; 0x80401e <_ZZ4mainE13minPitchLevel>
    1bb2:	90 91 1f 40 	lds	r25, 0x401F	; 0x80401f <_ZZ4mainE13minPitchLevel+0x1>
    1bb6:	a0 91 20 40 	lds	r26, 0x4020	; 0x804020 <_ZZ4mainE13minPitchLevel+0x2>
    1bba:	b0 91 21 40 	lds	r27, 0x4021	; 0x804021 <_ZZ4mainE13minPitchLevel+0x3>
    1bbe:	9c 01       	movw	r18, r24
    1bc0:	ad 01       	movw	r20, r26
    1bc2:	6f 8d       	ldd	r22, Y+31	; 0x1f
    1bc4:	78 a1       	ldd	r23, Y+32	; 0x20
    1bc6:	89 a1       	ldd	r24, Y+33	; 0x21
    1bc8:	9a a1       	ldd	r25, Y+34	; 0x22
    1bca:	0e 94 09 38 	call	0x7012	; 0x7012 <__cmpsf2>
    1bce:	88 23       	and	r24, r24
    1bd0:	0c f0       	brlt	.+2      	; 0x1bd4 <main+0x8c4>
    1bd2:	52 c1       	rjmp	.+676    	; 0x1e78 <main+0xb68>
    1bd4:	8f 8d       	ldd	r24, Y+31	; 0x1f
    1bd6:	98 a1       	ldd	r25, Y+32	; 0x20
    1bd8:	a9 a1       	ldd	r26, Y+33	; 0x21
    1bda:	ba a1       	ldd	r27, Y+34	; 0x22
    1bdc:	80 93 1e 40 	sts	0x401E, r24	; 0x80401e <_ZZ4mainE13minPitchLevel>
    1be0:	90 93 1f 40 	sts	0x401F, r25	; 0x80401f <_ZZ4mainE13minPitchLevel+0x1>
    1be4:	a0 93 20 40 	sts	0x4020, r26	; 0x804020 <_ZZ4mainE13minPitchLevel+0x2>
    1be8:	b0 93 21 40 	sts	0x4021, r27	; 0x804021 <_ZZ4mainE13minPitchLevel+0x3>
    1bec:	45 c1       	rjmp	.+650    	; 0x1e78 <main+0xb68>
    1bee:	1a 8a       	std	Y+18, r1	; 0x12
    1bf0:	1b 8a       	std	Y+19, r1	; 0x13
    1bf2:	80 91 e0 41 	lds	r24, 0x41E0	; 0x8041e0 <_ZZ4mainE13maxPitchLevel>
    1bf6:	90 91 e1 41 	lds	r25, 0x41E1	; 0x8041e1 <_ZZ4mainE13maxPitchLevel+0x1>
    1bfa:	a0 91 e2 41 	lds	r26, 0x41E2	; 0x8041e2 <_ZZ4mainE13maxPitchLevel+0x2>
    1bfe:	b0 91 e3 41 	lds	r27, 0x41E3	; 0x8041e3 <_ZZ4mainE13maxPitchLevel+0x3>
    1c02:	9c 01       	movw	r18, r24
    1c04:	ad 01       	movw	r20, r26
    1c06:	6f 8d       	ldd	r22, Y+31	; 0x1f
    1c08:	78 a1       	ldd	r23, Y+32	; 0x20
    1c0a:	89 a1       	ldd	r24, Y+33	; 0x21
    1c0c:	9a a1       	ldd	r25, Y+34	; 0x22
    1c0e:	0e 94 ba 39 	call	0x7374	; 0x7374 <__gesf2>
    1c12:	18 16       	cp	r1, r24
    1c14:	84 f5       	brge	.+96     	; 0x1c76 <main+0x966>
    1c16:	80 91 e0 41 	lds	r24, 0x41E0	; 0x8041e0 <_ZZ4mainE13maxPitchLevel>
    1c1a:	90 91 e1 41 	lds	r25, 0x41E1	; 0x8041e1 <_ZZ4mainE13maxPitchLevel+0x1>
    1c1e:	a0 91 e2 41 	lds	r26, 0x41E2	; 0x8041e2 <_ZZ4mainE13maxPitchLevel+0x2>
    1c22:	b0 91 e3 41 	lds	r27, 0x41E3	; 0x8041e3 <_ZZ4mainE13maxPitchLevel+0x3>
    1c26:	20 e0       	ldi	r18, 0x00	; 0
    1c28:	30 e0       	ldi	r19, 0x00	; 0
    1c2a:	40 ea       	ldi	r20, 0xA0	; 160
    1c2c:	50 e4       	ldi	r21, 0x40	; 64
    1c2e:	bc 01       	movw	r22, r24
    1c30:	cd 01       	movw	r24, r26
    1c32:	0e 94 17 3a 	call	0x742e	; 0x742e <__mulsf3>
    1c36:	dc 01       	movw	r26, r24
    1c38:	cb 01       	movw	r24, r22
    1c3a:	2f 8d       	ldd	r18, Y+31	; 0x1f
    1c3c:	38 a1       	ldd	r19, Y+32	; 0x20
    1c3e:	49 a1       	ldd	r20, Y+33	; 0x21
    1c40:	5a a1       	ldd	r21, Y+34	; 0x22
    1c42:	bc 01       	movw	r22, r24
    1c44:	cd 01       	movw	r24, r26
    1c46:	0e 94 9d 37 	call	0x6f3a	; 0x6f3a <__addsf3>
    1c4a:	dc 01       	movw	r26, r24
    1c4c:	cb 01       	movw	r24, r22
    1c4e:	20 e0       	ldi	r18, 0x00	; 0
    1c50:	30 e0       	ldi	r19, 0x00	; 0
    1c52:	40 ec       	ldi	r20, 0xC0	; 192
    1c54:	50 e4       	ldi	r21, 0x40	; 64
    1c56:	bc 01       	movw	r22, r24
    1c58:	cd 01       	movw	r24, r26
    1c5a:	0e 94 13 38 	call	0x7026	; 0x7026 <__divsf3>
    1c5e:	dc 01       	movw	r26, r24
    1c60:	cb 01       	movw	r24, r22
    1c62:	80 93 e0 41 	sts	0x41E0, r24	; 0x8041e0 <_ZZ4mainE13maxPitchLevel>
    1c66:	90 93 e1 41 	sts	0x41E1, r25	; 0x8041e1 <_ZZ4mainE13maxPitchLevel+0x1>
    1c6a:	a0 93 e2 41 	sts	0x41E2, r26	; 0x8041e2 <_ZZ4mainE13maxPitchLevel+0x2>
    1c6e:	b0 93 e3 41 	sts	0x41E3, r27	; 0x8041e3 <_ZZ4mainE13maxPitchLevel+0x3>
    1c72:	81 e0       	ldi	r24, 0x01	; 1
    1c74:	8a 8b       	std	Y+18, r24	; 0x12
    1c76:	80 91 1e 40 	lds	r24, 0x401E	; 0x80401e <_ZZ4mainE13minPitchLevel>
    1c7a:	90 91 1f 40 	lds	r25, 0x401F	; 0x80401f <_ZZ4mainE13minPitchLevel+0x1>
    1c7e:	a0 91 20 40 	lds	r26, 0x4020	; 0x804020 <_ZZ4mainE13minPitchLevel+0x2>
    1c82:	b0 91 21 40 	lds	r27, 0x4021	; 0x804021 <_ZZ4mainE13minPitchLevel+0x3>
    1c86:	9c 01       	movw	r18, r24
    1c88:	ad 01       	movw	r20, r26
    1c8a:	6f 8d       	ldd	r22, Y+31	; 0x1f
    1c8c:	78 a1       	ldd	r23, Y+32	; 0x20
    1c8e:	89 a1       	ldd	r24, Y+33	; 0x21
    1c90:	9a a1       	ldd	r25, Y+34	; 0x22
    1c92:	0e 94 09 38 	call	0x7012	; 0x7012 <__cmpsf2>
    1c96:	88 23       	and	r24, r24
    1c98:	84 f5       	brge	.+96     	; 0x1cfa <main+0x9ea>
    1c9a:	80 91 1e 40 	lds	r24, 0x401E	; 0x80401e <_ZZ4mainE13minPitchLevel>
    1c9e:	90 91 1f 40 	lds	r25, 0x401F	; 0x80401f <_ZZ4mainE13minPitchLevel+0x1>
    1ca2:	a0 91 20 40 	lds	r26, 0x4020	; 0x804020 <_ZZ4mainE13minPitchLevel+0x2>
    1ca6:	b0 91 21 40 	lds	r27, 0x4021	; 0x804021 <_ZZ4mainE13minPitchLevel+0x3>
    1caa:	20 e0       	ldi	r18, 0x00	; 0
    1cac:	30 e0       	ldi	r19, 0x00	; 0
    1cae:	40 ea       	ldi	r20, 0xA0	; 160
    1cb0:	50 e4       	ldi	r21, 0x40	; 64
    1cb2:	bc 01       	movw	r22, r24
    1cb4:	cd 01       	movw	r24, r26
    1cb6:	0e 94 17 3a 	call	0x742e	; 0x742e <__mulsf3>
    1cba:	dc 01       	movw	r26, r24
    1cbc:	cb 01       	movw	r24, r22
    1cbe:	2f 8d       	ldd	r18, Y+31	; 0x1f
    1cc0:	38 a1       	ldd	r19, Y+32	; 0x20
    1cc2:	49 a1       	ldd	r20, Y+33	; 0x21
    1cc4:	5a a1       	ldd	r21, Y+34	; 0x22
    1cc6:	bc 01       	movw	r22, r24
    1cc8:	cd 01       	movw	r24, r26
    1cca:	0e 94 9d 37 	call	0x6f3a	; 0x6f3a <__addsf3>
    1cce:	dc 01       	movw	r26, r24
    1cd0:	cb 01       	movw	r24, r22
    1cd2:	20 e0       	ldi	r18, 0x00	; 0
    1cd4:	30 e0       	ldi	r19, 0x00	; 0
    1cd6:	40 ec       	ldi	r20, 0xC0	; 192
    1cd8:	50 e4       	ldi	r21, 0x40	; 64
    1cda:	bc 01       	movw	r22, r24
    1cdc:	cd 01       	movw	r24, r26
    1cde:	0e 94 13 38 	call	0x7026	; 0x7026 <__divsf3>
    1ce2:	dc 01       	movw	r26, r24
    1ce4:	cb 01       	movw	r24, r22
    1ce6:	80 93 1e 40 	sts	0x401E, r24	; 0x80401e <_ZZ4mainE13minPitchLevel>
    1cea:	90 93 1f 40 	sts	0x401F, r25	; 0x80401f <_ZZ4mainE13minPitchLevel+0x1>
    1cee:	a0 93 20 40 	sts	0x4020, r26	; 0x804020 <_ZZ4mainE13minPitchLevel+0x2>
    1cf2:	b0 93 21 40 	sts	0x4021, r27	; 0x804021 <_ZZ4mainE13minPitchLevel+0x3>
    1cf6:	81 e0       	ldi	r24, 0x01	; 1
    1cf8:	8b 8b       	std	Y+19, r24	; 0x13
    1cfa:	9a 89       	ldd	r25, Y+18	; 0x12
    1cfc:	81 e0       	ldi	r24, 0x01	; 1
    1cfe:	89 27       	eor	r24, r25
    1d00:	88 23       	and	r24, r24
    1d02:	09 f4       	brne	.+2      	; 0x1d06 <main+0x9f6>
    1d04:	63 c0       	rjmp	.+198    	; 0x1dcc <main+0xabc>
    1d06:	9b 89       	ldd	r25, Y+19	; 0x13
    1d08:	81 e0       	ldi	r24, 0x01	; 1
    1d0a:	89 27       	eor	r24, r25
    1d0c:	88 23       	and	r24, r24
    1d0e:	09 f4       	brne	.+2      	; 0x1d12 <main+0xa02>
    1d10:	5d c0       	rjmp	.+186    	; 0x1dcc <main+0xabc>
    1d12:	80 91 e0 41 	lds	r24, 0x41E0	; 0x8041e0 <_ZZ4mainE13maxPitchLevel>
    1d16:	90 91 e1 41 	lds	r25, 0x41E1	; 0x8041e1 <_ZZ4mainE13maxPitchLevel+0x1>
    1d1a:	a0 91 e2 41 	lds	r26, 0x41E2	; 0x8041e2 <_ZZ4mainE13maxPitchLevel+0x2>
    1d1e:	b0 91 e3 41 	lds	r27, 0x41E3	; 0x8041e3 <_ZZ4mainE13maxPitchLevel+0x3>
    1d22:	20 e0       	ldi	r18, 0x00	; 0
    1d24:	30 e0       	ldi	r19, 0x00	; 0
    1d26:	48 e4       	ldi	r20, 0x48	; 72
    1d28:	52 e4       	ldi	r21, 0x42	; 66
    1d2a:	bc 01       	movw	r22, r24
    1d2c:	cd 01       	movw	r24, r26
    1d2e:	0e 94 17 3a 	call	0x742e	; 0x742e <__mulsf3>
    1d32:	dc 01       	movw	r26, r24
    1d34:	cb 01       	movw	r24, r22
    1d36:	2f 8d       	ldd	r18, Y+31	; 0x1f
    1d38:	38 a1       	ldd	r19, Y+32	; 0x20
    1d3a:	49 a1       	ldd	r20, Y+33	; 0x21
    1d3c:	5a a1       	ldd	r21, Y+34	; 0x22
    1d3e:	bc 01       	movw	r22, r24
    1d40:	cd 01       	movw	r24, r26
    1d42:	0e 94 9d 37 	call	0x6f3a	; 0x6f3a <__addsf3>
    1d46:	dc 01       	movw	r26, r24
    1d48:	cb 01       	movw	r24, r22
    1d4a:	20 e0       	ldi	r18, 0x00	; 0
    1d4c:	30 e0       	ldi	r19, 0x00	; 0
    1d4e:	4c e4       	ldi	r20, 0x4C	; 76
    1d50:	52 e4       	ldi	r21, 0x42	; 66
    1d52:	bc 01       	movw	r22, r24
    1d54:	cd 01       	movw	r24, r26
    1d56:	0e 94 13 38 	call	0x7026	; 0x7026 <__divsf3>
    1d5a:	dc 01       	movw	r26, r24
    1d5c:	cb 01       	movw	r24, r22
    1d5e:	80 93 e0 41 	sts	0x41E0, r24	; 0x8041e0 <_ZZ4mainE13maxPitchLevel>
    1d62:	90 93 e1 41 	sts	0x41E1, r25	; 0x8041e1 <_ZZ4mainE13maxPitchLevel+0x1>
    1d66:	a0 93 e2 41 	sts	0x41E2, r26	; 0x8041e2 <_ZZ4mainE13maxPitchLevel+0x2>
    1d6a:	b0 93 e3 41 	sts	0x41E3, r27	; 0x8041e3 <_ZZ4mainE13maxPitchLevel+0x3>
    1d6e:	80 91 1e 40 	lds	r24, 0x401E	; 0x80401e <_ZZ4mainE13minPitchLevel>
    1d72:	90 91 1f 40 	lds	r25, 0x401F	; 0x80401f <_ZZ4mainE13minPitchLevel+0x1>
    1d76:	a0 91 20 40 	lds	r26, 0x4020	; 0x804020 <_ZZ4mainE13minPitchLevel+0x2>
    1d7a:	b0 91 21 40 	lds	r27, 0x4021	; 0x804021 <_ZZ4mainE13minPitchLevel+0x3>
    1d7e:	20 e0       	ldi	r18, 0x00	; 0
    1d80:	30 e0       	ldi	r19, 0x00	; 0
    1d82:	48 e4       	ldi	r20, 0x48	; 72
    1d84:	52 e4       	ldi	r21, 0x42	; 66
    1d86:	bc 01       	movw	r22, r24
    1d88:	cd 01       	movw	r24, r26
    1d8a:	0e 94 17 3a 	call	0x742e	; 0x742e <__mulsf3>
    1d8e:	dc 01       	movw	r26, r24
    1d90:	cb 01       	movw	r24, r22
    1d92:	2f 8d       	ldd	r18, Y+31	; 0x1f
    1d94:	38 a1       	ldd	r19, Y+32	; 0x20
    1d96:	49 a1       	ldd	r20, Y+33	; 0x21
    1d98:	5a a1       	ldd	r21, Y+34	; 0x22
    1d9a:	bc 01       	movw	r22, r24
    1d9c:	cd 01       	movw	r24, r26
    1d9e:	0e 94 9d 37 	call	0x6f3a	; 0x6f3a <__addsf3>
    1da2:	dc 01       	movw	r26, r24
    1da4:	cb 01       	movw	r24, r22
    1da6:	20 e0       	ldi	r18, 0x00	; 0
    1da8:	30 e0       	ldi	r19, 0x00	; 0
    1daa:	4c e4       	ldi	r20, 0x4C	; 76
    1dac:	52 e4       	ldi	r21, 0x42	; 66
    1dae:	bc 01       	movw	r22, r24
    1db0:	cd 01       	movw	r24, r26
    1db2:	0e 94 13 38 	call	0x7026	; 0x7026 <__divsf3>
    1db6:	dc 01       	movw	r26, r24
    1db8:	cb 01       	movw	r24, r22
    1dba:	80 93 1e 40 	sts	0x401E, r24	; 0x80401e <_ZZ4mainE13minPitchLevel>
    1dbe:	90 93 1f 40 	sts	0x401F, r25	; 0x80401f <_ZZ4mainE13minPitchLevel+0x1>
    1dc2:	a0 93 20 40 	sts	0x4020, r26	; 0x804020 <_ZZ4mainE13minPitchLevel+0x2>
    1dc6:	b0 93 21 40 	sts	0x4021, r27	; 0x804021 <_ZZ4mainE13minPitchLevel+0x3>
    1dca:	24 c0       	rjmp	.+72     	; 0x1e14 <main+0xb04>
    1dcc:	80 91 e0 41 	lds	r24, 0x41E0	; 0x8041e0 <_ZZ4mainE13maxPitchLevel>
    1dd0:	90 91 e1 41 	lds	r25, 0x41E1	; 0x8041e1 <_ZZ4mainE13maxPitchLevel+0x1>
    1dd4:	a0 91 e2 41 	lds	r26, 0x41E2	; 0x8041e2 <_ZZ4mainE13maxPitchLevel+0x2>
    1dd8:	b0 91 e3 41 	lds	r27, 0x41E3	; 0x8041e3 <_ZZ4mainE13maxPitchLevel+0x3>
    1ddc:	20 91 1e 40 	lds	r18, 0x401E	; 0x80401e <_ZZ4mainE13minPitchLevel>
    1de0:	30 91 1f 40 	lds	r19, 0x401F	; 0x80401f <_ZZ4mainE13minPitchLevel+0x1>
    1de4:	40 91 20 40 	lds	r20, 0x4020	; 0x804020 <_ZZ4mainE13minPitchLevel+0x2>
    1de8:	50 91 21 40 	lds	r21, 0x4021	; 0x804021 <_ZZ4mainE13minPitchLevel+0x3>
    1dec:	bc 01       	movw	r22, r24
    1dee:	cd 01       	movw	r24, r26
    1df0:	0e 94 9d 37 	call	0x6f3a	; 0x6f3a <__addsf3>
    1df4:	dc 01       	movw	r26, r24
    1df6:	cb 01       	movw	r24, r22
    1df8:	20 e0       	ldi	r18, 0x00	; 0
    1dfa:	30 e0       	ldi	r19, 0x00	; 0
    1dfc:	40 e0       	ldi	r20, 0x00	; 0
    1dfe:	50 e4       	ldi	r21, 0x40	; 64
    1e00:	bc 01       	movw	r22, r24
    1e02:	cd 01       	movw	r24, r26
    1e04:	0e 94 13 38 	call	0x7026	; 0x7026 <__divsf3>
    1e08:	dc 01       	movw	r26, r24
    1e0a:	cb 01       	movw	r24, r22
    1e0c:	8e 87       	std	Y+14, r24	; 0x0e
    1e0e:	9f 87       	std	Y+15, r25	; 0x0f
    1e10:	a8 8b       	std	Y+16, r26	; 0x10
    1e12:	b9 8b       	std	Y+17, r27	; 0x11
    1e14:	2e 85       	ldd	r18, Y+14	; 0x0e
    1e16:	3f 85       	ldd	r19, Y+15	; 0x0f
    1e18:	48 89       	ldd	r20, Y+16	; 0x10
    1e1a:	59 89       	ldd	r21, Y+17	; 0x11
    1e1c:	6f 8d       	ldd	r22, Y+31	; 0x1f
    1e1e:	78 a1       	ldd	r23, Y+32	; 0x20
    1e20:	89 a1       	ldd	r24, Y+33	; 0x21
    1e22:	9a a1       	ldd	r25, Y+34	; 0x22
    1e24:	0e 94 ba 39 	call	0x7374	; 0x7374 <__gesf2>
    1e28:	18 16       	cp	r1, r24
    1e2a:	34 f5       	brge	.+76     	; 0x1e78 <main+0xb68>
    1e2c:	80 91 e0 41 	lds	r24, 0x41E0	; 0x8041e0 <_ZZ4mainE13maxPitchLevel>
    1e30:	90 91 e1 41 	lds	r25, 0x41E1	; 0x8041e1 <_ZZ4mainE13maxPitchLevel+0x1>
    1e34:	a0 91 e2 41 	lds	r26, 0x41E2	; 0x8041e2 <_ZZ4mainE13maxPitchLevel+0x2>
    1e38:	b0 91 e3 41 	lds	r27, 0x41E3	; 0x8041e3 <_ZZ4mainE13maxPitchLevel+0x3>
    1e3c:	bc 01       	movw	r22, r24
    1e3e:	cd 01       	movw	r24, r26
    1e40:	0e 94 bf 39 	call	0x737e	; 0x737e <log10>
    1e44:	dc 01       	movw	r26, r24
    1e46:	cb 01       	movw	r24, r22
    1e48:	20 e0       	ldi	r18, 0x00	; 0
    1e4a:	30 e0       	ldi	r19, 0x00	; 0
    1e4c:	40 e2       	ldi	r20, 0x20	; 32
    1e4e:	51 e4       	ldi	r21, 0x41	; 65
    1e50:	bc 01       	movw	r22, r24
    1e52:	cd 01       	movw	r24, r26
    1e54:	0e 94 17 3a 	call	0x742e	; 0x742e <__mulsf3>
    1e58:	dc 01       	movw	r26, r24
    1e5a:	cb 01       	movw	r24, r22
    1e5c:	bc 01       	movw	r22, r24
    1e5e:	cd 01       	movw	r24, r26
    1e60:	0e 94 8c 38 	call	0x7118	; 0x7118 <__fixunssfsi>
    1e64:	dc 01       	movw	r26, r24
    1e66:	cb 01       	movw	r24, r22
    1e68:	80 93 67 41 	sts	0x4167, r24	; 0x804167 <g_goertzel_rssi>
    1e6c:	90 93 68 41 	sts	0x4168, r25	; 0x804168 <g_goertzel_rssi+0x1>
    1e70:	a0 93 69 41 	sts	0x4169, r26	; 0x804169 <g_goertzel_rssi+0x2>
    1e74:	b0 93 6a 41 	sts	0x416A, r27	; 0x80416a <g_goertzel_rssi+0x3>
    1e78:	80 91 5c 41 	lds	r24, 0x415C	; 0x80415c <_ZL17g_go_to_sleep_now>
    1e7c:	88 23       	and	r24, r24
    1e7e:	09 f4       	brne	.+2      	; 0x1e82 <main+0xb72>
    1e80:	5c cb       	rjmp	.-2376   	; 0x153a <main+0x22a>
    1e82:	8b e8       	ldi	r24, 0x8B	; 139
    1e84:	91 e4       	ldi	r25, 0x41	; 65
    1e86:	0e 94 72 25 	call	0x4ae4	; 0x4ae4 <_ZN4leds10deactivateEv>
    1e8a:	0e 94 ed 08 	call	0x11da	; 0x11da <_Z11powerDown5Vv>
    1e8e:	0e 94 1f 1e 	call	0x3c3e	; 0x3c3e <system_sleep_settings>
    1e92:	82 e0       	ldi	r24, 0x02	; 2
    1e94:	90 e0       	ldi	r25, 0x00	; 0
    1e96:	0e 94 fe 32 	call	0x65fc	; 0x65fc <SLPCTRL_set_sleep_mode>
    1e9a:	81 e0       	ldi	r24, 0x01	; 1
    1e9c:	80 93 5d 41 	sts	0x415D, r24	; 0x80415d <_ZL10g_sleeping>
    1ea0:	10 92 09 40 	sts	0x4009, r1	; 0x804009 <_ZL12g_awakenedBy>
    1ea4:	10 92 0a 40 	sts	0x400A, r1	; 0x80400a <_ZL12g_awakenedBy+0x1>
    1ea8:	80 91 5c 41 	lds	r24, 0x415C	; 0x80415c <_ZL17g_go_to_sleep_now>
    1eac:	88 23       	and	r24, r24
    1eae:	09 f1       	breq	.+66     	; 0x1ef2 <main+0xbe2>
    1eb0:	80 e5       	ldi	r24, 0x50	; 80
    1eb2:	90 e0       	ldi	r25, 0x00	; 0
    1eb4:	fc 01       	movw	r30, r24
    1eb6:	80 81       	ld	r24, Z
    1eb8:	89 7f       	andi	r24, 0xF9	; 249
    1eba:	28 2f       	mov	r18, r24
    1ebc:	22 60       	ori	r18, 0x02	; 2
    1ebe:	80 e5       	ldi	r24, 0x50	; 80
    1ec0:	90 e0       	ldi	r25, 0x00	; 0
    1ec2:	fc 01       	movw	r30, r24
    1ec4:	20 83       	st	Z, r18
    1ec6:	f8 94       	cli
    1ec8:	80 e5       	ldi	r24, 0x50	; 80
    1eca:	90 e0       	ldi	r25, 0x00	; 0
    1ecc:	fc 01       	movw	r30, r24
    1ece:	20 81       	ld	r18, Z
    1ed0:	80 e5       	ldi	r24, 0x50	; 80
    1ed2:	90 e0       	ldi	r25, 0x00	; 0
    1ed4:	21 60       	ori	r18, 0x01	; 1
    1ed6:	fc 01       	movw	r30, r24
    1ed8:	20 83       	st	Z, r18
    1eda:	78 94       	sei
    1edc:	88 95       	sleep
    1ede:	80 e5       	ldi	r24, 0x50	; 80
    1ee0:	90 e0       	ldi	r25, 0x00	; 0
    1ee2:	fc 01       	movw	r30, r24
    1ee4:	20 81       	ld	r18, Z
    1ee6:	80 e5       	ldi	r24, 0x50	; 80
    1ee8:	90 e0       	ldi	r25, 0x00	; 0
    1eea:	2e 7f       	andi	r18, 0xFE	; 254
    1eec:	fc 01       	movw	r30, r24
    1eee:	20 83       	st	Z, r18
    1ef0:	db cf       	rjmp	.-74     	; 0x1ea8 <main+0xb98>
    1ef2:	10 92 5d 41 	sts	0x415D, r1	; 0x80415d <_ZL10g_sleeping>
    1ef6:	0e 94 1b 01 	call	0x236	; 0x236 <atmel_start_init>
    1efa:	0e 94 f9 08 	call	0x11f2	; 0x11f2 <_Z9powerUp5Vv>
    1efe:	0e 94 5c 36 	call	0x6cb8	; 0x6cb8 <_Z13init_receiverv>
    1f02:	80 91 09 40 	lds	r24, 0x4009	; 0x804009 <_ZL12g_awakenedBy>
    1f06:	90 91 0a 40 	lds	r25, 0x400A	; 0x80400a <_ZL12g_awakenedBy+0x1>
    1f0a:	8d ee       	ldi	r24, 0xED	; 237
    1f0c:	90 e0       	ldi	r25, 0x00	; 0
    1f0e:	80 93 48 41 	sts	0x4148, r24	; 0x804148 <_ZL18g_last_status_code>
    1f12:	90 93 49 41 	sts	0x4149, r25	; 0x804149 <_ZL18g_last_status_code+0x1>
    1f16:	11 cb       	rjmp	.-2526   	; 0x153a <main+0x22a>

00001f18 <_Z41__static_initialization_and_destruction_0ii>:
    1f18:	cf 93       	push	r28
    1f1a:	df 93       	push	r29
    1f1c:	00 d0       	rcall	.+0      	; 0x1f1e <_Z41__static_initialization_and_destruction_0ii+0x6>
    1f1e:	00 d0       	rcall	.+0      	; 0x1f20 <_Z41__static_initialization_and_destruction_0ii+0x8>
    1f20:	cd b7       	in	r28, 0x3d	; 61
    1f22:	de b7       	in	r29, 0x3e	; 62
    1f24:	89 83       	std	Y+1, r24	; 0x01
    1f26:	9a 83       	std	Y+2, r25	; 0x02
    1f28:	6b 83       	std	Y+3, r22	; 0x03
    1f2a:	7c 83       	std	Y+4, r23	; 0x04
    1f2c:	89 81       	ldd	r24, Y+1	; 0x01
    1f2e:	9a 81       	ldd	r25, Y+2	; 0x02
    1f30:	01 97       	sbiw	r24, 0x01	; 1
    1f32:	b1 f4       	brne	.+44     	; 0x1f60 <_Z41__static_initialization_and_destruction_0ii+0x48>
    1f34:	8b 81       	ldd	r24, Y+3	; 0x03
    1f36:	9c 81       	ldd	r25, Y+4	; 0x04
    1f38:	01 96       	adiw	r24, 0x01	; 1
    1f3a:	91 f4       	brne	.+36     	; 0x1f60 <_Z41__static_initialization_and_destruction_0ii+0x48>

volatile uint16_t g_check_temperature = 0;

Enunciation_t g_enunciator = LED_ONLY;

Display display = Display();
    1f3c:	80 e8       	ldi	r24, 0x80	; 128
    1f3e:	91 e4       	ldi	r25, 0x41	; 65
    1f40:	0e 94 c6 1a 	call	0x358c	; 0x358c <_ZN7DisplayC1Ev>
leds LEDS = leds();
    1f44:	8b e8       	ldi	r24, 0x8B	; 139
    1f46:	91 e4       	ldi	r25, 0x41	; 65
    1f48:	0e 94 b2 23 	call	0x4764	; 0x4764 <_ZN4ledsC1Ev>
CircularStringBuff g_text_buff = CircularStringBuff(TEXT_BUFF_SIZE);
    1f4c:	64 e6       	ldi	r22, 0x64	; 100
    1f4e:	70 e0       	ldi	r23, 0x00	; 0
    1f50:	8c e8       	ldi	r24, 0x8C	; 140
    1f52:	91 e4       	ldi	r25, 0x41	; 65
    1f54:	0e 94 8c 17 	call	0x2f18	; 0x2f18 <_ZN18CircularStringBuffC1Ej>

EepromManager g_ee_mgr;
    1f58:	86 e9       	ldi	r24, 0x96	; 150
    1f5a:	91 e4       	ldi	r25, 0x41	; 65
    1f5c:	0e 94 3b 1e 	call	0x3c76	; 0x3c76 <_ZN13EepromManagerC1Ev>
    1f60:	89 81       	ldd	r24, Y+1	; 0x01
    1f62:	9a 81       	ldd	r25, Y+2	; 0x02
    1f64:	89 2b       	or	r24, r25
    1f66:	81 f4       	brne	.+32     	; 0x1f88 <_Z41__static_initialization_and_destruction_0ii+0x70>
    1f68:	8b 81       	ldd	r24, Y+3	; 0x03
    1f6a:	9c 81       	ldd	r25, Y+4	; 0x04
    1f6c:	01 96       	adiw	r24, 0x01	; 1
    1f6e:	61 f4       	brne	.+24     	; 0x1f88 <_Z41__static_initialization_and_destruction_0ii+0x70>
    1f70:	86 e9       	ldi	r24, 0x96	; 150
    1f72:	91 e4       	ldi	r25, 0x41	; 65
    1f74:	0e 94 48 1e 	call	0x3c90	; 0x3c90 <_ZN13EepromManagerD1Ev>

Enunciation_t g_enunciator = LED_ONLY;

Display display = Display();
leds LEDS = leds();
CircularStringBuff g_text_buff = CircularStringBuff(TEXT_BUFF_SIZE);
    1f78:	8c e8       	ldi	r24, 0x8C	; 140
    1f7a:	91 e4       	ldi	r25, 0x41	; 65
    1f7c:	0e 94 c0 17 	call	0x2f80	; 0x2f80 <_ZN18CircularStringBuffD1Ev>
volatile uint16_t g_check_temperature = 0;

Enunciation_t g_enunciator = LED_ONLY;

Display display = Display();
leds LEDS = leds();
    1f80:	8b e8       	ldi	r24, 0x8B	; 139
    1f82:	91 e4       	ldi	r25, 0x41	; 65
    1f84:	0e 94 bf 23 	call	0x477e	; 0x477e <_ZN4ledsD1Ev>

  // Write new null terminator character
  end[1] = '\0';

  return str;
    1f88:	00 00       	nop
    1f8a:	24 96       	adiw	r28, 0x04	; 4
    1f8c:	cd bf       	out	0x3d, r28	; 61
    1f8e:	de bf       	out	0x3e, r29	; 62
    1f90:	df 91       	pop	r29
    1f92:	cf 91       	pop	r28
    1f94:	08 95       	ret

00001f96 <_GLOBAL__sub_I_g_seconds_transition>:
    1f96:	cf 93       	push	r28
    1f98:	df 93       	push	r29
    1f9a:	cd b7       	in	r28, 0x3d	; 61
    1f9c:	de b7       	in	r29, 0x3e	; 62
    1f9e:	6f ef       	ldi	r22, 0xFF	; 255
    1fa0:	7f ef       	ldi	r23, 0xFF	; 255
    1fa2:	81 e0       	ldi	r24, 0x01	; 1
    1fa4:	90 e0       	ldi	r25, 0x00	; 0
    1fa6:	0e 94 8c 0f 	call	0x1f18	; 0x1f18 <_Z41__static_initialization_and_destruction_0ii>
    1faa:	df 91       	pop	r29
    1fac:	cf 91       	pop	r28
    1fae:	08 95       	ret

00001fb0 <_GLOBAL__sub_D_g_seconds_transition>:
    1fb0:	cf 93       	push	r28
    1fb2:	df 93       	push	r29
    1fb4:	cd b7       	in	r28, 0x3d	; 61
    1fb6:	de b7       	in	r29, 0x3e	; 62
    1fb8:	6f ef       	ldi	r22, 0xFF	; 255
    1fba:	7f ef       	ldi	r23, 0xFF	; 255
    1fbc:	80 e0       	ldi	r24, 0x00	; 0
    1fbe:	90 e0       	ldi	r25, 0x00	; 0
    1fc0:	0e 94 8c 0f 	call	0x1f18	; 0x1f18 <_Z41__static_initialization_and_destruction_0ii>
    1fc4:	df 91       	pop	r29
    1fc6:	cf 91       	pop	r28
    1fc8:	08 95       	ret

00001fca <_Z18ADC0_setADCChannel20ADC_Active_Channel_t>:
	}
	
	ADC0.MUXPOS = holdMux; /* Restore ADC registers */
	
	return(temperature_in_C);
}
    1fca:	cf 93       	push	r28
    1fcc:	df 93       	push	r29
    1fce:	00 d0       	rcall	.+0      	; 0x1fd0 <_Z18ADC0_setADCChannel20ADC_Active_Channel_t+0x6>
    1fd0:	1f 92       	push	r1
    1fd2:	cd b7       	in	r28, 0x3d	; 61
    1fd4:	de b7       	in	r29, 0x3e	; 62
    1fd6:	8a 83       	std	Y+2, r24	; 0x02
    1fd8:	9b 83       	std	Y+3, r25	; 0x03
    1fda:	19 82       	std	Y+1, r1	; 0x01
    1fdc:	8a 81       	ldd	r24, Y+2	; 0x02
    1fde:	9b 81       	ldd	r25, Y+3	; 0x03
    1fe0:	09 2e       	mov	r0, r25
    1fe2:	00 0c       	add	r0, r0
    1fe4:	aa 0b       	sbc	r26, r26
    1fe6:	bb 0b       	sbc	r27, r27
    1fe8:	89 30       	cpi	r24, 0x09	; 9
    1fea:	91 05       	cpc	r25, r1
    1fec:	a1 05       	cpc	r26, r1
    1fee:	b1 05       	cpc	r27, r1
    1ff0:	08 f0       	brcs	.+2      	; 0x1ff4 <_Z18ADC0_setADCChannel20ADC_Active_Channel_t+0x2a>
    1ff2:	8d c0       	rjmp	.+282    	; 0x210e <_Z18ADC0_setADCChannel20ADC_Active_Channel_t+0x144>
    1ff4:	81 50       	subi	r24, 0x01	; 1
    1ff6:	90 4f       	sbci	r25, 0xF0	; 240
    1ff8:	fc 01       	movw	r30, r24
    1ffa:	0c 94 0d 3b 	jmp	0x761a	; 0x761a <__tablejump2__>
    1ffe:	08 10       	cpse	r0, r8
    2000:	18 10       	cpse	r1, r8
    2002:	29 10       	cpse	r2, r9
    2004:	3a 10       	cpse	r3, r10
    2006:	4b 10       	cpse	r4, r11
    2008:	5a 10       	cpse	r5, r10
    200a:	87 10       	cpse	r8, r7
    200c:	69 10       	cpse	r6, r9
    200e:	78 10       	cpse	r7, r8
    2010:	80 91 e5 41 	lds	r24, 0x41E5	; 0x8041e5 <_ZL20g_adc_initialization>
    2014:	90 91 e6 41 	lds	r25, 0x41E6	; 0x8041e6 <_ZL20g_adc_initialization+0x1>
    2018:	01 97       	sbiw	r24, 0x01	; 1
    201a:	29 f0       	breq	.+10     	; 0x2026 <_Z18ADC0_setADCChannel20ADC_Active_Channel_t+0x5c>
    201c:	81 e0       	ldi	r24, 0x01	; 1
    201e:	0e 94 78 11 	call	0x22f0	; 0x22f0 <_ZL16ADC0_SYSTEM_initb>
    2022:	81 e0       	ldi	r24, 0x01	; 1
    2024:	89 83       	std	Y+1, r24	; 0x01
    2026:	80 e0       	ldi	r24, 0x00	; 0
    2028:	96 e0       	ldi	r25, 0x06	; 6
    202a:	fc 01       	movw	r30, r24
    202c:	10 86       	std	Z+8, r1	; 0x08
    202e:	72 c0       	rjmp	.+228    	; 0x2114 <_Z18ADC0_setADCChannel20ADC_Active_Channel_t+0x14a>
    2030:	80 91 e5 41 	lds	r24, 0x41E5	; 0x8041e5 <_ZL20g_adc_initialization>
    2034:	90 91 e6 41 	lds	r25, 0x41E6	; 0x8041e6 <_ZL20g_adc_initialization+0x1>
    2038:	01 97       	sbiw	r24, 0x01	; 1
    203a:	29 f0       	breq	.+10     	; 0x2046 <_Z18ADC0_setADCChannel20ADC_Active_Channel_t+0x7c>
    203c:	81 e0       	ldi	r24, 0x01	; 1
    203e:	0e 94 78 11 	call	0x22f0	; 0x22f0 <_ZL16ADC0_SYSTEM_initb>
    2042:	81 e0       	ldi	r24, 0x01	; 1
    2044:	89 83       	std	Y+1, r24	; 0x01
    2046:	80 e0       	ldi	r24, 0x00	; 0
    2048:	96 e0       	ldi	r25, 0x06	; 6
    204a:	21 e0       	ldi	r18, 0x01	; 1
    204c:	fc 01       	movw	r30, r24
    204e:	20 87       	std	Z+8, r18	; 0x08
    2050:	61 c0       	rjmp	.+194    	; 0x2114 <_Z18ADC0_setADCChannel20ADC_Active_Channel_t+0x14a>
    2052:	80 91 e5 41 	lds	r24, 0x41E5	; 0x8041e5 <_ZL20g_adc_initialization>
    2056:	90 91 e6 41 	lds	r25, 0x41E6	; 0x8041e6 <_ZL20g_adc_initialization+0x1>
    205a:	01 97       	sbiw	r24, 0x01	; 1
    205c:	29 f0       	breq	.+10     	; 0x2068 <_Z18ADC0_setADCChannel20ADC_Active_Channel_t+0x9e>
    205e:	81 e0       	ldi	r24, 0x01	; 1
    2060:	0e 94 78 11 	call	0x22f0	; 0x22f0 <_ZL16ADC0_SYSTEM_initb>
    2064:	81 e0       	ldi	r24, 0x01	; 1
    2066:	89 83       	std	Y+1, r24	; 0x01
    2068:	80 e0       	ldi	r24, 0x00	; 0
    206a:	96 e0       	ldi	r25, 0x06	; 6
    206c:	22 e0       	ldi	r18, 0x02	; 2
    206e:	fc 01       	movw	r30, r24
    2070:	20 87       	std	Z+8, r18	; 0x08
    2072:	50 c0       	rjmp	.+160    	; 0x2114 <_Z18ADC0_setADCChannel20ADC_Active_Channel_t+0x14a>
    2074:	80 91 e5 41 	lds	r24, 0x41E5	; 0x8041e5 <_ZL20g_adc_initialization>
    2078:	90 91 e6 41 	lds	r25, 0x41E6	; 0x8041e6 <_ZL20g_adc_initialization+0x1>
    207c:	01 97       	sbiw	r24, 0x01	; 1
    207e:	29 f0       	breq	.+10     	; 0x208a <_Z18ADC0_setADCChannel20ADC_Active_Channel_t+0xc0>
    2080:	81 e0       	ldi	r24, 0x01	; 1
    2082:	0e 94 78 11 	call	0x22f0	; 0x22f0 <_ZL16ADC0_SYSTEM_initb>
    2086:	81 e0       	ldi	r24, 0x01	; 1
    2088:	89 83       	std	Y+1, r24	; 0x01
    208a:	80 e0       	ldi	r24, 0x00	; 0
    208c:	96 e0       	ldi	r25, 0x06	; 6
    208e:	23 e0       	ldi	r18, 0x03	; 3
    2090:	fc 01       	movw	r30, r24
    2092:	20 87       	std	Z+8, r18	; 0x08
    2094:	3f c0       	rjmp	.+126    	; 0x2114 <_Z18ADC0_setADCChannel20ADC_Active_Channel_t+0x14a>
    2096:	80 91 e5 41 	lds	r24, 0x41E5	; 0x8041e5 <_ZL20g_adc_initialization>
    209a:	90 91 e6 41 	lds	r25, 0x41E6	; 0x8041e6 <_ZL20g_adc_initialization+0x1>
    209e:	02 97       	sbiw	r24, 0x02	; 2
    20a0:	19 f0       	breq	.+6      	; 0x20a8 <_Z18ADC0_setADCChannel20ADC_Active_Channel_t+0xde>
    20a2:	80 e0       	ldi	r24, 0x00	; 0
    20a4:	0e 94 78 11 	call	0x22f0	; 0x22f0 <_ZL16ADC0_SYSTEM_initb>
    20a8:	80 e0       	ldi	r24, 0x00	; 0
    20aa:	96 e0       	ldi	r25, 0x06	; 6
    20ac:	24 e0       	ldi	r18, 0x04	; 4
    20ae:	fc 01       	movw	r30, r24
    20b0:	20 87       	std	Z+8, r18	; 0x08
    20b2:	30 c0       	rjmp	.+96     	; 0x2114 <_Z18ADC0_setADCChannel20ADC_Active_Channel_t+0x14a>
    20b4:	80 91 e5 41 	lds	r24, 0x41E5	; 0x8041e5 <_ZL20g_adc_initialization>
    20b8:	90 91 e6 41 	lds	r25, 0x41E6	; 0x8041e6 <_ZL20g_adc_initialization+0x1>
    20bc:	02 97       	sbiw	r24, 0x02	; 2
    20be:	19 f0       	breq	.+6      	; 0x20c6 <_Z18ADC0_setADCChannel20ADC_Active_Channel_t+0xfc>
    20c0:	80 e0       	ldi	r24, 0x00	; 0
    20c2:	0e 94 78 11 	call	0x22f0	; 0x22f0 <_ZL16ADC0_SYSTEM_initb>
    20c6:	80 e0       	ldi	r24, 0x00	; 0
    20c8:	96 e0       	ldi	r25, 0x06	; 6
    20ca:	25 e0       	ldi	r18, 0x05	; 5
    20cc:	fc 01       	movw	r30, r24
    20ce:	20 87       	std	Z+8, r18	; 0x08
    20d0:	21 c0       	rjmp	.+66     	; 0x2114 <_Z18ADC0_setADCChannel20ADC_Active_Channel_t+0x14a>
    20d2:	80 91 e5 41 	lds	r24, 0x41E5	; 0x8041e5 <_ZL20g_adc_initialization>
    20d6:	90 91 e6 41 	lds	r25, 0x41E6	; 0x8041e6 <_ZL20g_adc_initialization+0x1>
    20da:	02 97       	sbiw	r24, 0x02	; 2
    20dc:	19 f0       	breq	.+6      	; 0x20e4 <_Z18ADC0_setADCChannel20ADC_Active_Channel_t+0x11a>
    20de:	80 e0       	ldi	r24, 0x00	; 0
    20e0:	0e 94 78 11 	call	0x22f0	; 0x22f0 <_ZL16ADC0_SYSTEM_initb>
    20e4:	80 e0       	ldi	r24, 0x00	; 0
    20e6:	96 e0       	ldi	r25, 0x06	; 6
    20e8:	27 e0       	ldi	r18, 0x07	; 7
    20ea:	fc 01       	movw	r30, r24
    20ec:	20 87       	std	Z+8, r18	; 0x08
    20ee:	12 c0       	rjmp	.+36     	; 0x2114 <_Z18ADC0_setADCChannel20ADC_Active_Channel_t+0x14a>
    20f0:	80 91 e5 41 	lds	r24, 0x41E5	; 0x8041e5 <_ZL20g_adc_initialization>
    20f4:	90 91 e6 41 	lds	r25, 0x41E6	; 0x8041e6 <_ZL20g_adc_initialization+0x1>
    20f8:	02 97       	sbiw	r24, 0x02	; 2
    20fa:	19 f0       	breq	.+6      	; 0x2102 <_Z18ADC0_setADCChannel20ADC_Active_Channel_t+0x138>
    20fc:	80 e0       	ldi	r24, 0x00	; 0
    20fe:	0e 94 78 11 	call	0x22f0	; 0x22f0 <_ZL16ADC0_SYSTEM_initb>
    2102:	80 e0       	ldi	r24, 0x00	; 0
    2104:	96 e0       	ldi	r25, 0x06	; 6
    2106:	22 e4       	ldi	r18, 0x42	; 66
    2108:	fc 01       	movw	r30, r24
    210a:	20 87       	std	Z+8, r18	; 0x08
    210c:	03 c0       	rjmp	.+6      	; 0x2114 <_Z18ADC0_setADCChannel20ADC_Active_Channel_t+0x14a>
    210e:	0e 94 8a 11 	call	0x2314	; 0x2314 <_ZL20ADC0_SYSTEM_shutdownv>
    2112:	00 00       	nop
    2114:	89 81       	ldd	r24, Y+1	; 0x01
    2116:	23 96       	adiw	r28, 0x03	; 3
    2118:	cd bf       	out	0x3d, r28	; 61
    211a:	de bf       	out	0x3e, r29	; 62
    211c:	df 91       	pop	r29
    211e:	cf 91       	pop	r28
    2120:	08 95       	ret

00002122 <_Z20ADC0_startConversionv>:
    2122:	cf 93       	push	r28
    2124:	df 93       	push	r29
    2126:	cd b7       	in	r28, 0x3d	; 61
    2128:	de b7       	in	r29, 0x3e	; 62
    212a:	80 91 e5 41 	lds	r24, 0x41E5	; 0x8041e5 <_ZL20g_adc_initialization>
    212e:	90 91 e6 41 	lds	r25, 0x41E6	; 0x8041e6 <_ZL20g_adc_initialization+0x1>
    2132:	89 2b       	or	r24, r25
    2134:	29 f0       	breq	.+10     	; 0x2140 <_Z20ADC0_startConversionv+0x1e>
    2136:	80 e0       	ldi	r24, 0x00	; 0
    2138:	96 e0       	ldi	r25, 0x06	; 6
    213a:	21 e0       	ldi	r18, 0x01	; 1
    213c:	fc 01       	movw	r30, r24
    213e:	22 87       	std	Z+10, r18	; 0x0a
    2140:	00 00       	nop
    2142:	df 91       	pop	r29
    2144:	cf 91       	pop	r28
    2146:	08 95       	ret

00002148 <_Z19ADC0_conversionDonev>:
    2148:	cf 93       	push	r28
    214a:	df 93       	push	r29
    214c:	cd b7       	in	r28, 0x3d	; 61
    214e:	de b7       	in	r29, 0x3e	; 62
    2150:	80 e0       	ldi	r24, 0x00	; 0
    2152:	96 e0       	ldi	r25, 0x06	; 6
    2154:	fc 01       	movw	r30, r24
    2156:	85 85       	ldd	r24, Z+13	; 0x0d
    2158:	88 2f       	mov	r24, r24
    215a:	90 e0       	ldi	r25, 0x00	; 0
    215c:	81 70       	andi	r24, 0x01	; 1
    215e:	99 27       	eor	r25, r25
    2160:	21 e0       	ldi	r18, 0x01	; 1
    2162:	89 2b       	or	r24, r25
    2164:	09 f4       	brne	.+2      	; 0x2168 <_Z19ADC0_conversionDonev+0x20>
    2166:	20 e0       	ldi	r18, 0x00	; 0
    2168:	82 2f       	mov	r24, r18
    216a:	df 91       	pop	r29
    216c:	cf 91       	pop	r28
    216e:	08 95       	ret

00002170 <_Z9ADC0_readv>:
    2170:	cf 93       	push	r28
    2172:	df 93       	push	r29
    2174:	cd b7       	in	r28, 0x3d	; 61
    2176:	de b7       	in	r29, 0x3e	; 62
    2178:	80 e0       	ldi	r24, 0x00	; 0
    217a:	96 e0       	ldi	r25, 0x06	; 6
    217c:	fc 01       	movw	r30, r24
    217e:	80 89       	ldd	r24, Z+16	; 0x10
    2180:	91 89       	ldd	r25, Z+17	; 0x11
    2182:	df 91       	pop	r29
    2184:	cf 91       	pop	r28
    2186:	08 95       	ret

00002188 <_ZL9PORT_initv>:


static void PORT_init(void)
{
    2188:	cf 93       	push	r28
    218a:	df 93       	push	r29
    218c:	cd b7       	in	r28, 0x3d	; 61
    218e:	de b7       	in	r29, 0x3e	; 62
	/* Disable interrupt and digital input buffer on PD2 */
	PORTD.PIN2CTRL &= ~PORT_ISC_gm;
    2190:	80 e6       	ldi	r24, 0x60	; 96
    2192:	94 e0       	ldi	r25, 0x04	; 4
    2194:	fc 01       	movw	r30, r24
    2196:	22 89       	ldd	r18, Z+18	; 0x12
    2198:	80 e6       	ldi	r24, 0x60	; 96
    219a:	94 e0       	ldi	r25, 0x04	; 4
    219c:	28 7f       	andi	r18, 0xF8	; 248
    219e:	fc 01       	movw	r30, r24
    21a0:	22 8b       	std	Z+18, r18	; 0x12
	PORTD.PIN2CTRL |= PORT_ISC_INPUT_DISABLE_gc;
    21a2:	80 e6       	ldi	r24, 0x60	; 96
    21a4:	94 e0       	ldi	r25, 0x04	; 4
    21a6:	fc 01       	movw	r30, r24
    21a8:	22 89       	ldd	r18, Z+18	; 0x12
    21aa:	80 e6       	ldi	r24, 0x60	; 96
    21ac:	94 e0       	ldi	r25, 0x04	; 4
    21ae:	24 60       	ori	r18, 0x04	; 4
    21b0:	fc 01       	movw	r30, r24
    21b2:	22 8b       	std	Z+18, r18	; 0x12
	/* Disable interrupt and digital input buffer on PD3 */
	PORTD.PIN3CTRL &= ~PORT_ISC_gm;
    21b4:	80 e6       	ldi	r24, 0x60	; 96
    21b6:	94 e0       	ldi	r25, 0x04	; 4
    21b8:	fc 01       	movw	r30, r24
    21ba:	23 89       	ldd	r18, Z+19	; 0x13
    21bc:	80 e6       	ldi	r24, 0x60	; 96
    21be:	94 e0       	ldi	r25, 0x04	; 4
    21c0:	28 7f       	andi	r18, 0xF8	; 248
    21c2:	fc 01       	movw	r30, r24
    21c4:	23 8b       	std	Z+19, r18	; 0x13
	PORTD.PIN3CTRL |= PORT_ISC_INPUT_DISABLE_gc;
    21c6:	80 e6       	ldi	r24, 0x60	; 96
    21c8:	94 e0       	ldi	r25, 0x04	; 4
    21ca:	fc 01       	movw	r30, r24
    21cc:	23 89       	ldd	r18, Z+19	; 0x13
    21ce:	80 e6       	ldi	r24, 0x60	; 96
    21d0:	94 e0       	ldi	r25, 0x04	; 4
    21d2:	24 60       	ori	r18, 0x04	; 4
    21d4:	fc 01       	movw	r30, r24
    21d6:	23 8b       	std	Z+19, r18	; 0x13
	/* Disable interrupt and digital input buffer on PD4 */
	PORTD.PIN4CTRL &= ~PORT_ISC_gm;
    21d8:	80 e6       	ldi	r24, 0x60	; 96
    21da:	94 e0       	ldi	r25, 0x04	; 4
    21dc:	fc 01       	movw	r30, r24
    21de:	24 89       	ldd	r18, Z+20	; 0x14
    21e0:	80 e6       	ldi	r24, 0x60	; 96
    21e2:	94 e0       	ldi	r25, 0x04	; 4
    21e4:	28 7f       	andi	r18, 0xF8	; 248
    21e6:	fc 01       	movw	r30, r24
    21e8:	24 8b       	std	Z+20, r18	; 0x14
	PORTD.PIN4CTRL |= PORT_ISC_INPUT_DISABLE_gc;
    21ea:	80 e6       	ldi	r24, 0x60	; 96
    21ec:	94 e0       	ldi	r25, 0x04	; 4
    21ee:	fc 01       	movw	r30, r24
    21f0:	24 89       	ldd	r18, Z+20	; 0x14
    21f2:	80 e6       	ldi	r24, 0x60	; 96
    21f4:	94 e0       	ldi	r25, 0x04	; 4
    21f6:	24 60       	ori	r18, 0x04	; 4
    21f8:	fc 01       	movw	r30, r24
    21fa:	24 8b       	std	Z+20, r18	; 0x14
	/* Disable interrupt and digital input buffer on PD5 */
	PORTD.PIN5CTRL &= ~PORT_ISC_gm;
    21fc:	80 e6       	ldi	r24, 0x60	; 96
    21fe:	94 e0       	ldi	r25, 0x04	; 4
    2200:	fc 01       	movw	r30, r24
    2202:	25 89       	ldd	r18, Z+21	; 0x15
    2204:	80 e6       	ldi	r24, 0x60	; 96
    2206:	94 e0       	ldi	r25, 0x04	; 4
    2208:	28 7f       	andi	r18, 0xF8	; 248
    220a:	fc 01       	movw	r30, r24
    220c:	25 8b       	std	Z+21, r18	; 0x15
	PORTD.PIN5CTRL |= PORT_ISC_INPUT_DISABLE_gc;
    220e:	80 e6       	ldi	r24, 0x60	; 96
    2210:	94 e0       	ldi	r25, 0x04	; 4
    2212:	fc 01       	movw	r30, r24
    2214:	25 89       	ldd	r18, Z+21	; 0x15
    2216:	80 e6       	ldi	r24, 0x60	; 96
    2218:	94 e0       	ldi	r25, 0x04	; 4
    221a:	24 60       	ori	r18, 0x04	; 4
    221c:	fc 01       	movw	r30, r24
    221e:	25 8b       	std	Z+21, r18	; 0x15
	
	/* Disable pull-up resistor */
	PORTD.PIN2CTRL &= ~PORT_PULLUPEN_bm;
    2220:	80 e6       	ldi	r24, 0x60	; 96
    2222:	94 e0       	ldi	r25, 0x04	; 4
    2224:	fc 01       	movw	r30, r24
    2226:	22 89       	ldd	r18, Z+18	; 0x12
    2228:	80 e6       	ldi	r24, 0x60	; 96
    222a:	94 e0       	ldi	r25, 0x04	; 4
    222c:	27 7f       	andi	r18, 0xF7	; 247
    222e:	fc 01       	movw	r30, r24
    2230:	22 8b       	std	Z+18, r18	; 0x12
	PORTD.PIN3CTRL &= ~PORT_PULLUPEN_bm;
    2232:	80 e6       	ldi	r24, 0x60	; 96
    2234:	94 e0       	ldi	r25, 0x04	; 4
    2236:	fc 01       	movw	r30, r24
    2238:	23 89       	ldd	r18, Z+19	; 0x13
    223a:	80 e6       	ldi	r24, 0x60	; 96
    223c:	94 e0       	ldi	r25, 0x04	; 4
    223e:	27 7f       	andi	r18, 0xF7	; 247
    2240:	fc 01       	movw	r30, r24
    2242:	23 8b       	std	Z+19, r18	; 0x13
	PORTD.PIN4CTRL &= ~PORT_PULLUPEN_bm;
    2244:	80 e6       	ldi	r24, 0x60	; 96
    2246:	94 e0       	ldi	r25, 0x04	; 4
    2248:	fc 01       	movw	r30, r24
    224a:	24 89       	ldd	r18, Z+20	; 0x14
    224c:	80 e6       	ldi	r24, 0x60	; 96
    224e:	94 e0       	ldi	r25, 0x04	; 4
    2250:	27 7f       	andi	r18, 0xF7	; 247
    2252:	fc 01       	movw	r30, r24
    2254:	24 8b       	std	Z+20, r18	; 0x14
	PORTD.PIN5CTRL &= ~PORT_PULLUPEN_bm;
    2256:	80 e6       	ldi	r24, 0x60	; 96
    2258:	94 e0       	ldi	r25, 0x04	; 4
    225a:	fc 01       	movw	r30, r24
    225c:	25 89       	ldd	r18, Z+21	; 0x15
    225e:	80 e6       	ldi	r24, 0x60	; 96
    2260:	94 e0       	ldi	r25, 0x04	; 4
    2262:	27 7f       	andi	r18, 0xF7	; 247
    2264:	fc 01       	movw	r30, r24
    2266:	25 8b       	std	Z+21, r18	; 0x15
}
    2268:	00 00       	nop
    226a:	df 91       	pop	r29
    226c:	cf 91       	pop	r28
    226e:	08 95       	ret

00002270 <_ZL10VREF0_initv>:

static void VREF0_init(void)
{
    2270:	cf 93       	push	r28
    2272:	df 93       	push	r29
    2274:	cd b7       	in	r28, 0x3d	; 61
    2276:	de b7       	in	r29, 0x3e	; 62
	VREF.ADC0REF = VREF_REFSEL_2V048_gc;  /* Internal 2.048V reference */
    2278:	80 ea       	ldi	r24, 0xA0	; 160
    227a:	90 e0       	ldi	r25, 0x00	; 0
    227c:	21 e0       	ldi	r18, 0x01	; 1
    227e:	fc 01       	movw	r30, r24
    2280:	20 83       	st	Z, r18
}
    2282:	00 00       	nop
    2284:	df 91       	pop	r29
    2286:	cf 91       	pop	r28
    2288:	08 95       	ret

0000228a <_ZL9ADC0_initb>:

static void ADC0_init(bool freerun)
{
    228a:	cf 93       	push	r28
    228c:	df 93       	push	r29
    228e:	1f 92       	push	r1
    2290:	cd b7       	in	r28, 0x3d	; 61
    2292:	de b7       	in	r29, 0x3e	; 62
    2294:	89 83       	std	Y+1, r24	; 0x01
	ADC0.CTRLC = ADC_PRESC_DIV128_gc;   /* CLK_PER divided by 128 and by 13.5 (10-bit conversion time = 13889 sps */
    2296:	80 e0       	ldi	r24, 0x00	; 0
    2298:	96 e0       	ldi	r25, 0x06	; 6
    229a:	2c e0       	ldi	r18, 0x0C	; 12
    229c:	fc 01       	movw	r30, r24
    229e:	22 83       	std	Z+2, r18	; 0x02
	
	if(freerun)
    22a0:	89 81       	ldd	r24, Y+1	; 0x01
    22a2:	88 23       	and	r24, r24
    22a4:	89 f0       	breq	.+34     	; 0x22c8 <_ZL9ADC0_initb+0x3e>
	{
		ADC0.CTRLA = ADC_ENABLE_bm /* ADC Enable: enabled */
    22a6:	80 e0       	ldi	r24, 0x00	; 0
    22a8:	96 e0       	ldi	r25, 0x06	; 6
    22aa:	27 e0       	ldi	r18, 0x07	; 7
    22ac:	fc 01       	movw	r30, r24
    22ae:	20 83       	st	Z, r18
		| ADC_RESSEL_10BIT_gc      /* 12-bit mode */
		| ADC_FREERUN_bm;          /* Enable Free-Run mode */
		
		ADC0.INTCTRL = 0x01; /* Enable interrupt */
    22b0:	80 e0       	ldi	r24, 0x00	; 0
    22b2:	96 e0       	ldi	r25, 0x06	; 6
    22b4:	21 e0       	ldi	r18, 0x01	; 1
    22b6:	fc 01       	movw	r30, r24
    22b8:	24 87       	std	Z+12, r18	; 0x0c
		g_adc_initialization = ADC_FREE_RUN_INITIALIZED;
    22ba:	81 e0       	ldi	r24, 0x01	; 1
    22bc:	90 e0       	ldi	r25, 0x00	; 0
    22be:	80 93 e5 41 	sts	0x41E5, r24	; 0x8041e5 <_ZL20g_adc_initialization>
    22c2:	90 93 e6 41 	sts	0x41E6, r25	; 0x8041e6 <_ZL20g_adc_initialization+0x1>
		ADC0.CTRLA = ADC_ENABLE_bm /* ADC Enable: enabled */
		| ADC_RESSEL_12BIT_gc;      /* 12-bit mode */
		ADC0.INTCTRL = 0x00; /* Disable interrupt */
		g_adc_initialization = ADC_SINGLE_CONVERSION_INITIALIZED;
	}
}
    22c6:	0f c0       	rjmp	.+30     	; 0x22e6 <_ZL9ADC0_initb+0x5c>
		ADC0.INTCTRL = 0x01; /* Enable interrupt */
		g_adc_initialization = ADC_FREE_RUN_INITIALIZED;
	}
	else
	{
		ADC0.CTRLA = ADC_ENABLE_bm /* ADC Enable: enabled */
    22c8:	80 e0       	ldi	r24, 0x00	; 0
    22ca:	96 e0       	ldi	r25, 0x06	; 6
    22cc:	21 e0       	ldi	r18, 0x01	; 1
    22ce:	fc 01       	movw	r30, r24
    22d0:	20 83       	st	Z, r18
		| ADC_RESSEL_12BIT_gc;      /* 12-bit mode */
		ADC0.INTCTRL = 0x00; /* Disable interrupt */
    22d2:	80 e0       	ldi	r24, 0x00	; 0
    22d4:	96 e0       	ldi	r25, 0x06	; 6
    22d6:	fc 01       	movw	r30, r24
    22d8:	14 86       	std	Z+12, r1	; 0x0c
		g_adc_initialization = ADC_SINGLE_CONVERSION_INITIALIZED;
    22da:	82 e0       	ldi	r24, 0x02	; 2
    22dc:	90 e0       	ldi	r25, 0x00	; 0
    22de:	80 93 e5 41 	sts	0x41E5, r24	; 0x8041e5 <_ZL20g_adc_initialization>
    22e2:	90 93 e6 41 	sts	0x41E6, r25	; 0x8041e6 <_ZL20g_adc_initialization+0x1>
	}
}
    22e6:	00 00       	nop
    22e8:	0f 90       	pop	r0
    22ea:	df 91       	pop	r29
    22ec:	cf 91       	pop	r28
    22ee:	08 95       	ret

000022f0 <_ZL16ADC0_SYSTEM_initb>:

static void ADC0_SYSTEM_init(bool freerun)
{
    22f0:	cf 93       	push	r28
    22f2:	df 93       	push	r29
    22f4:	1f 92       	push	r1
    22f6:	cd b7       	in	r28, 0x3d	; 61
    22f8:	de b7       	in	r29, 0x3e	; 62
    22fa:	89 83       	std	Y+1, r24	; 0x01
	PORT_init();
    22fc:	0e 94 c4 10 	call	0x2188	; 0x2188 <_ZL9PORT_initv>
	VREF0_init();
    2300:	0e 94 38 11 	call	0x2270	; 0x2270 <_ZL10VREF0_initv>
	ADC0_init(freerun);
    2304:	89 81       	ldd	r24, Y+1	; 0x01
    2306:	0e 94 45 11 	call	0x228a	; 0x228a <_ZL9ADC0_initb>
}
    230a:	00 00       	nop
    230c:	0f 90       	pop	r0
    230e:	df 91       	pop	r29
    2310:	cf 91       	pop	r28
    2312:	08 95       	ret

00002314 <_ZL20ADC0_SYSTEM_shutdownv>:

static void ADC0_SYSTEM_shutdown(void)
{
    2314:	cf 93       	push	r28
    2316:	df 93       	push	r29
    2318:	cd b7       	in	r28, 0x3d	; 61
    231a:	de b7       	in	r29, 0x3e	; 62
	ADC0.INTCTRL = 0x00; /* Disable interrupt */
    231c:	80 e0       	ldi	r24, 0x00	; 0
    231e:	96 e0       	ldi	r25, 0x06	; 6
    2320:	fc 01       	movw	r30, r24
    2322:	14 86       	std	Z+12, r1	; 0x0c
	ADC0.CTRLA = ADC_RESSEL_12BIT_gc; /* Turn off ADC leaving 12-bit resolution set */
    2324:	80 e0       	ldi	r24, 0x00	; 0
    2326:	96 e0       	ldi	r25, 0x06	; 6
    2328:	fc 01       	movw	r30, r24
    232a:	10 82       	st	Z, r1
	g_adc_initialization = ADC_NOT_INITIALIZED;
    232c:	10 92 e5 41 	sts	0x41E5, r1	; 0x8041e5 <_ZL20g_adc_initialization>
    2330:	10 92 e6 41 	sts	0x41E6, r1	; 0x8041e6 <_ZL20g_adc_initialization+0x1>
}
    2334:	00 00       	nop
    2336:	df 91       	pop	r29
    2338:	cf 91       	pop	r28
    233a:	08 95       	ret

0000233c <_Z41__static_initialization_and_destruction_0ii>:
    233c:	0f 93       	push	r16
    233e:	1f 93       	push	r17
    2340:	cf 93       	push	r28
    2342:	df 93       	push	r29
    2344:	00 d0       	rcall	.+0      	; 0x2346 <_Z41__static_initialization_and_destruction_0ii+0xa>
    2346:	00 d0       	rcall	.+0      	; 0x2348 <_Z41__static_initialization_and_destruction_0ii+0xc>
    2348:	cd b7       	in	r28, 0x3d	; 61
    234a:	de b7       	in	r29, 0x3e	; 62
    234c:	89 83       	std	Y+1, r24	; 0x01
    234e:	9a 83       	std	Y+2, r25	; 0x02
    2350:	6b 83       	std	Y+3, r22	; 0x03
    2352:	7c 83       	std	Y+4, r23	; 0x04
    2354:	89 81       	ldd	r24, Y+1	; 0x01
    2356:	9a 81       	ldd	r25, Y+2	; 0x02
    2358:	01 97       	sbiw	r24, 0x01	; 1
    235a:	81 f4       	brne	.+32     	; 0x237c <_Z41__static_initialization_and_destruction_0ii+0x40>
    235c:	8b 81       	ldd	r24, Y+3	; 0x03
    235e:	9c 81       	ldd	r25, Y+4	; 0x04
    2360:	01 96       	adiw	r24, 0x01	; 1
    2362:	61 f4       	brne	.+24     	; 0x237c <_Z41__static_initialization_and_destruction_0ii+0x40>
	
#define FREE_RUNNING true
#define SINGLE_CONVERSION false
	
volatile int16_t g_adcVal;
Goertzel g_goertzel(N, sampling_freq);
    2364:	00 e0       	ldi	r16, 0x00	; 0
    2366:	14 e0       	ldi	r17, 0x04	; 4
    2368:	29 e5       	ldi	r18, 0x59	; 89
    236a:	36 e4       	ldi	r19, 0x46	; 70
    236c:	40 e0       	ldi	r20, 0x00	; 0
    236e:	50 e0       	ldi	r21, 0x00	; 0
    2370:	6a ec       	ldi	r22, 0xCA	; 202
    2372:	72 e4       	ldi	r23, 0x42	; 66
    2374:	84 ee       	ldi	r24, 0xE4	; 228
    2376:	91 e4       	ldi	r25, 0x41	; 65
    2378:	0e 94 68 1e 	call	0x3cd0	; 0x3cd0 <_ZN8GoertzelC1Eff>
    237c:	89 81       	ldd	r24, Y+1	; 0x01
    237e:	9a 81       	ldd	r25, Y+2	; 0x02
    2380:	89 2b       	or	r24, r25
    2382:	41 f4       	brne	.+16     	; 0x2394 <_Z41__static_initialization_and_destruction_0ii+0x58>
    2384:	8b 81       	ldd	r24, Y+3	; 0x03
    2386:	9c 81       	ldd	r25, Y+4	; 0x04
    2388:	01 96       	adiw	r24, 0x01	; 1
    238a:	21 f4       	brne	.+8      	; 0x2394 <_Z41__static_initialization_and_destruction_0ii+0x58>
    238c:	84 ee       	ldi	r24, 0xE4	; 228
    238e:	91 e4       	ldi	r25, 0x41	; 65
    2390:	0e 94 00 1f 	call	0x3e00	; 0x3e00 <_ZN8GoertzelD1Ev>
static void ADC0_SYSTEM_shutdown(void)
{
	ADC0.INTCTRL = 0x00; /* Disable interrupt */
	ADC0.CTRLA = ADC_RESSEL_12BIT_gc; /* Turn off ADC leaving 12-bit resolution set */
	g_adc_initialization = ADC_NOT_INITIALIZED;
}
    2394:	00 00       	nop
    2396:	24 96       	adiw	r28, 0x04	; 4
    2398:	cd bf       	out	0x3d, r28	; 61
    239a:	de bf       	out	0x3e, r29	; 62
    239c:	df 91       	pop	r29
    239e:	cf 91       	pop	r28
    23a0:	1f 91       	pop	r17
    23a2:	0f 91       	pop	r16
    23a4:	08 95       	ret

000023a6 <_GLOBAL__sub_I_g_adcVal>:
    23a6:	cf 93       	push	r28
    23a8:	df 93       	push	r29
    23aa:	cd b7       	in	r28, 0x3d	; 61
    23ac:	de b7       	in	r29, 0x3e	; 62
    23ae:	6f ef       	ldi	r22, 0xFF	; 255
    23b0:	7f ef       	ldi	r23, 0xFF	; 255
    23b2:	81 e0       	ldi	r24, 0x01	; 1
    23b4:	90 e0       	ldi	r25, 0x00	; 0
    23b6:	0e 94 9e 11 	call	0x233c	; 0x233c <_Z41__static_initialization_and_destruction_0ii>
    23ba:	df 91       	pop	r29
    23bc:	cf 91       	pop	r28
    23be:	08 95       	ret

000023c0 <_GLOBAL__sub_D_g_adcVal>:
    23c0:	cf 93       	push	r28
    23c2:	df 93       	push	r29
    23c4:	cd b7       	in	r28, 0x3d	; 61
    23c6:	de b7       	in	r29, 0x3e	; 62
    23c8:	6f ef       	ldi	r22, 0xFF	; 255
    23ca:	7f ef       	ldi	r23, 0xFF	; 255
    23cc:	80 e0       	ldi	r24, 0x00	; 0
    23ce:	90 e0       	ldi	r25, 0x00	; 0
    23d0:	0e 94 9e 11 	call	0x233c	; 0x233c <_Z41__static_initialization_and_destruction_0ii>
    23d4:	df 91       	pop	r29
    23d6:	cf 91       	pop	r28
    23d8:	08 95       	ret

000023da <PORTA_set_pin_pull_mode>:
}

uint8_t portFdebouncedVals(void)
{
	return portFdebounced;
}
    23da:	cf 93       	push	r28
    23dc:	df 93       	push	r29
    23de:	cd b7       	in	r28, 0x3d	; 61
    23e0:	de b7       	in	r29, 0x3e	; 62
    23e2:	25 97       	sbiw	r28, 0x05	; 5
    23e4:	cd bf       	out	0x3d, r28	; 61
    23e6:	de bf       	out	0x3e, r29	; 62
    23e8:	8b 83       	std	Y+3, r24	; 0x03
    23ea:	6c 83       	std	Y+4, r22	; 0x04
    23ec:	7d 83       	std	Y+5, r23	; 0x05
    23ee:	8b 81       	ldd	r24, Y+3	; 0x03
    23f0:	88 2f       	mov	r24, r24
    23f2:	90 e0       	ldi	r25, 0x00	; 0
    23f4:	80 5f       	subi	r24, 0xF0	; 240
    23f6:	9b 4f       	sbci	r25, 0xFB	; 251
    23f8:	89 83       	std	Y+1, r24	; 0x01
    23fa:	9a 83       	std	Y+2, r25	; 0x02
    23fc:	8c 81       	ldd	r24, Y+4	; 0x04
    23fe:	9d 81       	ldd	r25, Y+5	; 0x05
    2400:	01 97       	sbiw	r24, 0x01	; 1
    2402:	59 f4       	brne	.+22     	; 0x241a <PORTA_set_pin_pull_mode+0x40>
    2404:	89 81       	ldd	r24, Y+1	; 0x01
    2406:	9a 81       	ldd	r25, Y+2	; 0x02
    2408:	fc 01       	movw	r30, r24
    240a:	80 81       	ld	r24, Z
    240c:	28 2f       	mov	r18, r24
    240e:	28 60       	ori	r18, 0x08	; 8
    2410:	89 81       	ldd	r24, Y+1	; 0x01
    2412:	9a 81       	ldd	r25, Y+2	; 0x02
    2414:	fc 01       	movw	r30, r24
    2416:	20 83       	st	Z, r18
    2418:	0e c0       	rjmp	.+28     	; 0x2436 <PORTA_set_pin_pull_mode+0x5c>
    241a:	8c 81       	ldd	r24, Y+4	; 0x04
    241c:	9d 81       	ldd	r25, Y+5	; 0x05
    241e:	89 2b       	or	r24, r25
    2420:	51 f4       	brne	.+20     	; 0x2436 <PORTA_set_pin_pull_mode+0x5c>
    2422:	89 81       	ldd	r24, Y+1	; 0x01
    2424:	9a 81       	ldd	r25, Y+2	; 0x02
    2426:	fc 01       	movw	r30, r24
    2428:	80 81       	ld	r24, Z
    242a:	28 2f       	mov	r18, r24
    242c:	27 7f       	andi	r18, 0xF7	; 247
    242e:	89 81       	ldd	r24, Y+1	; 0x01
    2430:	9a 81       	ldd	r25, Y+2	; 0x02
    2432:	fc 01       	movw	r30, r24
    2434:	20 83       	st	Z, r18
    2436:	00 00       	nop
    2438:	25 96       	adiw	r28, 0x05	; 5
    243a:	cd bf       	out	0x3d, r28	; 61
    243c:	de bf       	out	0x3e, r29	; 62
    243e:	df 91       	pop	r29
    2440:	cf 91       	pop	r28
    2442:	08 95       	ret

00002444 <PORTA_set_pin_dir>:
    2444:	cf 93       	push	r28
    2446:	df 93       	push	r29
    2448:	00 d0       	rcall	.+0      	; 0x244a <PORTA_set_pin_dir+0x6>
    244a:	1f 92       	push	r1
    244c:	cd b7       	in	r28, 0x3d	; 61
    244e:	de b7       	in	r29, 0x3e	; 62
    2450:	89 83       	std	Y+1, r24	; 0x01
    2452:	6a 83       	std	Y+2, r22	; 0x02
    2454:	7b 83       	std	Y+3, r23	; 0x03
    2456:	8a 81       	ldd	r24, Y+2	; 0x02
    2458:	9b 81       	ldd	r25, Y+3	; 0x03
    245a:	81 30       	cpi	r24, 0x01	; 1
    245c:	91 05       	cpc	r25, r1
    245e:	e9 f0       	breq	.+58     	; 0x249a <PORTA_set_pin_dir+0x56>
    2460:	82 30       	cpi	r24, 0x02	; 2
    2462:	91 05       	cpc	r25, r1
    2464:	81 f1       	breq	.+96     	; 0x24c6 <PORTA_set_pin_dir+0x82>
    2466:	89 2b       	or	r24, r25
    2468:	09 f0       	breq	.+2      	; 0x246c <PORTA_set_pin_dir+0x28>
    246a:	3d c0       	rjmp	.+122    	; 0x24e6 <PORTA_set_pin_dir+0xa2>
    246c:	80 e0       	ldi	r24, 0x00	; 0
    246e:	90 e0       	ldi	r25, 0x00	; 0
    2470:	fc 01       	movw	r30, r24
    2472:	80 81       	ld	r24, Z
    2474:	48 2f       	mov	r20, r24
    2476:	89 81       	ldd	r24, Y+1	; 0x01
    2478:	28 2f       	mov	r18, r24
    247a:	30 e0       	ldi	r19, 0x00	; 0
    247c:	81 e0       	ldi	r24, 0x01	; 1
    247e:	90 e0       	ldi	r25, 0x00	; 0
    2480:	02 c0       	rjmp	.+4      	; 0x2486 <PORTA_set_pin_dir+0x42>
    2482:	88 0f       	add	r24, r24
    2484:	99 1f       	adc	r25, r25
    2486:	2a 95       	dec	r18
    2488:	e2 f7       	brpl	.-8      	; 0x2482 <PORTA_set_pin_dir+0x3e>
    248a:	80 95       	com	r24
    248c:	24 2f       	mov	r18, r20
    248e:	28 23       	and	r18, r24
    2490:	80 e0       	ldi	r24, 0x00	; 0
    2492:	90 e0       	ldi	r25, 0x00	; 0
    2494:	fc 01       	movw	r30, r24
    2496:	20 83       	st	Z, r18
    2498:	26 c0       	rjmp	.+76     	; 0x24e6 <PORTA_set_pin_dir+0xa2>
    249a:	80 e0       	ldi	r24, 0x00	; 0
    249c:	90 e0       	ldi	r25, 0x00	; 0
    249e:	fc 01       	movw	r30, r24
    24a0:	80 81       	ld	r24, Z
    24a2:	48 2f       	mov	r20, r24
    24a4:	89 81       	ldd	r24, Y+1	; 0x01
    24a6:	28 2f       	mov	r18, r24
    24a8:	30 e0       	ldi	r19, 0x00	; 0
    24aa:	81 e0       	ldi	r24, 0x01	; 1
    24ac:	90 e0       	ldi	r25, 0x00	; 0
    24ae:	02 c0       	rjmp	.+4      	; 0x24b4 <PORTA_set_pin_dir+0x70>
    24b0:	88 0f       	add	r24, r24
    24b2:	99 1f       	adc	r25, r25
    24b4:	2a 95       	dec	r18
    24b6:	e2 f7       	brpl	.-8      	; 0x24b0 <PORTA_set_pin_dir+0x6c>
    24b8:	24 2f       	mov	r18, r20
    24ba:	28 2b       	or	r18, r24
    24bc:	80 e0       	ldi	r24, 0x00	; 0
    24be:	90 e0       	ldi	r25, 0x00	; 0
    24c0:	fc 01       	movw	r30, r24
    24c2:	20 83       	st	Z, r18
    24c4:	10 c0       	rjmp	.+32     	; 0x24e6 <PORTA_set_pin_dir+0xa2>
    24c6:	89 81       	ldd	r24, Y+1	; 0x01
    24c8:	88 2f       	mov	r24, r24
    24ca:	90 e0       	ldi	r25, 0x00	; 0
    24cc:	80 5f       	subi	r24, 0xF0	; 240
    24ce:	9b 4f       	sbci	r25, 0xFB	; 251
    24d0:	fc 01       	movw	r30, r24
    24d2:	20 81       	ld	r18, Z
    24d4:	89 81       	ldd	r24, Y+1	; 0x01
    24d6:	88 2f       	mov	r24, r24
    24d8:	90 e0       	ldi	r25, 0x00	; 0
    24da:	80 5f       	subi	r24, 0xF0	; 240
    24dc:	9b 4f       	sbci	r25, 0xFB	; 251
    24de:	28 60       	ori	r18, 0x08	; 8
    24e0:	fc 01       	movw	r30, r24
    24e2:	20 83       	st	Z, r18
    24e4:	00 00       	nop
    24e6:	00 00       	nop
    24e8:	23 96       	adiw	r28, 0x03	; 3
    24ea:	cd bf       	out	0x3d, r28	; 61
    24ec:	de bf       	out	0x3e, r29	; 62
    24ee:	df 91       	pop	r29
    24f0:	cf 91       	pop	r28
    24f2:	08 95       	ret

000024f4 <PORTA_set_pin_level>:
    24f4:	cf 93       	push	r28
    24f6:	df 93       	push	r29
    24f8:	00 d0       	rcall	.+0      	; 0x24fa <PORTA_set_pin_level+0x6>
    24fa:	cd b7       	in	r28, 0x3d	; 61
    24fc:	de b7       	in	r29, 0x3e	; 62
    24fe:	89 83       	std	Y+1, r24	; 0x01
    2500:	6a 83       	std	Y+2, r22	; 0x02
    2502:	8a 81       	ldd	r24, Y+2	; 0x02
    2504:	88 23       	and	r24, r24
    2506:	b1 f0       	breq	.+44     	; 0x2534 <PORTA_set_pin_level+0x40>
    2508:	80 e0       	ldi	r24, 0x00	; 0
    250a:	90 e0       	ldi	r25, 0x00	; 0
    250c:	fc 01       	movw	r30, r24
    250e:	81 81       	ldd	r24, Z+1	; 0x01
    2510:	48 2f       	mov	r20, r24
    2512:	89 81       	ldd	r24, Y+1	; 0x01
    2514:	28 2f       	mov	r18, r24
    2516:	30 e0       	ldi	r19, 0x00	; 0
    2518:	81 e0       	ldi	r24, 0x01	; 1
    251a:	90 e0       	ldi	r25, 0x00	; 0
    251c:	02 c0       	rjmp	.+4      	; 0x2522 <PORTA_set_pin_level+0x2e>
    251e:	88 0f       	add	r24, r24
    2520:	99 1f       	adc	r25, r25
    2522:	2a 95       	dec	r18
    2524:	e2 f7       	brpl	.-8      	; 0x251e <PORTA_set_pin_level+0x2a>
    2526:	24 2f       	mov	r18, r20
    2528:	28 2b       	or	r18, r24
    252a:	80 e0       	ldi	r24, 0x00	; 0
    252c:	90 e0       	ldi	r25, 0x00	; 0
    252e:	fc 01       	movw	r30, r24
    2530:	21 83       	std	Z+1, r18	; 0x01
    2532:	16 c0       	rjmp	.+44     	; 0x2560 <PORTA_set_pin_level+0x6c>
    2534:	80 e0       	ldi	r24, 0x00	; 0
    2536:	90 e0       	ldi	r25, 0x00	; 0
    2538:	fc 01       	movw	r30, r24
    253a:	81 81       	ldd	r24, Z+1	; 0x01
    253c:	48 2f       	mov	r20, r24
    253e:	89 81       	ldd	r24, Y+1	; 0x01
    2540:	28 2f       	mov	r18, r24
    2542:	30 e0       	ldi	r19, 0x00	; 0
    2544:	81 e0       	ldi	r24, 0x01	; 1
    2546:	90 e0       	ldi	r25, 0x00	; 0
    2548:	02 c0       	rjmp	.+4      	; 0x254e <PORTA_set_pin_level+0x5a>
    254a:	88 0f       	add	r24, r24
    254c:	99 1f       	adc	r25, r25
    254e:	2a 95       	dec	r18
    2550:	e2 f7       	brpl	.-8      	; 0x254a <PORTA_set_pin_level+0x56>
    2552:	80 95       	com	r24
    2554:	24 2f       	mov	r18, r20
    2556:	28 23       	and	r18, r24
    2558:	80 e0       	ldi	r24, 0x00	; 0
    255a:	90 e0       	ldi	r25, 0x00	; 0
    255c:	fc 01       	movw	r30, r24
    255e:	21 83       	std	Z+1, r18	; 0x01
    2560:	00 00       	nop
    2562:	0f 90       	pop	r0
    2564:	0f 90       	pop	r0
    2566:	df 91       	pop	r29
    2568:	cf 91       	pop	r28
    256a:	08 95       	ret

0000256c <PORTA_get_port_level>:
    256c:	cf 93       	push	r28
    256e:	df 93       	push	r29
    2570:	cd b7       	in	r28, 0x3d	; 61
    2572:	de b7       	in	r29, 0x3e	; 62
    2574:	80 e0       	ldi	r24, 0x00	; 0
    2576:	90 e0       	ldi	r25, 0x00	; 0
    2578:	fc 01       	movw	r30, r24
    257a:	82 81       	ldd	r24, Z+2	; 0x02
    257c:	df 91       	pop	r29
    257e:	cf 91       	pop	r28
    2580:	08 95       	ret

00002582 <PORTB_set_pin_dir>:
    2582:	cf 93       	push	r28
    2584:	df 93       	push	r29
    2586:	00 d0       	rcall	.+0      	; 0x2588 <PORTB_set_pin_dir+0x6>
    2588:	1f 92       	push	r1
    258a:	cd b7       	in	r28, 0x3d	; 61
    258c:	de b7       	in	r29, 0x3e	; 62
    258e:	89 83       	std	Y+1, r24	; 0x01
    2590:	6a 83       	std	Y+2, r22	; 0x02
    2592:	7b 83       	std	Y+3, r23	; 0x03
    2594:	8a 81       	ldd	r24, Y+2	; 0x02
    2596:	9b 81       	ldd	r25, Y+3	; 0x03
    2598:	81 30       	cpi	r24, 0x01	; 1
    259a:	91 05       	cpc	r25, r1
    259c:	e9 f0       	breq	.+58     	; 0x25d8 <PORTB_set_pin_dir+0x56>
    259e:	82 30       	cpi	r24, 0x02	; 2
    25a0:	91 05       	cpc	r25, r1
    25a2:	81 f1       	breq	.+96     	; 0x2604 <PORTB_set_pin_dir+0x82>
    25a4:	89 2b       	or	r24, r25
    25a6:	09 f0       	breq	.+2      	; 0x25aa <PORTB_set_pin_dir+0x28>
    25a8:	3d c0       	rjmp	.+122    	; 0x2624 <PORTB_set_pin_dir+0xa2>
    25aa:	84 e0       	ldi	r24, 0x04	; 4
    25ac:	90 e0       	ldi	r25, 0x00	; 0
    25ae:	fc 01       	movw	r30, r24
    25b0:	80 81       	ld	r24, Z
    25b2:	48 2f       	mov	r20, r24
    25b4:	89 81       	ldd	r24, Y+1	; 0x01
    25b6:	28 2f       	mov	r18, r24
    25b8:	30 e0       	ldi	r19, 0x00	; 0
    25ba:	81 e0       	ldi	r24, 0x01	; 1
    25bc:	90 e0       	ldi	r25, 0x00	; 0
    25be:	02 c0       	rjmp	.+4      	; 0x25c4 <PORTB_set_pin_dir+0x42>
    25c0:	88 0f       	add	r24, r24
    25c2:	99 1f       	adc	r25, r25
    25c4:	2a 95       	dec	r18
    25c6:	e2 f7       	brpl	.-8      	; 0x25c0 <PORTB_set_pin_dir+0x3e>
    25c8:	80 95       	com	r24
    25ca:	24 2f       	mov	r18, r20
    25cc:	28 23       	and	r18, r24
    25ce:	84 e0       	ldi	r24, 0x04	; 4
    25d0:	90 e0       	ldi	r25, 0x00	; 0
    25d2:	fc 01       	movw	r30, r24
    25d4:	20 83       	st	Z, r18
    25d6:	26 c0       	rjmp	.+76     	; 0x2624 <PORTB_set_pin_dir+0xa2>
    25d8:	84 e0       	ldi	r24, 0x04	; 4
    25da:	90 e0       	ldi	r25, 0x00	; 0
    25dc:	fc 01       	movw	r30, r24
    25de:	80 81       	ld	r24, Z
    25e0:	48 2f       	mov	r20, r24
    25e2:	89 81       	ldd	r24, Y+1	; 0x01
    25e4:	28 2f       	mov	r18, r24
    25e6:	30 e0       	ldi	r19, 0x00	; 0
    25e8:	81 e0       	ldi	r24, 0x01	; 1
    25ea:	90 e0       	ldi	r25, 0x00	; 0
    25ec:	02 c0       	rjmp	.+4      	; 0x25f2 <PORTB_set_pin_dir+0x70>
    25ee:	88 0f       	add	r24, r24
    25f0:	99 1f       	adc	r25, r25
    25f2:	2a 95       	dec	r18
    25f4:	e2 f7       	brpl	.-8      	; 0x25ee <PORTB_set_pin_dir+0x6c>
    25f6:	24 2f       	mov	r18, r20
    25f8:	28 2b       	or	r18, r24
    25fa:	84 e0       	ldi	r24, 0x04	; 4
    25fc:	90 e0       	ldi	r25, 0x00	; 0
    25fe:	fc 01       	movw	r30, r24
    2600:	20 83       	st	Z, r18
    2602:	10 c0       	rjmp	.+32     	; 0x2624 <PORTB_set_pin_dir+0xa2>
    2604:	89 81       	ldd	r24, Y+1	; 0x01
    2606:	88 2f       	mov	r24, r24
    2608:	90 e0       	ldi	r25, 0x00	; 0
    260a:	80 5d       	subi	r24, 0xD0	; 208
    260c:	9b 4f       	sbci	r25, 0xFB	; 251
    260e:	fc 01       	movw	r30, r24
    2610:	20 81       	ld	r18, Z
    2612:	89 81       	ldd	r24, Y+1	; 0x01
    2614:	88 2f       	mov	r24, r24
    2616:	90 e0       	ldi	r25, 0x00	; 0
    2618:	80 5d       	subi	r24, 0xD0	; 208
    261a:	9b 4f       	sbci	r25, 0xFB	; 251
    261c:	28 60       	ori	r18, 0x08	; 8
    261e:	fc 01       	movw	r30, r24
    2620:	20 83       	st	Z, r18
    2622:	00 00       	nop
    2624:	00 00       	nop
    2626:	23 96       	adiw	r28, 0x03	; 3
    2628:	cd bf       	out	0x3d, r28	; 61
    262a:	de bf       	out	0x3e, r29	; 62
    262c:	df 91       	pop	r29
    262e:	cf 91       	pop	r28
    2630:	08 95       	ret

00002632 <PORTB_set_pin_level>:
    2632:	cf 93       	push	r28
    2634:	df 93       	push	r29
    2636:	00 d0       	rcall	.+0      	; 0x2638 <PORTB_set_pin_level+0x6>
    2638:	cd b7       	in	r28, 0x3d	; 61
    263a:	de b7       	in	r29, 0x3e	; 62
    263c:	89 83       	std	Y+1, r24	; 0x01
    263e:	6a 83       	std	Y+2, r22	; 0x02
    2640:	8a 81       	ldd	r24, Y+2	; 0x02
    2642:	88 23       	and	r24, r24
    2644:	b1 f0       	breq	.+44     	; 0x2672 <PORTB_set_pin_level+0x40>
    2646:	84 e0       	ldi	r24, 0x04	; 4
    2648:	90 e0       	ldi	r25, 0x00	; 0
    264a:	fc 01       	movw	r30, r24
    264c:	81 81       	ldd	r24, Z+1	; 0x01
    264e:	48 2f       	mov	r20, r24
    2650:	89 81       	ldd	r24, Y+1	; 0x01
    2652:	28 2f       	mov	r18, r24
    2654:	30 e0       	ldi	r19, 0x00	; 0
    2656:	81 e0       	ldi	r24, 0x01	; 1
    2658:	90 e0       	ldi	r25, 0x00	; 0
    265a:	02 c0       	rjmp	.+4      	; 0x2660 <PORTB_set_pin_level+0x2e>
    265c:	88 0f       	add	r24, r24
    265e:	99 1f       	adc	r25, r25
    2660:	2a 95       	dec	r18
    2662:	e2 f7       	brpl	.-8      	; 0x265c <PORTB_set_pin_level+0x2a>
    2664:	24 2f       	mov	r18, r20
    2666:	28 2b       	or	r18, r24
    2668:	84 e0       	ldi	r24, 0x04	; 4
    266a:	90 e0       	ldi	r25, 0x00	; 0
    266c:	fc 01       	movw	r30, r24
    266e:	21 83       	std	Z+1, r18	; 0x01
    2670:	16 c0       	rjmp	.+44     	; 0x269e <PORTB_set_pin_level+0x6c>
    2672:	84 e0       	ldi	r24, 0x04	; 4
    2674:	90 e0       	ldi	r25, 0x00	; 0
    2676:	fc 01       	movw	r30, r24
    2678:	81 81       	ldd	r24, Z+1	; 0x01
    267a:	48 2f       	mov	r20, r24
    267c:	89 81       	ldd	r24, Y+1	; 0x01
    267e:	28 2f       	mov	r18, r24
    2680:	30 e0       	ldi	r19, 0x00	; 0
    2682:	81 e0       	ldi	r24, 0x01	; 1
    2684:	90 e0       	ldi	r25, 0x00	; 0
    2686:	02 c0       	rjmp	.+4      	; 0x268c <PORTB_set_pin_level+0x5a>
    2688:	88 0f       	add	r24, r24
    268a:	99 1f       	adc	r25, r25
    268c:	2a 95       	dec	r18
    268e:	e2 f7       	brpl	.-8      	; 0x2688 <PORTB_set_pin_level+0x56>
    2690:	80 95       	com	r24
    2692:	24 2f       	mov	r18, r20
    2694:	28 23       	and	r18, r24
    2696:	84 e0       	ldi	r24, 0x04	; 4
    2698:	90 e0       	ldi	r25, 0x00	; 0
    269a:	fc 01       	movw	r30, r24
    269c:	21 83       	std	Z+1, r18	; 0x01
    269e:	00 00       	nop
    26a0:	0f 90       	pop	r0
    26a2:	0f 90       	pop	r0
    26a4:	df 91       	pop	r29
    26a6:	cf 91       	pop	r28
    26a8:	08 95       	ret

000026aa <PORTC_set_pin_pull_mode>:
    26aa:	cf 93       	push	r28
    26ac:	df 93       	push	r29
    26ae:	cd b7       	in	r28, 0x3d	; 61
    26b0:	de b7       	in	r29, 0x3e	; 62
    26b2:	25 97       	sbiw	r28, 0x05	; 5
    26b4:	cd bf       	out	0x3d, r28	; 61
    26b6:	de bf       	out	0x3e, r29	; 62
    26b8:	8b 83       	std	Y+3, r24	; 0x03
    26ba:	6c 83       	std	Y+4, r22	; 0x04
    26bc:	7d 83       	std	Y+5, r23	; 0x05
    26be:	8b 81       	ldd	r24, Y+3	; 0x03
    26c0:	88 2f       	mov	r24, r24
    26c2:	90 e0       	ldi	r25, 0x00	; 0
    26c4:	80 5b       	subi	r24, 0xB0	; 176
    26c6:	9b 4f       	sbci	r25, 0xFB	; 251
    26c8:	89 83       	std	Y+1, r24	; 0x01
    26ca:	9a 83       	std	Y+2, r25	; 0x02
    26cc:	8c 81       	ldd	r24, Y+4	; 0x04
    26ce:	9d 81       	ldd	r25, Y+5	; 0x05
    26d0:	01 97       	sbiw	r24, 0x01	; 1
    26d2:	59 f4       	brne	.+22     	; 0x26ea <PORTC_set_pin_pull_mode+0x40>
    26d4:	89 81       	ldd	r24, Y+1	; 0x01
    26d6:	9a 81       	ldd	r25, Y+2	; 0x02
    26d8:	fc 01       	movw	r30, r24
    26da:	80 81       	ld	r24, Z
    26dc:	28 2f       	mov	r18, r24
    26de:	28 60       	ori	r18, 0x08	; 8
    26e0:	89 81       	ldd	r24, Y+1	; 0x01
    26e2:	9a 81       	ldd	r25, Y+2	; 0x02
    26e4:	fc 01       	movw	r30, r24
    26e6:	20 83       	st	Z, r18
    26e8:	0e c0       	rjmp	.+28     	; 0x2706 <PORTC_set_pin_pull_mode+0x5c>
    26ea:	8c 81       	ldd	r24, Y+4	; 0x04
    26ec:	9d 81       	ldd	r25, Y+5	; 0x05
    26ee:	89 2b       	or	r24, r25
    26f0:	51 f4       	brne	.+20     	; 0x2706 <PORTC_set_pin_pull_mode+0x5c>
    26f2:	89 81       	ldd	r24, Y+1	; 0x01
    26f4:	9a 81       	ldd	r25, Y+2	; 0x02
    26f6:	fc 01       	movw	r30, r24
    26f8:	80 81       	ld	r24, Z
    26fa:	28 2f       	mov	r18, r24
    26fc:	27 7f       	andi	r18, 0xF7	; 247
    26fe:	89 81       	ldd	r24, Y+1	; 0x01
    2700:	9a 81       	ldd	r25, Y+2	; 0x02
    2702:	fc 01       	movw	r30, r24
    2704:	20 83       	st	Z, r18
    2706:	00 00       	nop
    2708:	25 96       	adiw	r28, 0x05	; 5
    270a:	cd bf       	out	0x3d, r28	; 61
    270c:	de bf       	out	0x3e, r29	; 62
    270e:	df 91       	pop	r29
    2710:	cf 91       	pop	r28
    2712:	08 95       	ret

00002714 <PORTC_set_pin_dir>:
    2714:	cf 93       	push	r28
    2716:	df 93       	push	r29
    2718:	00 d0       	rcall	.+0      	; 0x271a <PORTC_set_pin_dir+0x6>
    271a:	1f 92       	push	r1
    271c:	cd b7       	in	r28, 0x3d	; 61
    271e:	de b7       	in	r29, 0x3e	; 62
    2720:	89 83       	std	Y+1, r24	; 0x01
    2722:	6a 83       	std	Y+2, r22	; 0x02
    2724:	7b 83       	std	Y+3, r23	; 0x03
    2726:	8a 81       	ldd	r24, Y+2	; 0x02
    2728:	9b 81       	ldd	r25, Y+3	; 0x03
    272a:	81 30       	cpi	r24, 0x01	; 1
    272c:	91 05       	cpc	r25, r1
    272e:	e9 f0       	breq	.+58     	; 0x276a <PORTC_set_pin_dir+0x56>
    2730:	82 30       	cpi	r24, 0x02	; 2
    2732:	91 05       	cpc	r25, r1
    2734:	81 f1       	breq	.+96     	; 0x2796 <PORTC_set_pin_dir+0x82>
    2736:	89 2b       	or	r24, r25
    2738:	09 f0       	breq	.+2      	; 0x273c <PORTC_set_pin_dir+0x28>
    273a:	3d c0       	rjmp	.+122    	; 0x27b6 <PORTC_set_pin_dir+0xa2>
    273c:	88 e0       	ldi	r24, 0x08	; 8
    273e:	90 e0       	ldi	r25, 0x00	; 0
    2740:	fc 01       	movw	r30, r24
    2742:	80 81       	ld	r24, Z
    2744:	48 2f       	mov	r20, r24
    2746:	89 81       	ldd	r24, Y+1	; 0x01
    2748:	28 2f       	mov	r18, r24
    274a:	30 e0       	ldi	r19, 0x00	; 0
    274c:	81 e0       	ldi	r24, 0x01	; 1
    274e:	90 e0       	ldi	r25, 0x00	; 0
    2750:	02 c0       	rjmp	.+4      	; 0x2756 <PORTC_set_pin_dir+0x42>
    2752:	88 0f       	add	r24, r24
    2754:	99 1f       	adc	r25, r25
    2756:	2a 95       	dec	r18
    2758:	e2 f7       	brpl	.-8      	; 0x2752 <PORTC_set_pin_dir+0x3e>
    275a:	80 95       	com	r24
    275c:	24 2f       	mov	r18, r20
    275e:	28 23       	and	r18, r24
    2760:	88 e0       	ldi	r24, 0x08	; 8
    2762:	90 e0       	ldi	r25, 0x00	; 0
    2764:	fc 01       	movw	r30, r24
    2766:	20 83       	st	Z, r18
    2768:	26 c0       	rjmp	.+76     	; 0x27b6 <PORTC_set_pin_dir+0xa2>
    276a:	88 e0       	ldi	r24, 0x08	; 8
    276c:	90 e0       	ldi	r25, 0x00	; 0
    276e:	fc 01       	movw	r30, r24
    2770:	80 81       	ld	r24, Z
    2772:	48 2f       	mov	r20, r24
    2774:	89 81       	ldd	r24, Y+1	; 0x01
    2776:	28 2f       	mov	r18, r24
    2778:	30 e0       	ldi	r19, 0x00	; 0
    277a:	81 e0       	ldi	r24, 0x01	; 1
    277c:	90 e0       	ldi	r25, 0x00	; 0
    277e:	02 c0       	rjmp	.+4      	; 0x2784 <PORTC_set_pin_dir+0x70>
    2780:	88 0f       	add	r24, r24
    2782:	99 1f       	adc	r25, r25
    2784:	2a 95       	dec	r18
    2786:	e2 f7       	brpl	.-8      	; 0x2780 <PORTC_set_pin_dir+0x6c>
    2788:	24 2f       	mov	r18, r20
    278a:	28 2b       	or	r18, r24
    278c:	88 e0       	ldi	r24, 0x08	; 8
    278e:	90 e0       	ldi	r25, 0x00	; 0
    2790:	fc 01       	movw	r30, r24
    2792:	20 83       	st	Z, r18
    2794:	10 c0       	rjmp	.+32     	; 0x27b6 <PORTC_set_pin_dir+0xa2>
    2796:	89 81       	ldd	r24, Y+1	; 0x01
    2798:	88 2f       	mov	r24, r24
    279a:	90 e0       	ldi	r25, 0x00	; 0
    279c:	80 5b       	subi	r24, 0xB0	; 176
    279e:	9b 4f       	sbci	r25, 0xFB	; 251
    27a0:	fc 01       	movw	r30, r24
    27a2:	20 81       	ld	r18, Z
    27a4:	89 81       	ldd	r24, Y+1	; 0x01
    27a6:	88 2f       	mov	r24, r24
    27a8:	90 e0       	ldi	r25, 0x00	; 0
    27aa:	80 5b       	subi	r24, 0xB0	; 176
    27ac:	9b 4f       	sbci	r25, 0xFB	; 251
    27ae:	28 60       	ori	r18, 0x08	; 8
    27b0:	fc 01       	movw	r30, r24
    27b2:	20 83       	st	Z, r18
    27b4:	00 00       	nop
    27b6:	00 00       	nop
    27b8:	23 96       	adiw	r28, 0x03	; 3
    27ba:	cd bf       	out	0x3d, r28	; 61
    27bc:	de bf       	out	0x3e, r29	; 62
    27be:	df 91       	pop	r29
    27c0:	cf 91       	pop	r28
    27c2:	08 95       	ret

000027c4 <PORTC_set_pin_level>:
    27c4:	cf 93       	push	r28
    27c6:	df 93       	push	r29
    27c8:	00 d0       	rcall	.+0      	; 0x27ca <PORTC_set_pin_level+0x6>
    27ca:	cd b7       	in	r28, 0x3d	; 61
    27cc:	de b7       	in	r29, 0x3e	; 62
    27ce:	89 83       	std	Y+1, r24	; 0x01
    27d0:	6a 83       	std	Y+2, r22	; 0x02
    27d2:	8a 81       	ldd	r24, Y+2	; 0x02
    27d4:	88 23       	and	r24, r24
    27d6:	b1 f0       	breq	.+44     	; 0x2804 <PORTC_set_pin_level+0x40>
    27d8:	88 e0       	ldi	r24, 0x08	; 8
    27da:	90 e0       	ldi	r25, 0x00	; 0
    27dc:	fc 01       	movw	r30, r24
    27de:	81 81       	ldd	r24, Z+1	; 0x01
    27e0:	48 2f       	mov	r20, r24
    27e2:	89 81       	ldd	r24, Y+1	; 0x01
    27e4:	28 2f       	mov	r18, r24
    27e6:	30 e0       	ldi	r19, 0x00	; 0
    27e8:	81 e0       	ldi	r24, 0x01	; 1
    27ea:	90 e0       	ldi	r25, 0x00	; 0
    27ec:	02 c0       	rjmp	.+4      	; 0x27f2 <PORTC_set_pin_level+0x2e>
    27ee:	88 0f       	add	r24, r24
    27f0:	99 1f       	adc	r25, r25
    27f2:	2a 95       	dec	r18
    27f4:	e2 f7       	brpl	.-8      	; 0x27ee <PORTC_set_pin_level+0x2a>
    27f6:	24 2f       	mov	r18, r20
    27f8:	28 2b       	or	r18, r24
    27fa:	88 e0       	ldi	r24, 0x08	; 8
    27fc:	90 e0       	ldi	r25, 0x00	; 0
    27fe:	fc 01       	movw	r30, r24
    2800:	21 83       	std	Z+1, r18	; 0x01
    2802:	16 c0       	rjmp	.+44     	; 0x2830 <PORTC_set_pin_level+0x6c>
    2804:	88 e0       	ldi	r24, 0x08	; 8
    2806:	90 e0       	ldi	r25, 0x00	; 0
    2808:	fc 01       	movw	r30, r24
    280a:	81 81       	ldd	r24, Z+1	; 0x01
    280c:	48 2f       	mov	r20, r24
    280e:	89 81       	ldd	r24, Y+1	; 0x01
    2810:	28 2f       	mov	r18, r24
    2812:	30 e0       	ldi	r19, 0x00	; 0
    2814:	81 e0       	ldi	r24, 0x01	; 1
    2816:	90 e0       	ldi	r25, 0x00	; 0
    2818:	02 c0       	rjmp	.+4      	; 0x281e <PORTC_set_pin_level+0x5a>
    281a:	88 0f       	add	r24, r24
    281c:	99 1f       	adc	r25, r25
    281e:	2a 95       	dec	r18
    2820:	e2 f7       	brpl	.-8      	; 0x281a <PORTC_set_pin_level+0x56>
    2822:	80 95       	com	r24
    2824:	24 2f       	mov	r18, r20
    2826:	28 23       	and	r18, r24
    2828:	88 e0       	ldi	r24, 0x08	; 8
    282a:	90 e0       	ldi	r25, 0x00	; 0
    282c:	fc 01       	movw	r30, r24
    282e:	21 83       	std	Z+1, r18	; 0x01
    2830:	00 00       	nop
    2832:	0f 90       	pop	r0
    2834:	0f 90       	pop	r0
    2836:	df 91       	pop	r29
    2838:	cf 91       	pop	r28
    283a:	08 95       	ret

0000283c <PORTE_set_pin_dir>:
    283c:	cf 93       	push	r28
    283e:	df 93       	push	r29
    2840:	00 d0       	rcall	.+0      	; 0x2842 <PORTE_set_pin_dir+0x6>
    2842:	1f 92       	push	r1
    2844:	cd b7       	in	r28, 0x3d	; 61
    2846:	de b7       	in	r29, 0x3e	; 62
    2848:	89 83       	std	Y+1, r24	; 0x01
    284a:	6a 83       	std	Y+2, r22	; 0x02
    284c:	7b 83       	std	Y+3, r23	; 0x03
    284e:	8a 81       	ldd	r24, Y+2	; 0x02
    2850:	9b 81       	ldd	r25, Y+3	; 0x03
    2852:	81 30       	cpi	r24, 0x01	; 1
    2854:	91 05       	cpc	r25, r1
    2856:	e9 f0       	breq	.+58     	; 0x2892 <PORTE_set_pin_dir+0x56>
    2858:	82 30       	cpi	r24, 0x02	; 2
    285a:	91 05       	cpc	r25, r1
    285c:	81 f1       	breq	.+96     	; 0x28be <PORTE_set_pin_dir+0x82>
    285e:	89 2b       	or	r24, r25
    2860:	09 f0       	breq	.+2      	; 0x2864 <PORTE_set_pin_dir+0x28>
    2862:	3d c0       	rjmp	.+122    	; 0x28de <PORTE_set_pin_dir+0xa2>
    2864:	80 e1       	ldi	r24, 0x10	; 16
    2866:	90 e0       	ldi	r25, 0x00	; 0
    2868:	fc 01       	movw	r30, r24
    286a:	80 81       	ld	r24, Z
    286c:	48 2f       	mov	r20, r24
    286e:	89 81       	ldd	r24, Y+1	; 0x01
    2870:	28 2f       	mov	r18, r24
    2872:	30 e0       	ldi	r19, 0x00	; 0
    2874:	81 e0       	ldi	r24, 0x01	; 1
    2876:	90 e0       	ldi	r25, 0x00	; 0
    2878:	02 c0       	rjmp	.+4      	; 0x287e <PORTE_set_pin_dir+0x42>
    287a:	88 0f       	add	r24, r24
    287c:	99 1f       	adc	r25, r25
    287e:	2a 95       	dec	r18
    2880:	e2 f7       	brpl	.-8      	; 0x287a <PORTE_set_pin_dir+0x3e>
    2882:	80 95       	com	r24
    2884:	24 2f       	mov	r18, r20
    2886:	28 23       	and	r18, r24
    2888:	80 e1       	ldi	r24, 0x10	; 16
    288a:	90 e0       	ldi	r25, 0x00	; 0
    288c:	fc 01       	movw	r30, r24
    288e:	20 83       	st	Z, r18
    2890:	26 c0       	rjmp	.+76     	; 0x28de <PORTE_set_pin_dir+0xa2>
    2892:	80 e1       	ldi	r24, 0x10	; 16
    2894:	90 e0       	ldi	r25, 0x00	; 0
    2896:	fc 01       	movw	r30, r24
    2898:	80 81       	ld	r24, Z
    289a:	48 2f       	mov	r20, r24
    289c:	89 81       	ldd	r24, Y+1	; 0x01
    289e:	28 2f       	mov	r18, r24
    28a0:	30 e0       	ldi	r19, 0x00	; 0
    28a2:	81 e0       	ldi	r24, 0x01	; 1
    28a4:	90 e0       	ldi	r25, 0x00	; 0
    28a6:	02 c0       	rjmp	.+4      	; 0x28ac <PORTE_set_pin_dir+0x70>
    28a8:	88 0f       	add	r24, r24
    28aa:	99 1f       	adc	r25, r25
    28ac:	2a 95       	dec	r18
    28ae:	e2 f7       	brpl	.-8      	; 0x28a8 <PORTE_set_pin_dir+0x6c>
    28b0:	24 2f       	mov	r18, r20
    28b2:	28 2b       	or	r18, r24
    28b4:	80 e1       	ldi	r24, 0x10	; 16
    28b6:	90 e0       	ldi	r25, 0x00	; 0
    28b8:	fc 01       	movw	r30, r24
    28ba:	20 83       	st	Z, r18
    28bc:	10 c0       	rjmp	.+32     	; 0x28de <PORTE_set_pin_dir+0xa2>
    28be:	89 81       	ldd	r24, Y+1	; 0x01
    28c0:	88 2f       	mov	r24, r24
    28c2:	90 e0       	ldi	r25, 0x00	; 0
    28c4:	80 57       	subi	r24, 0x70	; 112
    28c6:	9b 4f       	sbci	r25, 0xFB	; 251
    28c8:	fc 01       	movw	r30, r24
    28ca:	20 81       	ld	r18, Z
    28cc:	89 81       	ldd	r24, Y+1	; 0x01
    28ce:	88 2f       	mov	r24, r24
    28d0:	90 e0       	ldi	r25, 0x00	; 0
    28d2:	80 57       	subi	r24, 0x70	; 112
    28d4:	9b 4f       	sbci	r25, 0xFB	; 251
    28d6:	28 60       	ori	r18, 0x08	; 8
    28d8:	fc 01       	movw	r30, r24
    28da:	20 83       	st	Z, r18
    28dc:	00 00       	nop
    28de:	00 00       	nop
    28e0:	23 96       	adiw	r28, 0x03	; 3
    28e2:	cd bf       	out	0x3d, r28	; 61
    28e4:	de bf       	out	0x3e, r29	; 62
    28e6:	df 91       	pop	r29
    28e8:	cf 91       	pop	r28
    28ea:	08 95       	ret

000028ec <PORTE_set_pin_level>:
    28ec:	cf 93       	push	r28
    28ee:	df 93       	push	r29
    28f0:	00 d0       	rcall	.+0      	; 0x28f2 <PORTE_set_pin_level+0x6>
    28f2:	cd b7       	in	r28, 0x3d	; 61
    28f4:	de b7       	in	r29, 0x3e	; 62
    28f6:	89 83       	std	Y+1, r24	; 0x01
    28f8:	6a 83       	std	Y+2, r22	; 0x02
    28fa:	8a 81       	ldd	r24, Y+2	; 0x02
    28fc:	88 23       	and	r24, r24
    28fe:	b1 f0       	breq	.+44     	; 0x292c <PORTE_set_pin_level+0x40>
    2900:	80 e1       	ldi	r24, 0x10	; 16
    2902:	90 e0       	ldi	r25, 0x00	; 0
    2904:	fc 01       	movw	r30, r24
    2906:	81 81       	ldd	r24, Z+1	; 0x01
    2908:	48 2f       	mov	r20, r24
    290a:	89 81       	ldd	r24, Y+1	; 0x01
    290c:	28 2f       	mov	r18, r24
    290e:	30 e0       	ldi	r19, 0x00	; 0
    2910:	81 e0       	ldi	r24, 0x01	; 1
    2912:	90 e0       	ldi	r25, 0x00	; 0
    2914:	02 c0       	rjmp	.+4      	; 0x291a <PORTE_set_pin_level+0x2e>
    2916:	88 0f       	add	r24, r24
    2918:	99 1f       	adc	r25, r25
    291a:	2a 95       	dec	r18
    291c:	e2 f7       	brpl	.-8      	; 0x2916 <PORTE_set_pin_level+0x2a>
    291e:	24 2f       	mov	r18, r20
    2920:	28 2b       	or	r18, r24
    2922:	80 e1       	ldi	r24, 0x10	; 16
    2924:	90 e0       	ldi	r25, 0x00	; 0
    2926:	fc 01       	movw	r30, r24
    2928:	21 83       	std	Z+1, r18	; 0x01
    292a:	16 c0       	rjmp	.+44     	; 0x2958 <PORTE_set_pin_level+0x6c>
    292c:	80 e1       	ldi	r24, 0x10	; 16
    292e:	90 e0       	ldi	r25, 0x00	; 0
    2930:	fc 01       	movw	r30, r24
    2932:	81 81       	ldd	r24, Z+1	; 0x01
    2934:	48 2f       	mov	r20, r24
    2936:	89 81       	ldd	r24, Y+1	; 0x01
    2938:	28 2f       	mov	r18, r24
    293a:	30 e0       	ldi	r19, 0x00	; 0
    293c:	81 e0       	ldi	r24, 0x01	; 1
    293e:	90 e0       	ldi	r25, 0x00	; 0
    2940:	02 c0       	rjmp	.+4      	; 0x2946 <PORTE_set_pin_level+0x5a>
    2942:	88 0f       	add	r24, r24
    2944:	99 1f       	adc	r25, r25
    2946:	2a 95       	dec	r18
    2948:	e2 f7       	brpl	.-8      	; 0x2942 <PORTE_set_pin_level+0x56>
    294a:	80 95       	com	r24
    294c:	24 2f       	mov	r18, r20
    294e:	28 23       	and	r18, r24
    2950:	80 e1       	ldi	r24, 0x10	; 16
    2952:	90 e0       	ldi	r25, 0x00	; 0
    2954:	fc 01       	movw	r30, r24
    2956:	21 83       	std	Z+1, r18	; 0x01
    2958:	00 00       	nop
    295a:	0f 90       	pop	r0
    295c:	0f 90       	pop	r0
    295e:	df 91       	pop	r29
    2960:	cf 91       	pop	r28
    2962:	08 95       	ret

00002964 <PORTF_set_pin_pull_mode>:
    2964:	cf 93       	push	r28
    2966:	df 93       	push	r29
    2968:	cd b7       	in	r28, 0x3d	; 61
    296a:	de b7       	in	r29, 0x3e	; 62
    296c:	25 97       	sbiw	r28, 0x05	; 5
    296e:	cd bf       	out	0x3d, r28	; 61
    2970:	de bf       	out	0x3e, r29	; 62
    2972:	8b 83       	std	Y+3, r24	; 0x03
    2974:	6c 83       	std	Y+4, r22	; 0x04
    2976:	7d 83       	std	Y+5, r23	; 0x05
    2978:	8b 81       	ldd	r24, Y+3	; 0x03
    297a:	88 2f       	mov	r24, r24
    297c:	90 e0       	ldi	r25, 0x00	; 0
    297e:	80 55       	subi	r24, 0x50	; 80
    2980:	9b 4f       	sbci	r25, 0xFB	; 251
    2982:	89 83       	std	Y+1, r24	; 0x01
    2984:	9a 83       	std	Y+2, r25	; 0x02
    2986:	8c 81       	ldd	r24, Y+4	; 0x04
    2988:	9d 81       	ldd	r25, Y+5	; 0x05
    298a:	01 97       	sbiw	r24, 0x01	; 1
    298c:	59 f4       	brne	.+22     	; 0x29a4 <PORTF_set_pin_pull_mode+0x40>
    298e:	89 81       	ldd	r24, Y+1	; 0x01
    2990:	9a 81       	ldd	r25, Y+2	; 0x02
    2992:	fc 01       	movw	r30, r24
    2994:	80 81       	ld	r24, Z
    2996:	28 2f       	mov	r18, r24
    2998:	28 60       	ori	r18, 0x08	; 8
    299a:	89 81       	ldd	r24, Y+1	; 0x01
    299c:	9a 81       	ldd	r25, Y+2	; 0x02
    299e:	fc 01       	movw	r30, r24
    29a0:	20 83       	st	Z, r18
    29a2:	0e c0       	rjmp	.+28     	; 0x29c0 <PORTF_set_pin_pull_mode+0x5c>
    29a4:	8c 81       	ldd	r24, Y+4	; 0x04
    29a6:	9d 81       	ldd	r25, Y+5	; 0x05
    29a8:	89 2b       	or	r24, r25
    29aa:	51 f4       	brne	.+20     	; 0x29c0 <PORTF_set_pin_pull_mode+0x5c>
    29ac:	89 81       	ldd	r24, Y+1	; 0x01
    29ae:	9a 81       	ldd	r25, Y+2	; 0x02
    29b0:	fc 01       	movw	r30, r24
    29b2:	80 81       	ld	r24, Z
    29b4:	28 2f       	mov	r18, r24
    29b6:	27 7f       	andi	r18, 0xF7	; 247
    29b8:	89 81       	ldd	r24, Y+1	; 0x01
    29ba:	9a 81       	ldd	r25, Y+2	; 0x02
    29bc:	fc 01       	movw	r30, r24
    29be:	20 83       	st	Z, r18
    29c0:	00 00       	nop
    29c2:	25 96       	adiw	r28, 0x05	; 5
    29c4:	cd bf       	out	0x3d, r28	; 61
    29c6:	de bf       	out	0x3e, r29	; 62
    29c8:	df 91       	pop	r29
    29ca:	cf 91       	pop	r28
    29cc:	08 95       	ret

000029ce <PORTF_set_pin_dir>:
    29ce:	cf 93       	push	r28
    29d0:	df 93       	push	r29
    29d2:	00 d0       	rcall	.+0      	; 0x29d4 <PORTF_set_pin_dir+0x6>
    29d4:	1f 92       	push	r1
    29d6:	cd b7       	in	r28, 0x3d	; 61
    29d8:	de b7       	in	r29, 0x3e	; 62
    29da:	89 83       	std	Y+1, r24	; 0x01
    29dc:	6a 83       	std	Y+2, r22	; 0x02
    29de:	7b 83       	std	Y+3, r23	; 0x03
    29e0:	8a 81       	ldd	r24, Y+2	; 0x02
    29e2:	9b 81       	ldd	r25, Y+3	; 0x03
    29e4:	81 30       	cpi	r24, 0x01	; 1
    29e6:	91 05       	cpc	r25, r1
    29e8:	e9 f0       	breq	.+58     	; 0x2a24 <PORTF_set_pin_dir+0x56>
    29ea:	82 30       	cpi	r24, 0x02	; 2
    29ec:	91 05       	cpc	r25, r1
    29ee:	81 f1       	breq	.+96     	; 0x2a50 <PORTF_set_pin_dir+0x82>
    29f0:	89 2b       	or	r24, r25
    29f2:	09 f0       	breq	.+2      	; 0x29f6 <PORTF_set_pin_dir+0x28>
    29f4:	3d c0       	rjmp	.+122    	; 0x2a70 <PORTF_set_pin_dir+0xa2>
    29f6:	84 e1       	ldi	r24, 0x14	; 20
    29f8:	90 e0       	ldi	r25, 0x00	; 0
    29fa:	fc 01       	movw	r30, r24
    29fc:	80 81       	ld	r24, Z
    29fe:	48 2f       	mov	r20, r24
    2a00:	89 81       	ldd	r24, Y+1	; 0x01
    2a02:	28 2f       	mov	r18, r24
    2a04:	30 e0       	ldi	r19, 0x00	; 0
    2a06:	81 e0       	ldi	r24, 0x01	; 1
    2a08:	90 e0       	ldi	r25, 0x00	; 0
    2a0a:	02 c0       	rjmp	.+4      	; 0x2a10 <PORTF_set_pin_dir+0x42>
    2a0c:	88 0f       	add	r24, r24
    2a0e:	99 1f       	adc	r25, r25
    2a10:	2a 95       	dec	r18
    2a12:	e2 f7       	brpl	.-8      	; 0x2a0c <PORTF_set_pin_dir+0x3e>
    2a14:	80 95       	com	r24
    2a16:	24 2f       	mov	r18, r20
    2a18:	28 23       	and	r18, r24
    2a1a:	84 e1       	ldi	r24, 0x14	; 20
    2a1c:	90 e0       	ldi	r25, 0x00	; 0
    2a1e:	fc 01       	movw	r30, r24
    2a20:	20 83       	st	Z, r18
    2a22:	26 c0       	rjmp	.+76     	; 0x2a70 <PORTF_set_pin_dir+0xa2>
    2a24:	84 e1       	ldi	r24, 0x14	; 20
    2a26:	90 e0       	ldi	r25, 0x00	; 0
    2a28:	fc 01       	movw	r30, r24
    2a2a:	80 81       	ld	r24, Z
    2a2c:	48 2f       	mov	r20, r24
    2a2e:	89 81       	ldd	r24, Y+1	; 0x01
    2a30:	28 2f       	mov	r18, r24
    2a32:	30 e0       	ldi	r19, 0x00	; 0
    2a34:	81 e0       	ldi	r24, 0x01	; 1
    2a36:	90 e0       	ldi	r25, 0x00	; 0
    2a38:	02 c0       	rjmp	.+4      	; 0x2a3e <PORTF_set_pin_dir+0x70>
    2a3a:	88 0f       	add	r24, r24
    2a3c:	99 1f       	adc	r25, r25
    2a3e:	2a 95       	dec	r18
    2a40:	e2 f7       	brpl	.-8      	; 0x2a3a <PORTF_set_pin_dir+0x6c>
    2a42:	24 2f       	mov	r18, r20
    2a44:	28 2b       	or	r18, r24
    2a46:	84 e1       	ldi	r24, 0x14	; 20
    2a48:	90 e0       	ldi	r25, 0x00	; 0
    2a4a:	fc 01       	movw	r30, r24
    2a4c:	20 83       	st	Z, r18
    2a4e:	10 c0       	rjmp	.+32     	; 0x2a70 <PORTF_set_pin_dir+0xa2>
    2a50:	89 81       	ldd	r24, Y+1	; 0x01
    2a52:	88 2f       	mov	r24, r24
    2a54:	90 e0       	ldi	r25, 0x00	; 0
    2a56:	80 55       	subi	r24, 0x50	; 80
    2a58:	9b 4f       	sbci	r25, 0xFB	; 251
    2a5a:	fc 01       	movw	r30, r24
    2a5c:	20 81       	ld	r18, Z
    2a5e:	89 81       	ldd	r24, Y+1	; 0x01
    2a60:	88 2f       	mov	r24, r24
    2a62:	90 e0       	ldi	r25, 0x00	; 0
    2a64:	80 55       	subi	r24, 0x50	; 80
    2a66:	9b 4f       	sbci	r25, 0xFB	; 251
    2a68:	28 60       	ori	r18, 0x08	; 8
    2a6a:	fc 01       	movw	r30, r24
    2a6c:	20 83       	st	Z, r18
    2a6e:	00 00       	nop
    2a70:	00 00       	nop
    2a72:	23 96       	adiw	r28, 0x03	; 3
    2a74:	cd bf       	out	0x3d, r28	; 61
    2a76:	de bf       	out	0x3e, r29	; 62
    2a78:	df 91       	pop	r29
    2a7a:	cf 91       	pop	r28
    2a7c:	08 95       	ret

00002a7e <PORTF_set_pin_level>:
    2a7e:	cf 93       	push	r28
    2a80:	df 93       	push	r29
    2a82:	00 d0       	rcall	.+0      	; 0x2a84 <PORTF_set_pin_level+0x6>
    2a84:	cd b7       	in	r28, 0x3d	; 61
    2a86:	de b7       	in	r29, 0x3e	; 62
    2a88:	89 83       	std	Y+1, r24	; 0x01
    2a8a:	6a 83       	std	Y+2, r22	; 0x02
    2a8c:	8a 81       	ldd	r24, Y+2	; 0x02
    2a8e:	88 23       	and	r24, r24
    2a90:	b1 f0       	breq	.+44     	; 0x2abe <PORTF_set_pin_level+0x40>
    2a92:	84 e1       	ldi	r24, 0x14	; 20
    2a94:	90 e0       	ldi	r25, 0x00	; 0
    2a96:	fc 01       	movw	r30, r24
    2a98:	81 81       	ldd	r24, Z+1	; 0x01
    2a9a:	48 2f       	mov	r20, r24
    2a9c:	89 81       	ldd	r24, Y+1	; 0x01
    2a9e:	28 2f       	mov	r18, r24
    2aa0:	30 e0       	ldi	r19, 0x00	; 0
    2aa2:	81 e0       	ldi	r24, 0x01	; 1
    2aa4:	90 e0       	ldi	r25, 0x00	; 0
    2aa6:	02 c0       	rjmp	.+4      	; 0x2aac <PORTF_set_pin_level+0x2e>
    2aa8:	88 0f       	add	r24, r24
    2aaa:	99 1f       	adc	r25, r25
    2aac:	2a 95       	dec	r18
    2aae:	e2 f7       	brpl	.-8      	; 0x2aa8 <PORTF_set_pin_level+0x2a>
    2ab0:	24 2f       	mov	r18, r20
    2ab2:	28 2b       	or	r18, r24
    2ab4:	84 e1       	ldi	r24, 0x14	; 20
    2ab6:	90 e0       	ldi	r25, 0x00	; 0
    2ab8:	fc 01       	movw	r30, r24
    2aba:	21 83       	std	Z+1, r18	; 0x01
    2abc:	16 c0       	rjmp	.+44     	; 0x2aea <PORTF_set_pin_level+0x6c>
    2abe:	84 e1       	ldi	r24, 0x14	; 20
    2ac0:	90 e0       	ldi	r25, 0x00	; 0
    2ac2:	fc 01       	movw	r30, r24
    2ac4:	81 81       	ldd	r24, Z+1	; 0x01
    2ac6:	48 2f       	mov	r20, r24
    2ac8:	89 81       	ldd	r24, Y+1	; 0x01
    2aca:	28 2f       	mov	r18, r24
    2acc:	30 e0       	ldi	r19, 0x00	; 0
    2ace:	81 e0       	ldi	r24, 0x01	; 1
    2ad0:	90 e0       	ldi	r25, 0x00	; 0
    2ad2:	02 c0       	rjmp	.+4      	; 0x2ad8 <PORTF_set_pin_level+0x5a>
    2ad4:	88 0f       	add	r24, r24
    2ad6:	99 1f       	adc	r25, r25
    2ad8:	2a 95       	dec	r18
    2ada:	e2 f7       	brpl	.-8      	; 0x2ad4 <PORTF_set_pin_level+0x56>
    2adc:	80 95       	com	r24
    2ade:	24 2f       	mov	r18, r20
    2ae0:	28 23       	and	r18, r24
    2ae2:	84 e1       	ldi	r24, 0x14	; 20
    2ae4:	90 e0       	ldi	r25, 0x00	; 0
    2ae6:	fc 01       	movw	r30, r24
    2ae8:	21 83       	std	Z+1, r18	; 0x01
    2aea:	00 00       	nop
    2aec:	0f 90       	pop	r0
    2aee:	0f 90       	pop	r0
    2af0:	df 91       	pop	r29
    2af2:	cf 91       	pop	r28
    2af4:	08 95       	ret

00002af6 <PORTF_get_port_level>:
    2af6:	cf 93       	push	r28
    2af8:	df 93       	push	r29
    2afa:	cd b7       	in	r28, 0x3d	; 61
    2afc:	de b7       	in	r29, 0x3e	; 62
    2afe:	84 e1       	ldi	r24, 0x14	; 20
    2b00:	90 e0       	ldi	r25, 0x00	; 0
    2b02:	fc 01       	movw	r30, r24
    2b04:	82 81       	ldd	r24, Z+2	; 0x02
    2b06:	df 91       	pop	r29
    2b08:	cf 91       	pop	r28
    2b0a:	08 95       	ret

00002b0c <_Z8debouncev>:
    2b0c:	cf 93       	push	r28
    2b0e:	df 93       	push	r29
    2b10:	cd b7       	in	r28, 0x3d	; 61
    2b12:	de b7       	in	r29, 0x3e	; 62
    2b14:	80 91 eb 41 	lds	r24, 0x41EB	; 0x8041eb <portFpinReadings+0x1>
    2b18:	80 93 ec 41 	sts	0x41EC, r24	; 0x8041ec <portFpinReadings+0x2>
    2b1c:	80 91 ea 41 	lds	r24, 0x41EA	; 0x8041ea <portFpinReadings>
    2b20:	80 93 eb 41 	sts	0x41EB, r24	; 0x8041eb <portFpinReadings+0x1>
    2b24:	80 91 e8 41 	lds	r24, 0x41E8	; 0x8041e8 <portApinReadings+0x1>
    2b28:	80 93 e9 41 	sts	0x41E9, r24	; 0x8041e9 <portApinReadings+0x2>
    2b2c:	80 91 e7 41 	lds	r24, 0x41E7	; 0x8041e7 <portApinReadings>
    2b30:	80 93 e8 41 	sts	0x41E8, r24	; 0x8041e8 <portApinReadings+0x1>
    2b34:	0e 94 b6 12 	call	0x256c	; 0x256c <PORTA_get_port_level>
    2b38:	80 93 e7 41 	sts	0x41E7, r24	; 0x8041e7 <portApinReadings>
    2b3c:	0e 94 7b 15 	call	0x2af6	; 0x2af6 <PORTF_get_port_level>
    2b40:	80 93 ea 41 	sts	0x41EA, r24	; 0x8041ea <portFpinReadings>
    2b44:	90 91 e7 41 	lds	r25, 0x41E7	; 0x8041e7 <portApinReadings>
    2b48:	80 91 ed 41 	lds	r24, 0x41ED	; 0x8041ed <portAdebounced>
    2b4c:	98 27       	eor	r25, r24
    2b4e:	20 91 e8 41 	lds	r18, 0x41E8	; 0x8041e8 <portApinReadings+0x1>
    2b52:	80 91 ed 41 	lds	r24, 0x41ED	; 0x8041ed <portAdebounced>
    2b56:	82 27       	eor	r24, r18
    2b58:	98 23       	and	r25, r24
    2b5a:	20 91 e9 41 	lds	r18, 0x41E9	; 0x8041e9 <portApinReadings+0x2>
    2b5e:	80 91 ed 41 	lds	r24, 0x41ED	; 0x8041ed <portAdebounced>
    2b62:	82 27       	eor	r24, r18
    2b64:	98 23       	and	r25, r24
    2b66:	80 91 ed 41 	lds	r24, 0x41ED	; 0x8041ed <portAdebounced>
    2b6a:	89 27       	eor	r24, r25
    2b6c:	80 93 ed 41 	sts	0x41ED, r24	; 0x8041ed <portAdebounced>
    2b70:	90 91 ea 41 	lds	r25, 0x41EA	; 0x8041ea <portFpinReadings>
    2b74:	80 91 ee 41 	lds	r24, 0x41EE	; 0x8041ee <portFdebounced>
    2b78:	98 27       	eor	r25, r24
    2b7a:	20 91 eb 41 	lds	r18, 0x41EB	; 0x8041eb <portFpinReadings+0x1>
    2b7e:	80 91 ee 41 	lds	r24, 0x41EE	; 0x8041ee <portFdebounced>
    2b82:	82 27       	eor	r24, r18
    2b84:	98 23       	and	r25, r24
    2b86:	20 91 ec 41 	lds	r18, 0x41EC	; 0x8041ec <portFpinReadings+0x2>
    2b8a:	80 91 ee 41 	lds	r24, 0x41EE	; 0x8041ee <portFdebounced>
    2b8e:	82 27       	eor	r24, r18
    2b90:	98 23       	and	r25, r24
    2b92:	80 91 ee 41 	lds	r24, 0x41EE	; 0x8041ee <portFdebounced>
    2b96:	89 27       	eor	r24, r25
    2b98:	80 93 ee 41 	sts	0x41EE, r24	; 0x8041ee <portFdebounced>
    2b9c:	00 00       	nop
    2b9e:	df 91       	pop	r29
    2ba0:	cf 91       	pop	r28
    2ba2:	08 95       	ret

00002ba4 <_Z18portAdebouncedValsv>:
    2ba4:	cf 93       	push	r28
    2ba6:	df 93       	push	r29
    2ba8:	cd b7       	in	r28, 0x3d	; 61
    2baa:	de b7       	in	r29, 0x3e	; 62
    2bac:	80 91 ed 41 	lds	r24, 0x41ED	; 0x8041ed <portAdebounced>
    2bb0:	df 91       	pop	r29
    2bb2:	cf 91       	pop	r28
    2bb4:	08 95       	ret

00002bb6 <_Z10BINIO_initv>:


void BINIO_init(void)
{
    2bb6:	cf 93       	push	r28
    2bb8:	df 93       	push	r29
    2bba:	cd b7       	in	r28, 0x3d	; 61
    2bbc:	de b7       	in	r29, 0x3e	; 62
	/* PORTA *************************************************************************************/
	
	/* PORTA.PIN0 = TXDO USART */
	/* PORTA.PIN1 = RXD0 USART */
	
	PORTA_set_pin_dir(SENSE_SWITCH_RIGHT, PORT_DIR_IN);
    2bbe:	60 e0       	ldi	r22, 0x00	; 0
    2bc0:	70 e0       	ldi	r23, 0x00	; 0
    2bc2:	80 e0       	ldi	r24, 0x00	; 0
    2bc4:	0e 94 22 12 	call	0x2444	; 0x2444 <PORTA_set_pin_dir>
	PORTA_set_pin_pull_mode(SENSE_SWITCH_RIGHT, PORT_PULL_UP);
    2bc8:	61 e0       	ldi	r22, 0x01	; 1
    2bca:	70 e0       	ldi	r23, 0x00	; 0
    2bcc:	80 e0       	ldi	r24, 0x00	; 0
    2bce:	0e 94 ed 11 	call	0x23da	; 0x23da <PORTA_set_pin_pull_mode>
//	PORTA_pin_set_isc(SENSE_SWITCH_RIGHT, PORT_ISC_RISING_gc);
	
	PORTA_set_pin_dir(SENSE_SWITCH_LEFT, PORT_DIR_IN);
    2bd2:	60 e0       	ldi	r22, 0x00	; 0
    2bd4:	70 e0       	ldi	r23, 0x00	; 0
    2bd6:	81 e0       	ldi	r24, 0x01	; 1
    2bd8:	0e 94 22 12 	call	0x2444	; 0x2444 <PORTA_set_pin_dir>
	PORTA_set_pin_pull_mode(SENSE_SWITCH_LEFT, PORT_PULL_UP);
    2bdc:	61 e0       	ldi	r22, 0x01	; 1
    2bde:	70 e0       	ldi	r23, 0x00	; 0
    2be0:	81 e0       	ldi	r24, 0x01	; 1
    2be2:	0e 94 ed 11 	call	0x23da	; 0x23da <PORTA_set_pin_pull_mode>
	//	PORTA_pin_set_isc(SENSE_SWITCH_LEFT, PORT_ISC_RISING_gc);
	
	PORTA_set_pin_dir(ENCODER_SWITCH, PORT_DIR_IN);
    2be6:	60 e0       	ldi	r22, 0x00	; 0
    2be8:	70 e0       	ldi	r23, 0x00	; 0
    2bea:	82 e0       	ldi	r24, 0x02	; 2
    2bec:	0e 94 22 12 	call	0x2444	; 0x2444 <PORTA_set_pin_dir>
	PORTA_set_pin_pull_mode(ENCODER_SWITCH, PORT_PULL_UP);
    2bf0:	61 e0       	ldi	r22, 0x01	; 1
    2bf2:	70 e0       	ldi	r23, 0x00	; 0
    2bf4:	82 e0       	ldi	r24, 0x02	; 2
    2bf6:	0e 94 ed 11 	call	0x23da	; 0x23da <PORTA_set_pin_pull_mode>
//	PORTA_pin_set_isc(ENCODER_SWITCH, PORT_ISC_RISING_gc);
	
	PORTA_set_pin_dir(PWR_5V_ENABLE, PORT_DIR_OUT);
    2bfa:	61 e0       	ldi	r22, 0x01	; 1
    2bfc:	70 e0       	ldi	r23, 0x00	; 0
    2bfe:	83 e0       	ldi	r24, 0x03	; 3
    2c00:	0e 94 22 12 	call	0x2444	; 0x2444 <PORTA_set_pin_dir>
	PORTA_set_pin_level(PWR_5V_ENABLE, HIGH);
    2c04:	61 e0       	ldi	r22, 0x01	; 1
    2c06:	83 e0       	ldi	r24, 0x03	; 3
    2c08:	0e 94 7a 12 	call	0x24f4	; 0x24f4 <PORTA_set_pin_level>
	
	PORTA_set_pin_dir(HEADPHONE_DETECT, PORT_DIR_IN);
    2c0c:	60 e0       	ldi	r22, 0x00	; 0
    2c0e:	70 e0       	ldi	r23, 0x00	; 0
    2c10:	84 e0       	ldi	r24, 0x04	; 4
    2c12:	0e 94 22 12 	call	0x2444	; 0x2444 <PORTA_set_pin_dir>
	PORTA_set_pin_pull_mode(HEADPHONE_DETECT, PORT_PULL_UP);
    2c16:	61 e0       	ldi	r22, 0x01	; 1
    2c18:	70 e0       	ldi	r23, 0x00	; 0
    2c1a:	84 e0       	ldi	r24, 0x04	; 4
    2c1c:	0e 94 ed 11 	call	0x23da	; 0x23da <PORTA_set_pin_pull_mode>
//	PORTA_pin_set_isc(HEADPHONE_DETECT, PORT_ISC_FALLING_gc);

	PORTA_set_pin_dir(CARDIOID_FRONT, PORT_DIR_OUT);
    2c20:	61 e0       	ldi	r22, 0x01	; 1
    2c22:	70 e0       	ldi	r23, 0x00	; 0
    2c24:	85 e0       	ldi	r24, 0x05	; 5
    2c26:	0e 94 22 12 	call	0x2444	; 0x2444 <PORTA_set_pin_dir>
	PORTA_set_pin_level(CARDIOID_FRONT, LOW);
    2c2a:	60 e0       	ldi	r22, 0x00	; 0
    2c2c:	85 e0       	ldi	r24, 0x05	; 5
    2c2e:	0e 94 7a 12 	call	0x24f4	; 0x24f4 <PORTA_set_pin_level>
	
	PORTA_set_pin_dir(CARDIOID_BACK, PORT_DIR_OUT);
    2c32:	61 e0       	ldi	r22, 0x01	; 1
    2c34:	70 e0       	ldi	r23, 0x00	; 0
    2c36:	86 e0       	ldi	r24, 0x06	; 6
    2c38:	0e 94 22 12 	call	0x2444	; 0x2444 <PORTA_set_pin_dir>
	PORTA_set_pin_level(CARDIOID_BACK, LOW);
    2c3c:	60 e0       	ldi	r22, 0x00	; 0
    2c3e:	86 e0       	ldi	r24, 0x06	; 6
    2c40:	0e 94 7a 12 	call	0x24f4	; 0x24f4 <PORTA_set_pin_level>
	
	PORTA_set_pin_dir(POWER_ENABLE, PORT_DIR_OUT);
    2c44:	61 e0       	ldi	r22, 0x01	; 1
    2c46:	70 e0       	ldi	r23, 0x00	; 0
    2c48:	87 e0       	ldi	r24, 0x07	; 7
    2c4a:	0e 94 22 12 	call	0x2444	; 0x2444 <PORTA_set_pin_dir>
	PORTA_set_pin_level(POWER_ENABLE, HIGH);
    2c4e:	61 e0       	ldi	r22, 0x01	; 1
    2c50:	87 e0       	ldi	r24, 0x07	; 7
    2c52:	0e 94 7a 12 	call	0x24f4	; 0x24f4 <PORTA_set_pin_level>
// 	PORTB_set_pin_dir(PROC_TONE_OUT, PORT_DIR_OUT);
// 	PORTB_set_pin_level(PROC_TONE_OUT, LOW);
	
	/* PORTB.PIN2 = SDA1 I2C */
	/* PORTB.PIN3 = SCL1 I2C */
	PORTB_set_pin_dir(LCD_RESET, PORT_DIR_OUT);
    2c56:	61 e0       	ldi	r22, 0x01	; 1
    2c58:	70 e0       	ldi	r23, 0x00	; 0
    2c5a:	84 e0       	ldi	r24, 0x04	; 4
    2c5c:	0e 94 c1 12 	call	0x2582	; 0x2582 <PORTB_set_pin_dir>
	PORTB_set_pin_level(LCD_RESET, HIGH);
    2c60:	61 e0       	ldi	r22, 0x01	; 1
    2c62:	84 e0       	ldi	r24, 0x04	; 4
    2c64:	0e 94 19 13 	call	0x2632	; 0x2632 <PORTB_set_pin_level>
	/* PORTC *************************************************************************************/
	
	/* PORTC.PIN0 = unused */
	/* PORTC.PIN1 = unused */

	PORTC_set_pin_dir(SI5351_SDA0, PORT_DIR_IN);
    2c68:	60 e0       	ldi	r22, 0x00	; 0
    2c6a:	70 e0       	ldi	r23, 0x00	; 0
    2c6c:	82 e0       	ldi	r24, 0x02	; 2
    2c6e:	0e 94 8a 13 	call	0x2714	; 0x2714 <PORTC_set_pin_dir>
	PORTC_set_pin_pull_mode(SI5351_SDA0, PORT_PULL_UP);
    2c72:	61 e0       	ldi	r22, 0x01	; 1
    2c74:	70 e0       	ldi	r23, 0x00	; 0
    2c76:	82 e0       	ldi	r24, 0x02	; 2
    2c78:	0e 94 55 13 	call	0x26aa	; 0x26aa <PORTC_set_pin_pull_mode>
	
	PORTC_set_pin_dir(SI5351_SCL0, PORT_DIR_IN);
    2c7c:	60 e0       	ldi	r22, 0x00	; 0
    2c7e:	70 e0       	ldi	r23, 0x00	; 0
    2c80:	83 e0       	ldi	r24, 0x03	; 3
    2c82:	0e 94 8a 13 	call	0x2714	; 0x2714 <PORTC_set_pin_dir>
	PORTC_set_pin_pull_mode(SI5351_SCL0, PORT_PULL_UP);
    2c86:	61 e0       	ldi	r22, 0x01	; 1
    2c88:	70 e0       	ldi	r23, 0x00	; 0
    2c8a:	83 e0       	ldi	r24, 0x03	; 3
    2c8c:	0e 94 55 13 	call	0x26aa	; 0x26aa <PORTC_set_pin_pull_mode>

	PORTC_set_pin_dir(LED_GREEN_1, PORT_DIR_OUT);
    2c90:	61 e0       	ldi	r22, 0x01	; 1
    2c92:	70 e0       	ldi	r23, 0x00	; 0
    2c94:	84 e0       	ldi	r24, 0x04	; 4
    2c96:	0e 94 8a 13 	call	0x2714	; 0x2714 <PORTC_set_pin_dir>
	PORTC_set_pin_level(LED_GREEN_1, LOW);
    2c9a:	60 e0       	ldi	r22, 0x00	; 0
    2c9c:	84 e0       	ldi	r24, 0x04	; 4
    2c9e:	0e 94 e2 13 	call	0x27c4	; 0x27c4 <PORTC_set_pin_level>

	PORTC_set_pin_dir(LED_RED_1, PORT_DIR_OUT);
    2ca2:	61 e0       	ldi	r22, 0x01	; 1
    2ca4:	70 e0       	ldi	r23, 0x00	; 0
    2ca6:	85 e0       	ldi	r24, 0x05	; 5
    2ca8:	0e 94 8a 13 	call	0x2714	; 0x2714 <PORTC_set_pin_dir>
	PORTC_set_pin_level(LED_RED_1, LOW);
    2cac:	60 e0       	ldi	r22, 0x00	; 0
    2cae:	85 e0       	ldi	r24, 0x05	; 5
    2cb0:	0e 94 e2 13 	call	0x27c4	; 0x27c4 <PORTC_set_pin_level>
	/* PORTE *************************************************************************************/
// 	PORTE_set_pin_dir(0, PORT_DIR_OFF); /* Unused */
// 	PORTE_set_pin_dir(1, PORT_DIR_OFF); /* Unused */
// 	PORTE_set_pin_dir(2, PORT_DIR_OFF); /* Unused */
	
	PORTE_set_pin_dir(0, PORT_DIR_IN);
    2cb4:	60 e0       	ldi	r22, 0x00	; 0
    2cb6:	70 e0       	ldi	r23, 0x00	; 0
    2cb8:	80 e0       	ldi	r24, 0x00	; 0
    2cba:	0e 94 1e 14 	call	0x283c	; 0x283c <PORTE_set_pin_dir>
	
	PORTE_set_pin_dir(1, PORT_DIR_IN);
    2cbe:	60 e0       	ldi	r22, 0x00	; 0
    2cc0:	70 e0       	ldi	r23, 0x00	; 0
    2cc2:	81 e0       	ldi	r24, 0x01	; 1
    2cc4:	0e 94 1e 14 	call	0x283c	; 0x283c <PORTE_set_pin_dir>
	
	PORTE_set_pin_dir(PWM, PORT_DIR_OUT);
    2cc8:	61 e0       	ldi	r22, 0x01	; 1
    2cca:	70 e0       	ldi	r23, 0x00	; 0
    2ccc:	82 e0       	ldi	r24, 0x02	; 2
    2cce:	0e 94 1e 14 	call	0x283c	; 0x283c <PORTE_set_pin_dir>
	PORTE_set_pin_level(PWM, LOW);
    2cd2:	60 e0       	ldi	r22, 0x00	; 0
    2cd4:	82 e0       	ldi	r24, 0x02	; 2
    2cd6:	0e 94 76 14 	call	0x28ec	; 0x28ec <PORTE_set_pin_level>
		
	PORTE_set_pin_dir(3, PORT_DIR_IN);
    2cda:	60 e0       	ldi	r22, 0x00	; 0
    2cdc:	70 e0       	ldi	r23, 0x00	; 0
    2cde:	83 e0       	ldi	r24, 0x03	; 3
    2ce0:	0e 94 1e 14 	call	0x283c	; 0x283c <PORTE_set_pin_dir>

	
	/* PORTF *************************************************************************************/
	PORTF_set_pin_dir(X32KHZ_SQUAREWAVE, PORT_DIR_OFF);	
    2ce4:	62 e0       	ldi	r22, 0x02	; 2
    2ce6:	70 e0       	ldi	r23, 0x00	; 0
    2ce8:	80 e0       	ldi	r24, 0x00	; 0
    2cea:	0e 94 e7 14 	call	0x29ce	; 0x29ce <PORTF_set_pin_dir>
	
	PORTF_set_pin_dir(1, PORT_DIR_OFF);	/* Unused */
    2cee:	62 e0       	ldi	r22, 0x02	; 2
    2cf0:	70 e0       	ldi	r23, 0x00	; 0
    2cf2:	81 e0       	ldi	r24, 0x01	; 1
    2cf4:	0e 94 e7 14 	call	0x29ce	; 0x29ce <PORTF_set_pin_dir>
	
	PORTF_set_pin_dir(ROTARY_B, PORT_DIR_IN); /* Rotary encoder B voltage out */
    2cf8:	60 e0       	ldi	r22, 0x00	; 0
    2cfa:	70 e0       	ldi	r23, 0x00	; 0
    2cfc:	82 e0       	ldi	r24, 0x02	; 2
    2cfe:	0e 94 e7 14 	call	0x29ce	; 0x29ce <PORTF_set_pin_dir>
	PORTF_set_pin_pull_mode(ROTARY_B, PORT_PULL_UP);
    2d02:	61 e0       	ldi	r22, 0x01	; 1
    2d04:	70 e0       	ldi	r23, 0x00	; 0
    2d06:	82 e0       	ldi	r24, 0x02	; 2
    2d08:	0e 94 b2 14 	call	0x2964	; 0x2964 <PORTF_set_pin_pull_mode>
	
	PORTF_set_pin_dir(ROTARY_B_IN, PORT_DIR_IN); /* Rotary encoder B read */
    2d0c:	60 e0       	ldi	r22, 0x00	; 0
    2d0e:	70 e0       	ldi	r23, 0x00	; 0
    2d10:	83 e0       	ldi	r24, 0x03	; 3
    2d12:	0e 94 e7 14 	call	0x29ce	; 0x29ce <PORTF_set_pin_dir>
	
	PORTF_set_pin_dir(ROTARY_A_IN, PORT_DIR_IN); /* Rotary encoder A read */
    2d16:	60 e0       	ldi	r22, 0x00	; 0
    2d18:	70 e0       	ldi	r23, 0x00	; 0
    2d1a:	84 e0       	ldi	r24, 0x04	; 4
    2d1c:	0e 94 e7 14 	call	0x29ce	; 0x29ce <PORTF_set_pin_dir>
	
	PORTF_set_pin_dir(ROTARY_A, PORT_DIR_IN); /* Rotary encoder A voltage out */
    2d20:	60 e0       	ldi	r22, 0x00	; 0
    2d22:	70 e0       	ldi	r23, 0x00	; 0
    2d24:	85 e0       	ldi	r24, 0x05	; 5
    2d26:	0e 94 e7 14 	call	0x29ce	; 0x29ce <PORTF_set_pin_dir>
	PORTF_set_pin_pull_mode(ROTARY_A, PORT_PULL_UP);
    2d2a:	61 e0       	ldi	r22, 0x01	; 1
    2d2c:	70 e0       	ldi	r23, 0x00	; 0
    2d2e:	85 e0       	ldi	r24, 0x05	; 5
    2d30:	0e 94 b2 14 	call	0x2964	; 0x2964 <PORTF_set_pin_pull_mode>
	
	PORTF_set_pin_dir(6, PORT_DIR_OFF); /* Unused */
    2d34:	62 e0       	ldi	r22, 0x02	; 2
    2d36:	70 e0       	ldi	r23, 0x00	; 0
    2d38:	86 e0       	ldi	r24, 0x06	; 6
    2d3a:	0e 94 e7 14 	call	0x29ce	; 0x29ce <PORTF_set_pin_dir>
	
	/* PORT Pin Interrupts */
	PORTF.PIN3CTRL |= PORT_ISC_BOTHEDGES_gc; 
    2d3e:	80 ea       	ldi	r24, 0xA0	; 160
    2d40:	94 e0       	ldi	r25, 0x04	; 4
    2d42:	fc 01       	movw	r30, r24
    2d44:	23 89       	ldd	r18, Z+19	; 0x13
    2d46:	80 ea       	ldi	r24, 0xA0	; 160
    2d48:	94 e0       	ldi	r25, 0x04	; 4
    2d4a:	21 60       	ori	r18, 0x01	; 1
    2d4c:	fc 01       	movw	r30, r24
    2d4e:	23 8b       	std	Z+19, r18	; 0x13
	PORTF.PIN4CTRL |= PORT_ISC_BOTHEDGES_gc;
    2d50:	80 ea       	ldi	r24, 0xA0	; 160
    2d52:	94 e0       	ldi	r25, 0x04	; 4
    2d54:	fc 01       	movw	r30, r24
    2d56:	24 89       	ldd	r18, Z+20	; 0x14
    2d58:	80 ea       	ldi	r24, 0xA0	; 160
    2d5a:	94 e0       	ldi	r25, 0x04	; 4
    2d5c:	21 60       	ori	r18, 0x01	; 1
    2d5e:	fc 01       	movw	r30, r24
    2d60:	24 8b       	std	Z+20, r18	; 0x14
	PORTF.INTFLAGS = PIN3_bm | PIN4_bm;
    2d62:	80 ea       	ldi	r24, 0xA0	; 160
    2d64:	94 e0       	ldi	r25, 0x04	; 4
    2d66:	28 e1       	ldi	r18, 0x18	; 24
    2d68:	fc 01       	movw	r30, r24
    2d6a:	21 87       	std	Z+9, r18	; 0x09
}
    2d6c:	00 00       	nop
    2d6e:	df 91       	pop	r29
    2d70:	cf 91       	pop	r28
    2d72:	08 95       	ret

00002d74 <_Z11BINIO_sleepv>:

void BINIO_sleep()
{
    2d74:	cf 93       	push	r28
    2d76:	df 93       	push	r29
    2d78:	cd b7       	in	r28, 0x3d	; 61
    2d7a:	de b7       	in	r29, 0x3e	; 62
	/* PORTA *************************************************************************************/
	
	/* PORTA.PIN0 = TXDO USART */
	/* PORTA.PIN1 = RXD0 USART */
	
	PORTA_set_pin_dir(SENSE_SWITCH_RIGHT, PORT_DIR_IN);
    2d7c:	60 e0       	ldi	r22, 0x00	; 0
    2d7e:	70 e0       	ldi	r23, 0x00	; 0
    2d80:	80 e0       	ldi	r24, 0x00	; 0
    2d82:	0e 94 22 12 	call	0x2444	; 0x2444 <PORTA_set_pin_dir>
	PORTA_set_pin_pull_mode(SENSE_SWITCH_RIGHT, PORT_PULL_OFF);
    2d86:	60 e0       	ldi	r22, 0x00	; 0
    2d88:	70 e0       	ldi	r23, 0x00	; 0
    2d8a:	80 e0       	ldi	r24, 0x00	; 0
    2d8c:	0e 94 ed 11 	call	0x23da	; 0x23da <PORTA_set_pin_pull_mode>
	//	PORTA_pin_set_isc(SENSE_SWITCH_RIGHT, PORT_ISC_RISING_gc);
	
	PORTA_set_pin_dir(SENSE_SWITCH_LEFT, PORT_DIR_IN);
    2d90:	60 e0       	ldi	r22, 0x00	; 0
    2d92:	70 e0       	ldi	r23, 0x00	; 0
    2d94:	81 e0       	ldi	r24, 0x01	; 1
    2d96:	0e 94 22 12 	call	0x2444	; 0x2444 <PORTA_set_pin_dir>
	PORTA_set_pin_pull_mode(SENSE_SWITCH_LEFT, PORT_PULL_OFF);
    2d9a:	60 e0       	ldi	r22, 0x00	; 0
    2d9c:	70 e0       	ldi	r23, 0x00	; 0
    2d9e:	81 e0       	ldi	r24, 0x01	; 1
    2da0:	0e 94 ed 11 	call	0x23da	; 0x23da <PORTA_set_pin_pull_mode>
	//	PORTA_pin_set_isc(SENSE_SWITCH_LEFT, PORT_ISC_RISING_gc);
	
	PORTA_set_pin_dir(ENCODER_SWITCH, PORT_DIR_IN);
    2da4:	60 e0       	ldi	r22, 0x00	; 0
    2da6:	70 e0       	ldi	r23, 0x00	; 0
    2da8:	82 e0       	ldi	r24, 0x02	; 2
    2daa:	0e 94 22 12 	call	0x2444	; 0x2444 <PORTA_set_pin_dir>
	PORTA_set_pin_pull_mode(ENCODER_SWITCH, PORT_PULL_OFF);
    2dae:	60 e0       	ldi	r22, 0x00	; 0
    2db0:	70 e0       	ldi	r23, 0x00	; 0
    2db2:	82 e0       	ldi	r24, 0x02	; 2
    2db4:	0e 94 ed 11 	call	0x23da	; 0x23da <PORTA_set_pin_pull_mode>
	//	PORTA_pin_set_isc(ENCODER_SWITCH, PORT_ISC_RISING_gc);
	
	PORTA_set_pin_dir(PWR_5V_ENABLE, PORT_DIR_OUT);
    2db8:	61 e0       	ldi	r22, 0x01	; 1
    2dba:	70 e0       	ldi	r23, 0x00	; 0
    2dbc:	83 e0       	ldi	r24, 0x03	; 3
    2dbe:	0e 94 22 12 	call	0x2444	; 0x2444 <PORTA_set_pin_dir>
	PORTA_set_pin_level(PWR_5V_ENABLE, LOW);
    2dc2:	60 e0       	ldi	r22, 0x00	; 0
    2dc4:	83 e0       	ldi	r24, 0x03	; 3
    2dc6:	0e 94 7a 12 	call	0x24f4	; 0x24f4 <PORTA_set_pin_level>
	
	PORTA_set_pin_dir(HEADPHONE_DETECT, PORT_DIR_IN);
    2dca:	60 e0       	ldi	r22, 0x00	; 0
    2dcc:	70 e0       	ldi	r23, 0x00	; 0
    2dce:	84 e0       	ldi	r24, 0x04	; 4
    2dd0:	0e 94 22 12 	call	0x2444	; 0x2444 <PORTA_set_pin_dir>
	PORTA_set_pin_pull_mode(HEADPHONE_DETECT, PORT_PULL_OFF);
    2dd4:	60 e0       	ldi	r22, 0x00	; 0
    2dd6:	70 e0       	ldi	r23, 0x00	; 0
    2dd8:	84 e0       	ldi	r24, 0x04	; 4
    2dda:	0e 94 ed 11 	call	0x23da	; 0x23da <PORTA_set_pin_pull_mode>
	//	PORTA_pin_set_isc(HEADPHONE_DETECT, PORT_ISC_FALLING_gc);

	PORTA_set_pin_dir(CARDIOID_FRONT, PORT_DIR_OUT);
    2dde:	61 e0       	ldi	r22, 0x01	; 1
    2de0:	70 e0       	ldi	r23, 0x00	; 0
    2de2:	85 e0       	ldi	r24, 0x05	; 5
    2de4:	0e 94 22 12 	call	0x2444	; 0x2444 <PORTA_set_pin_dir>
	PORTA_set_pin_level(CARDIOID_FRONT, LOW);
    2de8:	60 e0       	ldi	r22, 0x00	; 0
    2dea:	85 e0       	ldi	r24, 0x05	; 5
    2dec:	0e 94 7a 12 	call	0x24f4	; 0x24f4 <PORTA_set_pin_level>
	
	PORTA_set_pin_dir(CARDIOID_BACK, PORT_DIR_OUT);
    2df0:	61 e0       	ldi	r22, 0x01	; 1
    2df2:	70 e0       	ldi	r23, 0x00	; 0
    2df4:	86 e0       	ldi	r24, 0x06	; 6
    2df6:	0e 94 22 12 	call	0x2444	; 0x2444 <PORTA_set_pin_dir>
	PORTA_set_pin_level(CARDIOID_BACK, LOW);
    2dfa:	60 e0       	ldi	r22, 0x00	; 0
    2dfc:	86 e0       	ldi	r24, 0x06	; 6
    2dfe:	0e 94 7a 12 	call	0x24f4	; 0x24f4 <PORTA_set_pin_level>
	
	PORTA_set_pin_dir(POWER_ENABLE, PORT_DIR_OUT);
    2e02:	61 e0       	ldi	r22, 0x01	; 1
    2e04:	70 e0       	ldi	r23, 0x00	; 0
    2e06:	87 e0       	ldi	r24, 0x07	; 7
    2e08:	0e 94 22 12 	call	0x2444	; 0x2444 <PORTA_set_pin_dir>
	PORTA_set_pin_level(POWER_ENABLE, HIGH);
    2e0c:	61 e0       	ldi	r22, 0x01	; 1
    2e0e:	87 e0       	ldi	r24, 0x07	; 7
    2e10:	0e 94 7a 12 	call	0x24f4	; 0x24f4 <PORTA_set_pin_level>
	// 	PORTB_set_pin_dir(PROC_TONE_OUT, PORT_DIR_OUT);
	// 	PORTB_set_pin_level(PROC_TONE_OUT, LOW);
	
	/* PORTB.PIN2 = SDA1 I2C */
	/* PORTB.PIN3 = SCL1 I2C */
	PORTB_set_pin_dir(LCD_RESET, PORT_DIR_OUT);
    2e14:	61 e0       	ldi	r22, 0x01	; 1
    2e16:	70 e0       	ldi	r23, 0x00	; 0
    2e18:	84 e0       	ldi	r24, 0x04	; 4
    2e1a:	0e 94 c1 12 	call	0x2582	; 0x2582 <PORTB_set_pin_dir>
	PORTB_set_pin_level(LCD_RESET, LOW);
    2e1e:	60 e0       	ldi	r22, 0x00	; 0
    2e20:	84 e0       	ldi	r24, 0x04	; 4
    2e22:	0e 94 19 13 	call	0x2632	; 0x2632 <PORTB_set_pin_level>
	/* PORTC *************************************************************************************/
	
	/* PORTC.PIN0 = unused */
	/* PORTC.PIN1 = unused */

	PORTC_set_pin_dir(SI5351_SDA0, PORT_DIR_IN);
    2e26:	60 e0       	ldi	r22, 0x00	; 0
    2e28:	70 e0       	ldi	r23, 0x00	; 0
    2e2a:	82 e0       	ldi	r24, 0x02	; 2
    2e2c:	0e 94 8a 13 	call	0x2714	; 0x2714 <PORTC_set_pin_dir>
	PORTC_set_pin_pull_mode(SI5351_SDA0, PORT_PULL_UP);
    2e30:	61 e0       	ldi	r22, 0x01	; 1
    2e32:	70 e0       	ldi	r23, 0x00	; 0
    2e34:	82 e0       	ldi	r24, 0x02	; 2
    2e36:	0e 94 55 13 	call	0x26aa	; 0x26aa <PORTC_set_pin_pull_mode>
	
	PORTC_set_pin_dir(SI5351_SCL0, PORT_DIR_IN);
    2e3a:	60 e0       	ldi	r22, 0x00	; 0
    2e3c:	70 e0       	ldi	r23, 0x00	; 0
    2e3e:	83 e0       	ldi	r24, 0x03	; 3
    2e40:	0e 94 8a 13 	call	0x2714	; 0x2714 <PORTC_set_pin_dir>
	PORTC_set_pin_pull_mode(SI5351_SCL0, PORT_PULL_UP);
    2e44:	61 e0       	ldi	r22, 0x01	; 1
    2e46:	70 e0       	ldi	r23, 0x00	; 0
    2e48:	83 e0       	ldi	r24, 0x03	; 3
    2e4a:	0e 94 55 13 	call	0x26aa	; 0x26aa <PORTC_set_pin_pull_mode>

	PORTC_set_pin_dir(LED_GREEN_1, PORT_DIR_OUT);
    2e4e:	61 e0       	ldi	r22, 0x01	; 1
    2e50:	70 e0       	ldi	r23, 0x00	; 0
    2e52:	84 e0       	ldi	r24, 0x04	; 4
    2e54:	0e 94 8a 13 	call	0x2714	; 0x2714 <PORTC_set_pin_dir>
	PORTC_set_pin_level(LED_GREEN_1, LOW);
    2e58:	60 e0       	ldi	r22, 0x00	; 0
    2e5a:	84 e0       	ldi	r24, 0x04	; 4
    2e5c:	0e 94 e2 13 	call	0x27c4	; 0x27c4 <PORTC_set_pin_level>

	PORTC_set_pin_dir(LED_RED_1, PORT_DIR_OUT);
    2e60:	61 e0       	ldi	r22, 0x01	; 1
    2e62:	70 e0       	ldi	r23, 0x00	; 0
    2e64:	85 e0       	ldi	r24, 0x05	; 5
    2e66:	0e 94 8a 13 	call	0x2714	; 0x2714 <PORTC_set_pin_dir>
	PORTC_set_pin_level(LED_RED_1, LOW);
    2e6a:	60 e0       	ldi	r22, 0x00	; 0
    2e6c:	85 e0       	ldi	r24, 0x05	; 5
    2e6e:	0e 94 e2 13 	call	0x27c4	; 0x27c4 <PORTC_set_pin_level>
	/* PORTD.PIN5 = ACD5 ASSI_FAR */
	/* PORTD.PIN6 = DAC0 voltage out DAC_OUTPUT */
	/* PORTD.PIN7 = Battery voltage */

	/* PORTE *************************************************************************************/
	PORTE_set_pin_dir(0, PORT_DIR_IN); /* Unused */
    2e72:	60 e0       	ldi	r22, 0x00	; 0
    2e74:	70 e0       	ldi	r23, 0x00	; 0
    2e76:	80 e0       	ldi	r24, 0x00	; 0
    2e78:	0e 94 1e 14 	call	0x283c	; 0x283c <PORTE_set_pin_dir>
	PORTE_set_pin_dir(1, PORT_DIR_IN); /* Unused */
    2e7c:	60 e0       	ldi	r22, 0x00	; 0
    2e7e:	70 e0       	ldi	r23, 0x00	; 0
    2e80:	81 e0       	ldi	r24, 0x01	; 1
    2e82:	0e 94 1e 14 	call	0x283c	; 0x283c <PORTE_set_pin_dir>
	
	PORTE_set_pin_dir(PWM, PORT_DIR_OUT);
    2e86:	61 e0       	ldi	r22, 0x01	; 1
    2e88:	70 e0       	ldi	r23, 0x00	; 0
    2e8a:	82 e0       	ldi	r24, 0x02	; 2
    2e8c:	0e 94 1e 14 	call	0x283c	; 0x283c <PORTE_set_pin_dir>
	PORTE_set_pin_level(PWM, LOW);
    2e90:	60 e0       	ldi	r22, 0x00	; 0
    2e92:	82 e0       	ldi	r24, 0x02	; 2
    2e94:	0e 94 76 14 	call	0x28ec	; 0x28ec <PORTE_set_pin_level>
	
	PORTE_set_pin_dir(3, PORT_DIR_IN); /* Unused */
    2e98:	60 e0       	ldi	r22, 0x00	; 0
    2e9a:	70 e0       	ldi	r23, 0x00	; 0
    2e9c:	83 e0       	ldi	r24, 0x03	; 3
    2e9e:	0e 94 1e 14 	call	0x283c	; 0x283c <PORTE_set_pin_dir>

	/* PORTF *************************************************************************************/
	PORTF_set_pin_dir(X32KHZ_SQUAREWAVE, PORT_DIR_OFF);
    2ea2:	62 e0       	ldi	r22, 0x02	; 2
    2ea4:	70 e0       	ldi	r23, 0x00	; 0
    2ea6:	80 e0       	ldi	r24, 0x00	; 0
    2ea8:	0e 94 e7 14 	call	0x29ce	; 0x29ce <PORTF_set_pin_dir>
	
	PORTF_set_pin_dir(1, PORT_DIR_OFF);	/* Unused */
    2eac:	62 e0       	ldi	r22, 0x02	; 2
    2eae:	70 e0       	ldi	r23, 0x00	; 0
    2eb0:	81 e0       	ldi	r24, 0x01	; 1
    2eb2:	0e 94 e7 14 	call	0x29ce	; 0x29ce <PORTF_set_pin_dir>
	
	PORTF_set_pin_dir(ROTARY_B, PORT_DIR_OUT); /* Rotary encoder B voltage out */
    2eb6:	61 e0       	ldi	r22, 0x01	; 1
    2eb8:	70 e0       	ldi	r23, 0x00	; 0
    2eba:	82 e0       	ldi	r24, 0x02	; 2
    2ebc:	0e 94 e7 14 	call	0x29ce	; 0x29ce <PORTF_set_pin_dir>
	PORTF_set_pin_level(ROTARY_B, LOW);
    2ec0:	60 e0       	ldi	r22, 0x00	; 0
    2ec2:	82 e0       	ldi	r24, 0x02	; 2
    2ec4:	0e 94 3f 15 	call	0x2a7e	; 0x2a7e <PORTF_set_pin_level>
	
	PORTF_set_pin_dir(ROTARY_B_IN, PORT_DIR_IN); /* Rotary encoder B read */
    2ec8:	60 e0       	ldi	r22, 0x00	; 0
    2eca:	70 e0       	ldi	r23, 0x00	; 0
    2ecc:	83 e0       	ldi	r24, 0x03	; 3
    2ece:	0e 94 e7 14 	call	0x29ce	; 0x29ce <PORTF_set_pin_dir>
	
	PORTF_set_pin_dir(ROTARY_A_IN, PORT_DIR_IN); /* Rotary encoder A read */
    2ed2:	60 e0       	ldi	r22, 0x00	; 0
    2ed4:	70 e0       	ldi	r23, 0x00	; 0
    2ed6:	84 e0       	ldi	r24, 0x04	; 4
    2ed8:	0e 94 e7 14 	call	0x29ce	; 0x29ce <PORTF_set_pin_dir>
	
	PORTF_set_pin_dir(ROTARY_A, PORT_DIR_OUT); /* Rotary encoder A voltage out */
    2edc:	61 e0       	ldi	r22, 0x01	; 1
    2ede:	70 e0       	ldi	r23, 0x00	; 0
    2ee0:	85 e0       	ldi	r24, 0x05	; 5
    2ee2:	0e 94 e7 14 	call	0x29ce	; 0x29ce <PORTF_set_pin_dir>
	PORTF_set_pin_level(ROTARY_A, LOW);
    2ee6:	60 e0       	ldi	r22, 0x00	; 0
    2ee8:	85 e0       	ldi	r24, 0x05	; 5
    2eea:	0e 94 3f 15 	call	0x2a7e	; 0x2a7e <PORTF_set_pin_level>
	
	PORTF_set_pin_dir(6, PORT_DIR_OFF); /* Unused */
    2eee:	62 e0       	ldi	r22, 0x02	; 2
    2ef0:	70 e0       	ldi	r23, 0x00	; 0
    2ef2:	86 e0       	ldi	r24, 0x06	; 6
    2ef4:	0e 94 e7 14 	call	0x29ce	; 0x29ce <PORTF_set_pin_dir>
	
	/* PORT Pin Interrupts */
	// 	PORTA.PIN2CTRL = 0x0A; /* Enable RTC SQW 1-sec interrupts */
	// 	PORTD.PIN1CTRL = 0x09; /* Enable antenna change interrupts */
}
    2ef8:	00 00       	nop
    2efa:	df 91       	pop	r29
    2efc:	cf 91       	pop	r28
    2efe:	08 95       	ret

00002f00 <BOD_init>:
 * \brief Initialize Brownout Detector
 *
 * \return Initialization status.
 */
int8_t BOD_init()
{
    2f00:	cf 93       	push	r28
    2f02:	df 93       	push	r29
    2f04:	cd b7       	in	r28, 0x3d	; 61
    2f06:	de b7       	in	r29, 0x3e	; 62

	// ccp_write_io((void*)&(BOD.CTRLA),BOD_SLEEP_DIS_gc /* Disabled */);

	BOD.INTCTRL = 0 << BOD_VLMIE_bp        /* voltage level monitor interrrupt enable: disabled */
    2f08:	80 e8       	ldi	r24, 0x80	; 128
    2f0a:	90 e0       	ldi	r25, 0x00	; 0
    2f0c:	fc 01       	movw	r30, r24
    2f0e:	11 86       	std	Z+9, r1	; 0x09
	              | BOD_VLMCFG_FALLING_gc; /* Interrupt when supply goes below VLM level */

	// BOD.VLMCTRLA = BOD_VLMLVL_5ABOVE_gc; /* VLM threshold 5% above BOD level */

	return 0;
    2f10:	80 e0       	ldi	r24, 0x00	; 0
}
    2f12:	df 91       	pop	r29
    2f14:	cf 91       	pop	r28
    2f16:	08 95       	ret

00002f18 <_ZN18CircularStringBuffC1Ej>:
  }
  
  full_ = false;

  return (val);
}
    2f18:	cf 93       	push	r28
    2f1a:	df 93       	push	r29
    2f1c:	00 d0       	rcall	.+0      	; 0x2f1e <_ZN18CircularStringBuffC1Ej+0x6>
    2f1e:	00 d0       	rcall	.+0      	; 0x2f20 <_ZN18CircularStringBuffC1Ej+0x8>
    2f20:	cd b7       	in	r28, 0x3d	; 61
    2f22:	de b7       	in	r29, 0x3e	; 62
    2f24:	89 83       	std	Y+1, r24	; 0x01
    2f26:	9a 83       	std	Y+2, r25	; 0x02
    2f28:	6b 83       	std	Y+3, r22	; 0x03
    2f2a:	7c 83       	std	Y+4, r23	; 0x04
    2f2c:	8b 81       	ldd	r24, Y+3	; 0x03
    2f2e:	9c 81       	ldd	r25, Y+4	; 0x04
    2f30:	0e 94 30 3b 	call	0x7660	; 0x7660 <malloc>
    2f34:	9c 01       	movw	r18, r24
    2f36:	89 81       	ldd	r24, Y+1	; 0x01
    2f38:	9a 81       	ldd	r25, Y+2	; 0x02
    2f3a:	fc 01       	movw	r30, r24
    2f3c:	25 83       	std	Z+5, r18	; 0x05
    2f3e:	36 83       	std	Z+6, r19	; 0x06
    2f40:	89 81       	ldd	r24, Y+1	; 0x01
    2f42:	9a 81       	ldd	r25, Y+2	; 0x02
    2f44:	2b 81       	ldd	r18, Y+3	; 0x03
    2f46:	3c 81       	ldd	r19, Y+4	; 0x04
    2f48:	fc 01       	movw	r30, r24
    2f4a:	27 83       	std	Z+7, r18	; 0x07
    2f4c:	30 87       	std	Z+8, r19	; 0x08
    2f4e:	89 81       	ldd	r24, Y+1	; 0x01
    2f50:	9a 81       	ldd	r25, Y+2	; 0x02
    2f52:	fc 01       	movw	r30, r24
    2f54:	10 82       	st	Z, r1
    2f56:	11 82       	std	Z+1, r1	; 0x01
    2f58:	89 81       	ldd	r24, Y+1	; 0x01
    2f5a:	9a 81       	ldd	r25, Y+2	; 0x02
    2f5c:	fc 01       	movw	r30, r24
    2f5e:	12 82       	std	Z+2, r1	; 0x02
    2f60:	13 82       	std	Z+3, r1	; 0x03
    2f62:	89 81       	ldd	r24, Y+1	; 0x01
    2f64:	9a 81       	ldd	r25, Y+2	; 0x02
    2f66:	fc 01       	movw	r30, r24
    2f68:	14 82       	std	Z+4, r1	; 0x04
    2f6a:	89 81       	ldd	r24, Y+1	; 0x01
    2f6c:	9a 81       	ldd	r25, Y+2	; 0x02
    2f6e:	fc 01       	movw	r30, r24
    2f70:	11 86       	std	Z+9, r1	; 0x09
    2f72:	00 00       	nop
    2f74:	24 96       	adiw	r28, 0x04	; 4
    2f76:	cd bf       	out	0x3d, r28	; 61
    2f78:	de bf       	out	0x3e, r29	; 62
    2f7a:	df 91       	pop	r29
    2f7c:	cf 91       	pop	r28
    2f7e:	08 95       	ret

00002f80 <_ZN18CircularStringBuffD1Ev>:
    2f80:	cf 93       	push	r28
    2f82:	df 93       	push	r29
    2f84:	00 d0       	rcall	.+0      	; 0x2f86 <_ZN18CircularStringBuffD1Ev+0x6>
    2f86:	cd b7       	in	r28, 0x3d	; 61
    2f88:	de b7       	in	r29, 0x3e	; 62
    2f8a:	89 83       	std	Y+1, r24	; 0x01
    2f8c:	9a 83       	std	Y+2, r25	; 0x02
    2f8e:	89 81       	ldd	r24, Y+1	; 0x01
    2f90:	9a 81       	ldd	r25, Y+2	; 0x02
    2f92:	fc 01       	movw	r30, r24
    2f94:	85 81       	ldd	r24, Z+5	; 0x05
    2f96:	96 81       	ldd	r25, Z+6	; 0x06
    2f98:	0e 94 cc 3b 	call	0x7798	; 0x7798 <free>
    2f9c:	00 00       	nop
    2f9e:	0f 90       	pop	r0
    2fa0:	0f 90       	pop	r0
    2fa2:	df 91       	pop	r29
    2fa4:	cf 91       	pop	r28
    2fa6:	08 95       	ret

00002fa8 <_ZN18CircularStringBuff5resetEv>:
    2fa8:	cf 93       	push	r28
    2faa:	df 93       	push	r29
    2fac:	00 d0       	rcall	.+0      	; 0x2fae <_ZN18CircularStringBuff5resetEv+0x6>
    2fae:	cd b7       	in	r28, 0x3d	; 61
    2fb0:	de b7       	in	r29, 0x3e	; 62
    2fb2:	89 83       	std	Y+1, r24	; 0x01
    2fb4:	9a 83       	std	Y+2, r25	; 0x02
    2fb6:	89 81       	ldd	r24, Y+1	; 0x01
    2fb8:	9a 81       	ldd	r25, Y+2	; 0x02
    2fba:	fc 01       	movw	r30, r24
    2fbc:	22 81       	ldd	r18, Z+2	; 0x02
    2fbe:	33 81       	ldd	r19, Z+3	; 0x03
    2fc0:	89 81       	ldd	r24, Y+1	; 0x01
    2fc2:	9a 81       	ldd	r25, Y+2	; 0x02
    2fc4:	fc 01       	movw	r30, r24
    2fc6:	20 83       	st	Z, r18
    2fc8:	31 83       	std	Z+1, r19	; 0x01
    2fca:	89 81       	ldd	r24, Y+1	; 0x01
    2fcc:	9a 81       	ldd	r25, Y+2	; 0x02
    2fce:	fc 01       	movw	r30, r24
    2fd0:	14 82       	std	Z+4, r1	; 0x04
    2fd2:	89 81       	ldd	r24, Y+1	; 0x01
    2fd4:	9a 81       	ldd	r25, Y+2	; 0x02
    2fd6:	fc 01       	movw	r30, r24
    2fd8:	11 86       	std	Z+9, r1	; 0x09
    2fda:	00 00       	nop
    2fdc:	0f 90       	pop	r0
    2fde:	0f 90       	pop	r0
    2fe0:	df 91       	pop	r29
    2fe2:	cf 91       	pop	r28
    2fe4:	08 95       	ret

00002fe6 <_ZNK18CircularStringBuff5emptyEv>:
    2fe6:	cf 93       	push	r28
    2fe8:	df 93       	push	r29
    2fea:	00 d0       	rcall	.+0      	; 0x2fec <_ZNK18CircularStringBuff5emptyEv+0x6>
    2fec:	cd b7       	in	r28, 0x3d	; 61
    2fee:	de b7       	in	r29, 0x3e	; 62
    2ff0:	89 83       	std	Y+1, r24	; 0x01
    2ff2:	9a 83       	std	Y+2, r25	; 0x02
    2ff4:	89 81       	ldd	r24, Y+1	; 0x01
    2ff6:	9a 81       	ldd	r25, Y+2	; 0x02
    2ff8:	fc 01       	movw	r30, r24
    2ffa:	94 81       	ldd	r25, Z+4	; 0x04
    2ffc:	81 e0       	ldi	r24, 0x01	; 1
    2ffe:	89 27       	eor	r24, r25
    3000:	88 23       	and	r24, r24
    3002:	79 f0       	breq	.+30     	; 0x3022 <_ZNK18CircularStringBuff5emptyEv+0x3c>
    3004:	89 81       	ldd	r24, Y+1	; 0x01
    3006:	9a 81       	ldd	r25, Y+2	; 0x02
    3008:	fc 01       	movw	r30, r24
    300a:	20 81       	ld	r18, Z
    300c:	31 81       	ldd	r19, Z+1	; 0x01
    300e:	89 81       	ldd	r24, Y+1	; 0x01
    3010:	9a 81       	ldd	r25, Y+2	; 0x02
    3012:	fc 01       	movw	r30, r24
    3014:	82 81       	ldd	r24, Z+2	; 0x02
    3016:	93 81       	ldd	r25, Z+3	; 0x03
    3018:	28 17       	cp	r18, r24
    301a:	39 07       	cpc	r19, r25
    301c:	11 f4       	brne	.+4      	; 0x3022 <_ZNK18CircularStringBuff5emptyEv+0x3c>
    301e:	81 e0       	ldi	r24, 0x01	; 1
    3020:	01 c0       	rjmp	.+2      	; 0x3024 <_ZNK18CircularStringBuff5emptyEv+0x3e>
    3022:	80 e0       	ldi	r24, 0x00	; 0
    3024:	0f 90       	pop	r0
    3026:	0f 90       	pop	r0
    3028:	df 91       	pop	r29
    302a:	cf 91       	pop	r28
    302c:	08 95       	ret

0000302e <_ZNK18CircularStringBuff8capacityEv>:
    302e:	cf 93       	push	r28
    3030:	df 93       	push	r29
    3032:	00 d0       	rcall	.+0      	; 0x3034 <_ZNK18CircularStringBuff8capacityEv+0x6>
    3034:	cd b7       	in	r28, 0x3d	; 61
    3036:	de b7       	in	r29, 0x3e	; 62
    3038:	89 83       	std	Y+1, r24	; 0x01
    303a:	9a 83       	std	Y+2, r25	; 0x02
    303c:	89 81       	ldd	r24, Y+1	; 0x01
    303e:	9a 81       	ldd	r25, Y+2	; 0x02
    3040:	fc 01       	movw	r30, r24
    3042:	87 81       	ldd	r24, Z+7	; 0x07
    3044:	90 85       	ldd	r25, Z+8	; 0x08
    3046:	0f 90       	pop	r0
    3048:	0f 90       	pop	r0
    304a:	df 91       	pop	r29
    304c:	cf 91       	pop	r28
    304e:	08 95       	ret

00003050 <_ZNK18CircularStringBuff4sizeEv>:
    3050:	cf 93       	push	r28
    3052:	df 93       	push	r29
    3054:	00 d0       	rcall	.+0      	; 0x3056 <_ZNK18CircularStringBuff4sizeEv+0x6>
    3056:	00 d0       	rcall	.+0      	; 0x3058 <_ZNK18CircularStringBuff4sizeEv+0x8>
    3058:	cd b7       	in	r28, 0x3d	; 61
    305a:	de b7       	in	r29, 0x3e	; 62
    305c:	8b 83       	std	Y+3, r24	; 0x03
    305e:	9c 83       	std	Y+4, r25	; 0x04
    3060:	8b 81       	ldd	r24, Y+3	; 0x03
    3062:	9c 81       	ldd	r25, Y+4	; 0x04
    3064:	fc 01       	movw	r30, r24
    3066:	87 81       	ldd	r24, Z+7	; 0x07
    3068:	90 85       	ldd	r25, Z+8	; 0x08
    306a:	89 83       	std	Y+1, r24	; 0x01
    306c:	9a 83       	std	Y+2, r25	; 0x02
    306e:	8b 81       	ldd	r24, Y+3	; 0x03
    3070:	9c 81       	ldd	r25, Y+4	; 0x04
    3072:	fc 01       	movw	r30, r24
    3074:	94 81       	ldd	r25, Z+4	; 0x04
    3076:	81 e0       	ldi	r24, 0x01	; 1
    3078:	89 27       	eor	r24, r25
    307a:	88 23       	and	r24, r24
    307c:	99 f1       	breq	.+102    	; 0x30e4 <_ZNK18CircularStringBuff4sizeEv+0x94>
    307e:	8b 81       	ldd	r24, Y+3	; 0x03
    3080:	9c 81       	ldd	r25, Y+4	; 0x04
    3082:	fc 01       	movw	r30, r24
    3084:	20 81       	ld	r18, Z
    3086:	31 81       	ldd	r19, Z+1	; 0x01
    3088:	8b 81       	ldd	r24, Y+3	; 0x03
    308a:	9c 81       	ldd	r25, Y+4	; 0x04
    308c:	fc 01       	movw	r30, r24
    308e:	82 81       	ldd	r24, Z+2	; 0x02
    3090:	93 81       	ldd	r25, Z+3	; 0x03
    3092:	28 17       	cp	r18, r24
    3094:	39 07       	cpc	r19, r25
    3096:	8c f0       	brlt	.+34     	; 0x30ba <_ZNK18CircularStringBuff4sizeEv+0x6a>
    3098:	8b 81       	ldd	r24, Y+3	; 0x03
    309a:	9c 81       	ldd	r25, Y+4	; 0x04
    309c:	fc 01       	movw	r30, r24
    309e:	20 81       	ld	r18, Z
    30a0:	31 81       	ldd	r19, Z+1	; 0x01
    30a2:	8b 81       	ldd	r24, Y+3	; 0x03
    30a4:	9c 81       	ldd	r25, Y+4	; 0x04
    30a6:	fc 01       	movw	r30, r24
    30a8:	82 81       	ldd	r24, Z+2	; 0x02
    30aa:	93 81       	ldd	r25, Z+3	; 0x03
    30ac:	a9 01       	movw	r20, r18
    30ae:	48 1b       	sub	r20, r24
    30b0:	59 0b       	sbc	r21, r25
    30b2:	ca 01       	movw	r24, r20
    30b4:	89 83       	std	Y+1, r24	; 0x01
    30b6:	9a 83       	std	Y+2, r25	; 0x02
    30b8:	15 c0       	rjmp	.+42     	; 0x30e4 <_ZNK18CircularStringBuff4sizeEv+0x94>
    30ba:	8b 81       	ldd	r24, Y+3	; 0x03
    30bc:	9c 81       	ldd	r25, Y+4	; 0x04
    30be:	fc 01       	movw	r30, r24
    30c0:	87 81       	ldd	r24, Z+7	; 0x07
    30c2:	90 85       	ldd	r25, Z+8	; 0x08
    30c4:	2b 81       	ldd	r18, Y+3	; 0x03
    30c6:	3c 81       	ldd	r19, Y+4	; 0x04
    30c8:	f9 01       	movw	r30, r18
    30ca:	20 81       	ld	r18, Z
    30cc:	31 81       	ldd	r19, Z+1	; 0x01
    30ce:	82 0f       	add	r24, r18
    30d0:	93 1f       	adc	r25, r19
    30d2:	2b 81       	ldd	r18, Y+3	; 0x03
    30d4:	3c 81       	ldd	r19, Y+4	; 0x04
    30d6:	f9 01       	movw	r30, r18
    30d8:	22 81       	ldd	r18, Z+2	; 0x02
    30da:	33 81       	ldd	r19, Z+3	; 0x03
    30dc:	82 1b       	sub	r24, r18
    30de:	93 0b       	sbc	r25, r19
    30e0:	89 83       	std	Y+1, r24	; 0x01
    30e2:	9a 83       	std	Y+2, r25	; 0x02
    30e4:	89 81       	ldd	r24, Y+1	; 0x01
    30e6:	9a 81       	ldd	r25, Y+2	; 0x02
    30e8:	24 96       	adiw	r28, 0x04	; 4
    30ea:	cd bf       	out	0x3d, r28	; 61
    30ec:	de bf       	out	0x3e, r29	; 62
    30ee:	df 91       	pop	r29
    30f0:	cf 91       	pop	r28
    30f2:	08 95       	ret

000030f4 <_ZNK18CircularStringBuff9remainingEv>:
    30f4:	0f 93       	push	r16
    30f6:	1f 93       	push	r17
    30f8:	cf 93       	push	r28
    30fa:	df 93       	push	r29
    30fc:	00 d0       	rcall	.+0      	; 0x30fe <_ZNK18CircularStringBuff9remainingEv+0xa>
    30fe:	00 d0       	rcall	.+0      	; 0x3100 <_ZNK18CircularStringBuff9remainingEv+0xc>
    3100:	cd b7       	in	r28, 0x3d	; 61
    3102:	de b7       	in	r29, 0x3e	; 62
    3104:	8b 83       	std	Y+3, r24	; 0x03
    3106:	9c 83       	std	Y+4, r25	; 0x04
    3108:	19 82       	std	Y+1, r1	; 0x01
    310a:	1a 82       	std	Y+2, r1	; 0x02
    310c:	8b 81       	ldd	r24, Y+3	; 0x03
    310e:	9c 81       	ldd	r25, Y+4	; 0x04
    3110:	fc 01       	movw	r30, r24
    3112:	94 81       	ldd	r25, Z+4	; 0x04
    3114:	81 e0       	ldi	r24, 0x01	; 1
    3116:	89 27       	eor	r24, r25
    3118:	88 23       	and	r24, r24
    311a:	79 f0       	breq	.+30     	; 0x313a <_ZNK18CircularStringBuff9remainingEv+0x46>
    311c:	8b 81       	ldd	r24, Y+3	; 0x03
    311e:	9c 81       	ldd	r25, Y+4	; 0x04
    3120:	0e 94 17 18 	call	0x302e	; 0x302e <_ZNK18CircularStringBuff8capacityEv>
    3124:	8c 01       	movw	r16, r24
    3126:	8b 81       	ldd	r24, Y+3	; 0x03
    3128:	9c 81       	ldd	r25, Y+4	; 0x04
    312a:	0e 94 28 18 	call	0x3050	; 0x3050 <_ZNK18CircularStringBuff4sizeEv>
    312e:	98 01       	movw	r18, r16
    3130:	28 1b       	sub	r18, r24
    3132:	39 0b       	sbc	r19, r25
    3134:	c9 01       	movw	r24, r18
    3136:	89 83       	std	Y+1, r24	; 0x01
    3138:	9a 83       	std	Y+2, r25	; 0x02
    313a:	89 81       	ldd	r24, Y+1	; 0x01
    313c:	9a 81       	ldd	r25, Y+2	; 0x02
    313e:	24 96       	adiw	r28, 0x04	; 4
    3140:	cd bf       	out	0x3d, r28	; 61
    3142:	de bf       	out	0x3e, r29	; 62
    3144:	df 91       	pop	r29
    3146:	cf 91       	pop	r28
    3148:	1f 91       	pop	r17
    314a:	0f 91       	pop	r16
    314c:	08 95       	ret

0000314e <_ZN18CircularStringBuff3putEc>:
    314e:	cf 93       	push	r28
    3150:	df 93       	push	r29
    3152:	00 d0       	rcall	.+0      	; 0x3154 <_ZN18CircularStringBuff3putEc+0x6>
    3154:	1f 92       	push	r1
    3156:	cd b7       	in	r28, 0x3d	; 61
    3158:	de b7       	in	r29, 0x3e	; 62
    315a:	89 83       	std	Y+1, r24	; 0x01
    315c:	9a 83       	std	Y+2, r25	; 0x02
    315e:	6b 83       	std	Y+3, r22	; 0x03
    3160:	89 81       	ldd	r24, Y+1	; 0x01
    3162:	9a 81       	ldd	r25, Y+2	; 0x02
    3164:	fc 01       	movw	r30, r24
    3166:	85 81       	ldd	r24, Z+5	; 0x05
    3168:	96 81       	ldd	r25, Z+6	; 0x06
    316a:	29 81       	ldd	r18, Y+1	; 0x01
    316c:	3a 81       	ldd	r19, Y+2	; 0x02
    316e:	f9 01       	movw	r30, r18
    3170:	20 81       	ld	r18, Z
    3172:	31 81       	ldd	r19, Z+1	; 0x01
    3174:	82 0f       	add	r24, r18
    3176:	93 1f       	adc	r25, r19
    3178:	2b 81       	ldd	r18, Y+3	; 0x03
    317a:	fc 01       	movw	r30, r24
    317c:	20 83       	st	Z, r18
    317e:	89 81       	ldd	r24, Y+1	; 0x01
    3180:	9a 81       	ldd	r25, Y+2	; 0x02
    3182:	fc 01       	movw	r30, r24
    3184:	84 81       	ldd	r24, Z+4	; 0x04
    3186:	88 23       	and	r24, r24
    3188:	b1 f0       	breq	.+44     	; 0x31b6 <_ZN18CircularStringBuff3putEc+0x68>
    318a:	89 81       	ldd	r24, Y+1	; 0x01
    318c:	9a 81       	ldd	r25, Y+2	; 0x02
    318e:	fc 01       	movw	r30, r24
    3190:	82 81       	ldd	r24, Z+2	; 0x02
    3192:	93 81       	ldd	r25, Z+3	; 0x03
    3194:	01 96       	adiw	r24, 0x01	; 1
    3196:	ac 01       	movw	r20, r24
    3198:	89 81       	ldd	r24, Y+1	; 0x01
    319a:	9a 81       	ldd	r25, Y+2	; 0x02
    319c:	fc 01       	movw	r30, r24
    319e:	27 81       	ldd	r18, Z+7	; 0x07
    31a0:	30 85       	ldd	r19, Z+8	; 0x08
    31a2:	ca 01       	movw	r24, r20
    31a4:	b9 01       	movw	r22, r18
    31a6:	0e 94 d7 3a 	call	0x75ae	; 0x75ae <__udivmodhi4>
    31aa:	9c 01       	movw	r18, r24
    31ac:	89 81       	ldd	r24, Y+1	; 0x01
    31ae:	9a 81       	ldd	r25, Y+2	; 0x02
    31b0:	fc 01       	movw	r30, r24
    31b2:	22 83       	std	Z+2, r18	; 0x02
    31b4:	33 83       	std	Z+3, r19	; 0x03
    31b6:	89 81       	ldd	r24, Y+1	; 0x01
    31b8:	9a 81       	ldd	r25, Y+2	; 0x02
    31ba:	fc 01       	movw	r30, r24
    31bc:	80 81       	ld	r24, Z
    31be:	91 81       	ldd	r25, Z+1	; 0x01
    31c0:	01 96       	adiw	r24, 0x01	; 1
    31c2:	ac 01       	movw	r20, r24
    31c4:	89 81       	ldd	r24, Y+1	; 0x01
    31c6:	9a 81       	ldd	r25, Y+2	; 0x02
    31c8:	fc 01       	movw	r30, r24
    31ca:	27 81       	ldd	r18, Z+7	; 0x07
    31cc:	30 85       	ldd	r19, Z+8	; 0x08
    31ce:	ca 01       	movw	r24, r20
    31d0:	b9 01       	movw	r22, r18
    31d2:	0e 94 d7 3a 	call	0x75ae	; 0x75ae <__udivmodhi4>
    31d6:	9c 01       	movw	r18, r24
    31d8:	89 81       	ldd	r24, Y+1	; 0x01
    31da:	9a 81       	ldd	r25, Y+2	; 0x02
    31dc:	fc 01       	movw	r30, r24
    31de:	20 83       	st	Z, r18
    31e0:	31 83       	std	Z+1, r19	; 0x01
    31e2:	89 81       	ldd	r24, Y+1	; 0x01
    31e4:	9a 81       	ldd	r25, Y+2	; 0x02
    31e6:	fc 01       	movw	r30, r24
    31e8:	20 81       	ld	r18, Z
    31ea:	31 81       	ldd	r19, Z+1	; 0x01
    31ec:	89 81       	ldd	r24, Y+1	; 0x01
    31ee:	9a 81       	ldd	r25, Y+2	; 0x02
    31f0:	fc 01       	movw	r30, r24
    31f2:	82 81       	ldd	r24, Z+2	; 0x02
    31f4:	93 81       	ldd	r25, Z+3	; 0x03
    31f6:	41 e0       	ldi	r20, 0x01	; 1
    31f8:	28 17       	cp	r18, r24
    31fa:	39 07       	cpc	r19, r25
    31fc:	09 f0       	breq	.+2      	; 0x3200 <_ZN18CircularStringBuff3putEc+0xb2>
    31fe:	40 e0       	ldi	r20, 0x00	; 0
    3200:	89 81       	ldd	r24, Y+1	; 0x01
    3202:	9a 81       	ldd	r25, Y+2	; 0x02
    3204:	fc 01       	movw	r30, r24
    3206:	44 83       	std	Z+4, r20	; 0x04
    3208:	00 00       	nop
    320a:	23 96       	adiw	r28, 0x03	; 3
    320c:	cd bf       	out	0x3d, r28	; 61
    320e:	de bf       	out	0x3e, r29	; 62
    3210:	df 91       	pop	r29
    3212:	cf 91       	pop	r28
    3214:	08 95       	ret

00003216 <_ZN18CircularStringBuff3getEv>:

/** 
 * Return the FIFO entry and delete it from the buffer
 */
char CircularStringBuff::get()
{
    3216:	cf 93       	push	r28
    3218:	df 93       	push	r29
    321a:	00 d0       	rcall	.+0      	; 0x321c <_ZN18CircularStringBuff3getEv+0x6>
    321c:	1f 92       	push	r1
    321e:	cd b7       	in	r28, 0x3d	; 61
    3220:	de b7       	in	r29, 0x3e	; 62
    3222:	8a 83       	std	Y+2, r24	; 0x02
    3224:	9b 83       	std	Y+3, r25	; 0x03
  if (empty())
    3226:	8a 81       	ldd	r24, Y+2	; 0x02
    3228:	9b 81       	ldd	r25, Y+3	; 0x03
    322a:	0e 94 f3 17 	call	0x2fe6	; 0x2fe6 <_ZNK18CircularStringBuff5emptyEv>
    322e:	88 23       	and	r24, r24
    3230:	11 f0       	breq	.+4      	; 0x3236 <_ZN18CircularStringBuff3getEv+0x20>
  {
    return ('\0');
    3232:	80 e0       	ldi	r24, 0x00	; 0
    3234:	2a c0       	rjmp	.+84     	; 0x328a <_ZN18CircularStringBuff3getEv+0x74>
  }

  /*Read data and advance the tail (we now have a free space) */
  char val = buf_[tail_];
    3236:	8a 81       	ldd	r24, Y+2	; 0x02
    3238:	9b 81       	ldd	r25, Y+3	; 0x03
    323a:	fc 01       	movw	r30, r24
    323c:	85 81       	ldd	r24, Z+5	; 0x05
    323e:	96 81       	ldd	r25, Z+6	; 0x06
    3240:	2a 81       	ldd	r18, Y+2	; 0x02
    3242:	3b 81       	ldd	r19, Y+3	; 0x03
    3244:	f9 01       	movw	r30, r18
    3246:	22 81       	ldd	r18, Z+2	; 0x02
    3248:	33 81       	ldd	r19, Z+3	; 0x03
    324a:	82 0f       	add	r24, r18
    324c:	93 1f       	adc	r25, r19
    324e:	fc 01       	movw	r30, r24
    3250:	80 81       	ld	r24, Z
    3252:	89 83       	std	Y+1, r24	; 0x01
  full_ = false;
    3254:	8a 81       	ldd	r24, Y+2	; 0x02
    3256:	9b 81       	ldd	r25, Y+3	; 0x03
    3258:	fc 01       	movw	r30, r24
    325a:	14 82       	std	Z+4, r1	; 0x04
  tail_ = (tail_ + 1) % max_size_;
    325c:	8a 81       	ldd	r24, Y+2	; 0x02
    325e:	9b 81       	ldd	r25, Y+3	; 0x03
    3260:	fc 01       	movw	r30, r24
    3262:	82 81       	ldd	r24, Z+2	; 0x02
    3264:	93 81       	ldd	r25, Z+3	; 0x03
    3266:	01 96       	adiw	r24, 0x01	; 1
    3268:	ac 01       	movw	r20, r24
    326a:	8a 81       	ldd	r24, Y+2	; 0x02
    326c:	9b 81       	ldd	r25, Y+3	; 0x03
    326e:	fc 01       	movw	r30, r24
    3270:	27 81       	ldd	r18, Z+7	; 0x07
    3272:	30 85       	ldd	r19, Z+8	; 0x08
    3274:	ca 01       	movw	r24, r20
    3276:	b9 01       	movw	r22, r18
    3278:	0e 94 d7 3a 	call	0x75ae	; 0x75ae <__udivmodhi4>
    327c:	9c 01       	movw	r18, r24
    327e:	8a 81       	ldd	r24, Y+2	; 0x02
    3280:	9b 81       	ldd	r25, Y+3	; 0x03
    3282:	fc 01       	movw	r30, r24
    3284:	22 83       	std	Z+2, r18	; 0x02
    3286:	33 83       	std	Z+3, r19	; 0x03

  return (val);
    3288:	89 81       	ldd	r24, Y+1	; 0x01
}
    328a:	23 96       	adiw	r28, 0x03	; 3
    328c:	cd bf       	out	0x3d, r28	; 61
    328e:	de bf       	out	0x3e, r29	; 62
    3290:	df 91       	pop	r29
    3292:	cf 91       	pop	r28
    3294:	08 95       	ret

00003296 <_ZN18CircularStringBuff9putStringEPc>:

bool CircularStringBuff::putString(char* string)
{
    3296:	cf 93       	push	r28
    3298:	df 93       	push	r29
    329a:	cd b7       	in	r28, 0x3d	; 61
    329c:	de b7       	in	r29, 0x3e	; 62
    329e:	28 97       	sbiw	r28, 0x08	; 8
    32a0:	cd bf       	out	0x3d, r28	; 61
    32a2:	de bf       	out	0x3e, r29	; 62
    32a4:	8d 83       	std	Y+5, r24	; 0x05
    32a6:	9e 83       	std	Y+6, r25	; 0x06
    32a8:	6f 83       	std	Y+7, r22	; 0x07
    32aa:	78 87       	std	Y+8, r23	; 0x08
	bool fail = true;
    32ac:	81 e0       	ldi	r24, 0x01	; 1
    32ae:	8c 83       	std	Y+4, r24	; 0x04
	
	if(full_) return(fail);
    32b0:	8d 81       	ldd	r24, Y+5	; 0x05
    32b2:	9e 81       	ldd	r25, Y+6	; 0x06
    32b4:	fc 01       	movw	r30, r24
    32b6:	84 81       	ldd	r24, Z+4	; 0x04
    32b8:	88 23       	and	r24, r24
    32ba:	11 f0       	breq	.+4      	; 0x32c0 <_ZN18CircularStringBuff9putStringEPc+0x2a>
    32bc:	8c 81       	ldd	r24, Y+4	; 0x04
    32be:	48 c0       	rjmp	.+144    	; 0x3350 <_ZN18CircularStringBuff9putStringEPc+0xba>

	size_t size = strlen(string);
    32c0:	8f 81       	ldd	r24, Y+7	; 0x07
    32c2:	98 85       	ldd	r25, Y+8	; 0x08
    32c4:	0e 94 55 3c 	call	0x78aa	; 0x78aa <strlen>
    32c8:	8a 83       	std	Y+2, r24	; 0x02
    32ca:	9b 83       	std	Y+3, r25	; 0x03
	if(size > remaining()) return(fail);
    32cc:	8d 81       	ldd	r24, Y+5	; 0x05
    32ce:	9e 81       	ldd	r25, Y+6	; 0x06
    32d0:	0e 94 7a 18 	call	0x30f4	; 0x30f4 <_ZNK18CircularStringBuff9remainingEv>
    32d4:	9c 01       	movw	r18, r24
    32d6:	41 e0       	ldi	r20, 0x01	; 1
    32d8:	8a 81       	ldd	r24, Y+2	; 0x02
    32da:	9b 81       	ldd	r25, Y+3	; 0x03
    32dc:	28 17       	cp	r18, r24
    32de:	39 07       	cpc	r19, r25
    32e0:	08 f0       	brcs	.+2      	; 0x32e4 <_ZN18CircularStringBuff9putStringEPc+0x4e>
    32e2:	40 e0       	ldi	r20, 0x00	; 0
    32e4:	44 23       	and	r20, r20
    32e6:	11 f0       	breq	.+4      	; 0x32ec <_ZN18CircularStringBuff9putStringEPc+0x56>
    32e8:	8c 81       	ldd	r24, Y+4	; 0x04
    32ea:	32 c0       	rjmp	.+100    	; 0x3350 <_ZN18CircularStringBuff9putStringEPc+0xba>

	uint8_t i = 0;
    32ec:	19 82       	std	Y+1, r1	; 0x01
	
	while((i < size) && !full_)
    32ee:	89 81       	ldd	r24, Y+1	; 0x01
    32f0:	88 2f       	mov	r24, r24
    32f2:	90 e0       	ldi	r25, 0x00	; 0
    32f4:	2a 81       	ldd	r18, Y+2	; 0x02
    32f6:	3b 81       	ldd	r19, Y+3	; 0x03
    32f8:	82 17       	cp	r24, r18
    32fa:	93 07       	cpc	r25, r19
    32fc:	c0 f4       	brcc	.+48     	; 0x332e <_ZN18CircularStringBuff9putStringEPc+0x98>
    32fe:	8d 81       	ldd	r24, Y+5	; 0x05
    3300:	9e 81       	ldd	r25, Y+6	; 0x06
    3302:	fc 01       	movw	r30, r24
    3304:	84 81       	ldd	r24, Z+4	; 0x04
    3306:	88 23       	and	r24, r24
    3308:	91 f4       	brne	.+36     	; 0x332e <_ZN18CircularStringBuff9putStringEPc+0x98>
	{
		put(string[i++]);
    330a:	89 81       	ldd	r24, Y+1	; 0x01
    330c:	91 e0       	ldi	r25, 0x01	; 1
    330e:	98 0f       	add	r25, r24
    3310:	99 83       	std	Y+1, r25	; 0x01
    3312:	88 2f       	mov	r24, r24
    3314:	90 e0       	ldi	r25, 0x00	; 0
    3316:	2f 81       	ldd	r18, Y+7	; 0x07
    3318:	38 85       	ldd	r19, Y+8	; 0x08
    331a:	82 0f       	add	r24, r18
    331c:	93 1f       	adc	r25, r19
    331e:	fc 01       	movw	r30, r24
    3320:	20 81       	ld	r18, Z
    3322:	8d 81       	ldd	r24, Y+5	; 0x05
    3324:	9e 81       	ldd	r25, Y+6	; 0x06
    3326:	62 2f       	mov	r22, r18
    3328:	0e 94 a7 18 	call	0x314e	; 0x314e <_ZN18CircularStringBuff3putEc>
	size_t size = strlen(string);
	if(size > remaining()) return(fail);

	uint8_t i = 0;
	
	while((i < size) && !full_)
    332c:	e0 cf       	rjmp	.-64     	; 0x32ee <_ZN18CircularStringBuff9putStringEPc+0x58>
	{
		put(string[i++]);
	}
	
	if(!full_) put('\0');
    332e:	8d 81       	ldd	r24, Y+5	; 0x05
    3330:	9e 81       	ldd	r25, Y+6	; 0x06
    3332:	fc 01       	movw	r30, r24
    3334:	94 81       	ldd	r25, Z+4	; 0x04
    3336:	81 e0       	ldi	r24, 0x01	; 1
    3338:	89 27       	eor	r24, r25
    333a:	88 23       	and	r24, r24
    333c:	29 f0       	breq	.+10     	; 0x3348 <_ZN18CircularStringBuff9putStringEPc+0xb2>
    333e:	8d 81       	ldd	r24, Y+5	; 0x05
    3340:	9e 81       	ldd	r25, Y+6	; 0x06
    3342:	60 e0       	ldi	r22, 0x00	; 0
    3344:	0e 94 a7 18 	call	0x314e	; 0x314e <_ZN18CircularStringBuff3putEc>
	
	return(full_);
    3348:	8d 81       	ldd	r24, Y+5	; 0x05
    334a:	9e 81       	ldd	r25, Y+6	; 0x06
    334c:	fc 01       	movw	r30, r24
    334e:	84 81       	ldd	r24, Z+4	; 0x04
}
    3350:	28 96       	adiw	r28, 0x08	; 8
    3352:	cd bf       	out	0x3d, r28	; 61
    3354:	de bf       	out	0x3e, r29	; 62
    3356:	df 91       	pop	r29
    3358:	cf 91       	pop	r28
    335a:	08 95       	ret

0000335c <_ZN18CircularStringBuff9getStringEPcPj>:

void CircularStringBuff::getString(char* str, size_t *length)
{
    335c:	cf 93       	push	r28
    335e:	df 93       	push	r29
    3360:	cd b7       	in	r28, 0x3d	; 61
    3362:	de b7       	in	r29, 0x3e	; 62
    3364:	28 97       	sbiw	r28, 0x08	; 8
    3366:	cd bf       	out	0x3d, r28	; 61
    3368:	de bf       	out	0x3e, r29	; 62
    336a:	8b 83       	std	Y+3, r24	; 0x03
    336c:	9c 83       	std	Y+4, r25	; 0x04
    336e:	6d 83       	std	Y+5, r22	; 0x05
    3370:	7e 83       	std	Y+6, r23	; 0x06
    3372:	4f 83       	std	Y+7, r20	; 0x07
    3374:	58 87       	std	Y+8, r21	; 0x08
	if(empty())
    3376:	8b 81       	ldd	r24, Y+3	; 0x03
    3378:	9c 81       	ldd	r25, Y+4	; 0x04
    337a:	0e 94 f3 17 	call	0x2fe6	; 0x2fe6 <_ZNK18CircularStringBuff5emptyEv>
    337e:	88 23       	and	r24, r24
    3380:	71 f0       	breq	.+28     	; 0x339e <_ZN18CircularStringBuff9getStringEPcPj+0x42>
	{
		 str[0] = '\0';
    3382:	8d 81       	ldd	r24, Y+5	; 0x05
    3384:	9e 81       	ldd	r25, Y+6	; 0x06
    3386:	fc 01       	movw	r30, r24
    3388:	10 82       	st	Z, r1
		 if(length) *length = 0;
    338a:	8f 81       	ldd	r24, Y+7	; 0x07
    338c:	98 85       	ldd	r25, Y+8	; 0x08
    338e:	89 2b       	or	r24, r25
    3390:	79 f1       	breq	.+94     	; 0x33f0 <_ZN18CircularStringBuff9getStringEPcPj+0x94>
    3392:	8f 81       	ldd	r24, Y+7	; 0x07
    3394:	98 85       	ldd	r25, Y+8	; 0x08
    3396:	fc 01       	movw	r30, r24
    3398:	10 82       	st	Z, r1
    339a:	11 82       	std	Z+1, r1	; 0x01
		 return;
    339c:	29 c0       	rjmp	.+82     	; 0x33f0 <_ZN18CircularStringBuff9getStringEPcPj+0x94>
	}
	
	char c;
	uint8_t i = 0;
    339e:	19 82       	std	Y+1, r1	; 0x01
	
	while((c = get()))
    33a0:	8b 81       	ldd	r24, Y+3	; 0x03
    33a2:	9c 81       	ldd	r25, Y+4	; 0x04
    33a4:	0e 94 0b 19 	call	0x3216	; 0x3216 <_ZN18CircularStringBuff3getEv>
    33a8:	8a 83       	std	Y+2, r24	; 0x02
    33aa:	81 e0       	ldi	r24, 0x01	; 1
    33ac:	9a 81       	ldd	r25, Y+2	; 0x02
    33ae:	99 23       	and	r25, r25
    33b0:	09 f4       	brne	.+2      	; 0x33b4 <_ZN18CircularStringBuff9getStringEPcPj+0x58>
    33b2:	80 e0       	ldi	r24, 0x00	; 0
    33b4:	88 23       	and	r24, r24
    33b6:	71 f0       	breq	.+28     	; 0x33d4 <_ZN18CircularStringBuff9getStringEPcPj+0x78>
	{
		str[i++] = c;		
    33b8:	89 81       	ldd	r24, Y+1	; 0x01
    33ba:	91 e0       	ldi	r25, 0x01	; 1
    33bc:	98 0f       	add	r25, r24
    33be:	99 83       	std	Y+1, r25	; 0x01
    33c0:	88 2f       	mov	r24, r24
    33c2:	90 e0       	ldi	r25, 0x00	; 0
    33c4:	2d 81       	ldd	r18, Y+5	; 0x05
    33c6:	3e 81       	ldd	r19, Y+6	; 0x06
    33c8:	82 0f       	add	r24, r18
    33ca:	93 1f       	adc	r25, r19
    33cc:	2a 81       	ldd	r18, Y+2	; 0x02
    33ce:	fc 01       	movw	r30, r24
    33d0:	20 83       	st	Z, r18
	}
	
	char c;
	uint8_t i = 0;
	
	while((c = get()))
    33d2:	e6 cf       	rjmp	.-52     	; 0x33a0 <_ZN18CircularStringBuff9getStringEPcPj+0x44>
	{
		str[i++] = c;		
	}
	
	if(length) *length = i;
    33d4:	8f 81       	ldd	r24, Y+7	; 0x07
    33d6:	98 85       	ldd	r25, Y+8	; 0x08
    33d8:	89 2b       	or	r24, r25
    33da:	61 f0       	breq	.+24     	; 0x33f4 <_ZN18CircularStringBuff9getStringEPcPj+0x98>
    33dc:	89 81       	ldd	r24, Y+1	; 0x01
    33de:	28 2f       	mov	r18, r24
    33e0:	30 e0       	ldi	r19, 0x00	; 0
    33e2:	8f 81       	ldd	r24, Y+7	; 0x07
    33e4:	98 85       	ldd	r25, Y+8	; 0x08
    33e6:	fc 01       	movw	r30, r24
    33e8:	20 83       	st	Z, r18
    33ea:	31 83       	std	Z+1, r19	; 0x01
	
	return;
    33ec:	00 00       	nop
    33ee:	02 c0       	rjmp	.+4      	; 0x33f4 <_ZN18CircularStringBuff9getStringEPcPj+0x98>
{
	if(empty())
	{
		 str[0] = '\0';
		 if(length) *length = 0;
		 return;
    33f0:	00 00       	nop
    33f2:	01 c0       	rjmp	.+2      	; 0x33f6 <_ZN18CircularStringBuff9getStringEPcPj+0x9a>
		str[i++] = c;		
	}
	
	if(length) *length = i;
	
	return;
    33f4:	00 00       	nop
}
    33f6:	28 96       	adiw	r28, 0x08	; 8
    33f8:	cd bf       	out	0x3d, r28	; 61
    33fa:	de bf       	out	0x3e, r29	; 62
    33fc:	df 91       	pop	r29
    33fe:	cf 91       	pop	r28
    3400:	08 95       	ret

00003402 <ccp_write_io>:
 * \note Using IAR Embedded workbench, the choice of memory model has an impact
 *       on calling convention. The memory model is not visible to the
 *       preprocessor, so it must be defined in the Assembler preprocessor directives.
 */
static inline void ccp_write_io(void *addr, uint8_t value)
{
    3402:	cf 93       	push	r28
    3404:	df 93       	push	r29
    3406:	00 d0       	rcall	.+0      	; 0x3408 <ccp_write_io+0x6>
    3408:	1f 92       	push	r1
    340a:	cd b7       	in	r28, 0x3d	; 61
    340c:	de b7       	in	r29, 0x3e	; 62
    340e:	89 83       	std	Y+1, r24	; 0x01
    3410:	9a 83       	std	Y+2, r25	; 0x02
    3412:	6b 83       	std	Y+3, r22	; 0x03
	protected_write_io(addr, CCP_IOREG_gc, value);
    3414:	89 81       	ldd	r24, Y+1	; 0x01
    3416:	9a 81       	ldd	r25, Y+2	; 0x02
    3418:	4b 81       	ldd	r20, Y+3	; 0x03
    341a:	68 ed       	ldi	r22, 0xD8	; 216
    341c:	0e 94 a4 28 	call	0x5148	; 0x5148 <protected_write_io>
}
    3420:	00 00       	nop
    3422:	23 96       	adiw	r28, 0x03	; 3
    3424:	cd bf       	out	0x3d, r28	; 61
    3426:	de bf       	out	0x3e, r29	; 62
    3428:	df 91       	pop	r29
    342a:	cf 91       	pop	r28
    342c:	08 95       	ret

0000342e <CLKCTRL_init>:
 * \brief Initialize clkctrl interface
 *
 * \return Initialization status.
 */
int8_t CLKCTRL_init()
{
    342e:	cf 93       	push	r28
    3430:	df 93       	push	r29
    3432:	cd b7       	in	r28, 0x3d	; 61
    3434:	de b7       	in	r29, 0x3e	; 62
	ccp_write_io((void *)&(CLKCTRL.XOSC32KCTRLA),CLKCTRL_CSUT_1K_gc /* 1k cycles */
    3436:	65 e8       	ldi	r22, 0x85	; 133
    3438:	8c e7       	ldi	r24, 0x7C	; 124
    343a:	90 e0       	ldi	r25, 0x00	; 0
    343c:	0e 94 01 1a 	call	0x3402	; 0x3402 <ccp_write_io>

	// ccp_write_io((void*)&(CLKCTRL.PLLCTRLA),0 << CLKCTRL_RUNSTDBY_bp /* Run Standby: disabled */
	//		 | CLKCTRL_MULFAC_DISABLE_gc /* 1 */
	//		 | 0 << CLKCTRL_SOURCE_bp /* Select Source for PLL: disabled */);

	ccp_write_io((void*)&(CLKCTRL.OSCHFCTRLA),CLKCTRL_FRQSEL_24M_gc /* 4 */
    3440:	65 e2       	ldi	r22, 0x25	; 37
    3442:	88 e6       	ldi	r24, 0x68	; 104
    3444:	90 e0       	ldi	r25, 0x00	; 0
    3446:	0e 94 01 1a 	call	0x3402	; 0x3402 <ccp_write_io>
	// ccp_write_io((void*)&(CLKCTRL.MCLKCTRLA),CLKCTRL_CLKSEL_OSCHF_gc /* Internal high-frequency oscillator */
	//		 | 0 << CLKCTRL_CLKOUT_bp /* System clock out: disabled */);

	// ccp_write_io((void*)&(CLKCTRL.MCLKLOCK),0 << CLKCTRL_LOCKEN_bp /* lock enable: disabled */);

	return 0;
    344a:	80 e0       	ldi	r24, 0x00	; 0
}
    344c:	df 91       	pop	r29
    344e:	cf 91       	pop	r28
    3450:	08 95       	ret

00003452 <CPUINT_init>:
 * \brief Initialize cpuint interface
 *
 * \return Initialization status
 */
int8_t CPUINT_init()
{
    3452:	cf 93       	push	r28
    3454:	df 93       	push	r29
    3456:	cd b7       	in	r28, 0x3d	; 61
    3458:	de b7       	in	r29, 0x3e	; 62

	// CPUINT.LVL0PRI = 0x0 << CPUINT_LVL0PRI_gp; /* Interrupt Level Priority: 0x0 */

	// CPUINT.LVL1VEC = 0x0 << CPUINT_LVL1VEC_gp; /* Interrupt Vector with High Priority: 0x0 */

	ENABLE_INTERRUPTS();
    345a:	78 94       	sei

	return 0;
    345c:	80 e0       	ldi	r24, 0x00	; 0
}
    345e:	df 91       	pop	r29
    3460:	cf 91       	pop	r28
    3462:	08 95       	ret

00003464 <_ZL9VREF_initv>:
#define LSB_MASK                 (0x03)



static void VREF_init(void)
{
    3464:	cf 93       	push	r28
    3466:	df 93       	push	r29
    3468:	cd b7       	in	r28, 0x3d	; 61
    346a:	de b7       	in	r29, 0x3e	; 62
    VREF.DAC0REF = VREF_REFSEL_2V048_gc /* Select the 2.048V Internal Voltage Reference for DAC */
    346c:	80 ea       	ldi	r24, 0xA0	; 160
    346e:	90 e0       	ldi	r25, 0x00	; 0
    3470:	21 e8       	ldi	r18, 0x81	; 129
    3472:	fc 01       	movw	r30, r24
    3474:	22 83       	std	Z+2, r18	; 0x02
//	VREF.DAC0REF = VREF_REFSEL_2V500_gc; /* Select the 2.500V Internal Voltage Reference for DAC */
//	| VREF_ALWAYSON_bm;    /* Set the Voltage Reference in Always On mode */
//	VREF.DAC0REF = VREF_REFSEL_2V500_gc; /* Select the 2.048V Internal Voltage Reference for DAC */
	/* Wait VREF start-up time */
//	while(util_delay_ms(VREF_STARTUP_TIME_MS));
}
    3476:	00 00       	nop
    3478:	df 91       	pop	r29
    347a:	cf 91       	pop	r28
    347c:	08 95       	ret

0000347e <_Z9DAC0_initv>:

void DAC0_init(void)
{
    347e:	cf 93       	push	r28
    3480:	df 93       	push	r29
    3482:	cd b7       	in	r28, 0x3d	; 61
    3484:	de b7       	in	r29, 0x3e	; 62
	VREF_init();
    3486:	0e 94 32 1a 	call	0x3464	; 0x3464 <_ZL9VREF_initv>
	
    /* Disable digital input buffer */
    PORTD.PIN6CTRL &= ~PORT_ISC_gm;
    348a:	80 e6       	ldi	r24, 0x60	; 96
    348c:	94 e0       	ldi	r25, 0x04	; 4
    348e:	fc 01       	movw	r30, r24
    3490:	26 89       	ldd	r18, Z+22	; 0x16
    3492:	80 e6       	ldi	r24, 0x60	; 96
    3494:	94 e0       	ldi	r25, 0x04	; 4
    3496:	28 7f       	andi	r18, 0xF8	; 248
    3498:	fc 01       	movw	r30, r24
    349a:	26 8b       	std	Z+22, r18	; 0x16
    PORTD.PIN6CTRL |= PORT_ISC_INPUT_DISABLE_gc;
    349c:	80 e6       	ldi	r24, 0x60	; 96
    349e:	94 e0       	ldi	r25, 0x04	; 4
    34a0:	fc 01       	movw	r30, r24
    34a2:	26 89       	ldd	r18, Z+22	; 0x16
    34a4:	80 e6       	ldi	r24, 0x60	; 96
    34a6:	94 e0       	ldi	r25, 0x04	; 4
    34a8:	24 60       	ori	r18, 0x04	; 4
    34aa:	fc 01       	movw	r30, r24
    34ac:	26 8b       	std	Z+22, r18	; 0x16
    /* Disable pull-up resistor */
    PORTD.PIN6CTRL &= ~PORT_PULLUPEN_bm;   
    34ae:	80 e6       	ldi	r24, 0x60	; 96
    34b0:	94 e0       	ldi	r25, 0x04	; 4
    34b2:	fc 01       	movw	r30, r24
    34b4:	26 89       	ldd	r18, Z+22	; 0x16
    34b6:	80 e6       	ldi	r24, 0x60	; 96
    34b8:	94 e0       	ldi	r25, 0x04	; 4
    34ba:	27 7f       	andi	r18, 0xF7	; 247
    34bc:	fc 01       	movw	r30, r24
    34be:	26 8b       	std	Z+22, r18	; 0x16
    DAC0.CTRLA = DAC_ENABLE_bm          /* Enable DAC */
    34c0:	80 ea       	ldi	r24, 0xA0	; 160
    34c2:	96 e0       	ldi	r25, 0x06	; 6
    34c4:	21 e4       	ldi	r18, 0x41	; 65
    34c6:	fc 01       	movw	r30, r24
    34c8:	20 83       	st	Z, r18
// 	PORTD.PIN6CTRL &= ~PORT_PULLUPEN_bm;
// 	DAC0.CTRLA = DAC_ENABLE_bm          /* Enable DAC */
// 	| DAC_OUTEN_bm;           /* Enable output buffer */
// 	
// 	DAC0_setVal(DAC_DEFAULT_VALUE);
}
    34ca:	00 00       	nop
    34cc:	df 91       	pop	r29
    34ce:	cf 91       	pop	r28
    34d0:	08 95       	ret

000034d2 <_Z11DAC0_setValj>:

void DAC0_setVal(uint16_t value)
{
    34d2:	cf 93       	push	r28
    34d4:	df 93       	push	r29
    34d6:	00 d0       	rcall	.+0      	; 0x34d8 <_Z11DAC0_setValj+0x6>
    34d8:	cd b7       	in	r28, 0x3d	; 61
    34da:	de b7       	in	r29, 0x3e	; 62
    34dc:	89 83       	std	Y+1, r24	; 0x01
    34de:	9a 83       	std	Y+2, r25	; 0x02
    /* Store the two LSbs in DAC0.DATAL */
    DAC0.DATAL = (value & LSB_MASK) << 6;
    34e0:	29 81       	ldd	r18, Y+1	; 0x01
    34e2:	80 ea       	ldi	r24, 0xA0	; 160
    34e4:	96 e0       	ldi	r25, 0x06	; 6
    34e6:	22 95       	swap	r18
    34e8:	22 0f       	add	r18, r18
    34ea:	22 0f       	add	r18, r18
    34ec:	20 7c       	andi	r18, 0xC0	; 192
    34ee:	fc 01       	movw	r30, r24
    34f0:	22 83       	std	Z+2, r18	; 0x02
    /* Store the eight MSbs in DAC0.DATAH */
    DAC0.DATAH = value >> 2;
    34f2:	89 81       	ldd	r24, Y+1	; 0x01
    34f4:	9a 81       	ldd	r25, Y+2	; 0x02
    34f6:	9c 01       	movw	r18, r24
    34f8:	36 95       	lsr	r19
    34fa:	27 95       	ror	r18
    34fc:	36 95       	lsr	r19
    34fe:	27 95       	ror	r18
    3500:	80 ea       	ldi	r24, 0xA0	; 160
    3502:	96 e0       	ldi	r25, 0x06	; 6
    3504:	fc 01       	movw	r30, r24
    3506:	23 83       	std	Z+3, r18	; 0x03
}
    3508:	00 00       	nop
    350a:	0f 90       	pop	r0
    350c:	0f 90       	pop	r0
    350e:	df 91       	pop	r29
    3510:	cf 91       	pop	r28
    3512:	08 95       	ret

00003514 <PORTB_set_pin_level>:
}

void Display::finishCommand() {
	if(lines == 4) sendCommand(COMMAND_8BIT_4LINES_RE0_IS0);
	else sendCommand(COMMAND_8BIT_4LINES_RE0_IS0_DH1);
}
    3514:	cf 93       	push	r28
    3516:	df 93       	push	r29
    3518:	00 d0       	rcall	.+0      	; 0x351a <PORTB_set_pin_level+0x6>
    351a:	cd b7       	in	r28, 0x3d	; 61
    351c:	de b7       	in	r29, 0x3e	; 62
    351e:	89 83       	std	Y+1, r24	; 0x01
    3520:	6a 83       	std	Y+2, r22	; 0x02
    3522:	8a 81       	ldd	r24, Y+2	; 0x02
    3524:	88 23       	and	r24, r24
    3526:	b1 f0       	breq	.+44     	; 0x3554 <PORTB_set_pin_level+0x40>
    3528:	84 e0       	ldi	r24, 0x04	; 4
    352a:	90 e0       	ldi	r25, 0x00	; 0
    352c:	fc 01       	movw	r30, r24
    352e:	81 81       	ldd	r24, Z+1	; 0x01
    3530:	48 2f       	mov	r20, r24
    3532:	89 81       	ldd	r24, Y+1	; 0x01
    3534:	28 2f       	mov	r18, r24
    3536:	30 e0       	ldi	r19, 0x00	; 0
    3538:	81 e0       	ldi	r24, 0x01	; 1
    353a:	90 e0       	ldi	r25, 0x00	; 0
    353c:	02 c0       	rjmp	.+4      	; 0x3542 <PORTB_set_pin_level+0x2e>
    353e:	88 0f       	add	r24, r24
    3540:	99 1f       	adc	r25, r25
    3542:	2a 95       	dec	r18
    3544:	e2 f7       	brpl	.-8      	; 0x353e <PORTB_set_pin_level+0x2a>
    3546:	24 2f       	mov	r18, r20
    3548:	28 2b       	or	r18, r24
    354a:	84 e0       	ldi	r24, 0x04	; 4
    354c:	90 e0       	ldi	r25, 0x00	; 0
    354e:	fc 01       	movw	r30, r24
    3550:	21 83       	std	Z+1, r18	; 0x01
    3552:	16 c0       	rjmp	.+44     	; 0x3580 <PORTB_set_pin_level+0x6c>
    3554:	84 e0       	ldi	r24, 0x04	; 4
    3556:	90 e0       	ldi	r25, 0x00	; 0
    3558:	fc 01       	movw	r30, r24
    355a:	81 81       	ldd	r24, Z+1	; 0x01
    355c:	48 2f       	mov	r20, r24
    355e:	89 81       	ldd	r24, Y+1	; 0x01
    3560:	28 2f       	mov	r18, r24
    3562:	30 e0       	ldi	r19, 0x00	; 0
    3564:	81 e0       	ldi	r24, 0x01	; 1
    3566:	90 e0       	ldi	r25, 0x00	; 0
    3568:	02 c0       	rjmp	.+4      	; 0x356e <PORTB_set_pin_level+0x5a>
    356a:	88 0f       	add	r24, r24
    356c:	99 1f       	adc	r25, r25
    356e:	2a 95       	dec	r18
    3570:	e2 f7       	brpl	.-8      	; 0x356a <PORTB_set_pin_level+0x56>
    3572:	80 95       	com	r24
    3574:	24 2f       	mov	r18, r20
    3576:	28 23       	and	r18, r24
    3578:	84 e0       	ldi	r24, 0x04	; 4
    357a:	90 e0       	ldi	r25, 0x00	; 0
    357c:	fc 01       	movw	r30, r24
    357e:	21 83       	std	Z+1, r18	; 0x01
    3580:	00 00       	nop
    3582:	0f 90       	pop	r0
    3584:	0f 90       	pop	r0
    3586:	df 91       	pop	r29
    3588:	cf 91       	pop	r28
    358a:	08 95       	ret

0000358c <_ZN7DisplayC1Ev>:
    358c:	cf 93       	push	r28
    358e:	df 93       	push	r29
    3590:	00 d0       	rcall	.+0      	; 0x3592 <_ZN7DisplayC1Ev+0x6>
    3592:	cd b7       	in	r28, 0x3d	; 61
    3594:	de b7       	in	r29, 0x3e	; 62
    3596:	89 83       	std	Y+1, r24	; 0x01
    3598:	9a 83       	std	Y+2, r25	; 0x02
    359a:	2b ed       	ldi	r18, 0xDB	; 219
    359c:	30 e4       	ldi	r19, 0x40	; 64
    359e:	89 81       	ldd	r24, Y+1	; 0x01
    35a0:	9a 81       	ldd	r25, Y+2	; 0x02
    35a2:	fc 01       	movw	r30, r24
    35a4:	20 83       	st	Z, r18
    35a6:	31 83       	std	Z+1, r19	; 0x01
    35a8:	89 81       	ldd	r24, Y+1	; 0x01
    35aa:	9a 81       	ldd	r25, Y+2	; 0x02
    35ac:	28 e7       	ldi	r18, 0x78	; 120
    35ae:	fc 01       	movw	r30, r24
    35b0:	26 83       	std	Z+6, r18	; 0x06
    35b2:	00 00       	nop
    35b4:	0f 90       	pop	r0
    35b6:	0f 90       	pop	r0
    35b8:	df 91       	pop	r29
    35ba:	cf 91       	pop	r28
    35bc:	08 95       	ret

000035be <_ZN7Display5beginE9display_t>:
    35be:	cf 93       	push	r28
    35c0:	df 93       	push	r29
    35c2:	00 d0       	rcall	.+0      	; 0x35c4 <_ZN7Display5beginE9display_t+0x6>
    35c4:	00 d0       	rcall	.+0      	; 0x35c6 <_ZN7Display5beginE9display_t+0x8>
    35c6:	cd b7       	in	r28, 0x3d	; 61
    35c8:	de b7       	in	r29, 0x3e	; 62
    35ca:	89 83       	std	Y+1, r24	; 0x01
    35cc:	9a 83       	std	Y+2, r25	; 0x02
    35ce:	6b 83       	std	Y+3, r22	; 0x03
    35d0:	7c 83       	std	Y+4, r23	; 0x04
    35d2:	89 81       	ldd	r24, Y+1	; 0x01
    35d4:	9a 81       	ldd	r25, Y+2	; 0x02
    35d6:	2b 81       	ldd	r18, Y+3	; 0x03
    35d8:	3c 81       	ldd	r19, Y+4	; 0x04
    35da:	fc 01       	movw	r30, r24
    35dc:	22 83       	std	Z+2, r18	; 0x02
    35de:	33 83       	std	Z+3, r19	; 0x03
    35e0:	8b 81       	ldd	r24, Y+3	; 0x03
    35e2:	9c 81       	ldd	r25, Y+4	; 0x04
    35e4:	81 30       	cpi	r24, 0x01	; 1
    35e6:	91 05       	cpc	r25, r1
    35e8:	81 f0       	breq	.+32     	; 0x360a <_ZN7Display5beginE9display_t+0x4c>
    35ea:	82 30       	cpi	r24, 0x02	; 2
    35ec:	91 05       	cpc	r25, r1
    35ee:	c1 f0       	breq	.+48     	; 0x3620 <_ZN7Display5beginE9display_t+0x62>
    35f0:	89 2b       	or	r24, r25
    35f2:	09 f5       	brne	.+66     	; 0x3636 <_ZN7Display5beginE9display_t+0x78>
    35f4:	89 81       	ldd	r24, Y+1	; 0x01
    35f6:	9a 81       	ldd	r25, Y+2	; 0x02
    35f8:	24 e1       	ldi	r18, 0x14	; 20
    35fa:	fc 01       	movw	r30, r24
    35fc:	24 83       	std	Z+4, r18	; 0x04
    35fe:	89 81       	ldd	r24, Y+1	; 0x01
    3600:	9a 81       	ldd	r25, Y+2	; 0x02
    3602:	24 e0       	ldi	r18, 0x04	; 4
    3604:	fc 01       	movw	r30, r24
    3606:	25 83       	std	Z+5, r18	; 0x05
    3608:	16 c0       	rjmp	.+44     	; 0x3636 <_ZN7Display5beginE9display_t+0x78>
    360a:	89 81       	ldd	r24, Y+1	; 0x01
    360c:	9a 81       	ldd	r25, Y+2	; 0x02
    360e:	20 e1       	ldi	r18, 0x10	; 16
    3610:	fc 01       	movw	r30, r24
    3612:	24 83       	std	Z+4, r18	; 0x04
    3614:	89 81       	ldd	r24, Y+1	; 0x01
    3616:	9a 81       	ldd	r25, Y+2	; 0x02
    3618:	24 e0       	ldi	r18, 0x04	; 4
    361a:	fc 01       	movw	r30, r24
    361c:	25 83       	std	Z+5, r18	; 0x05
    361e:	0b c0       	rjmp	.+22     	; 0x3636 <_ZN7Display5beginE9display_t+0x78>
    3620:	89 81       	ldd	r24, Y+1	; 0x01
    3622:	9a 81       	ldd	r25, Y+2	; 0x02
    3624:	2a e0       	ldi	r18, 0x0A	; 10
    3626:	fc 01       	movw	r30, r24
    3628:	24 83       	std	Z+4, r18	; 0x04
    362a:	89 81       	ldd	r24, Y+1	; 0x01
    362c:	9a 81       	ldd	r25, Y+2	; 0x02
    362e:	24 e0       	ldi	r18, 0x04	; 4
    3630:	fc 01       	movw	r30, r24
    3632:	25 83       	std	Z+5, r18	; 0x05
    3634:	00 00       	nop
    3636:	89 81       	ldd	r24, Y+1	; 0x01
    3638:	9a 81       	ldd	r25, Y+2	; 0x02
    363a:	20 e8       	ldi	r18, 0x80	; 128
    363c:	fc 01       	movw	r30, r24
    363e:	21 87       	std	Z+9, r18	; 0x09
    3640:	89 81       	ldd	r24, Y+1	; 0x01
    3642:	9a 81       	ldd	r25, Y+2	; 0x02
    3644:	24 e0       	ldi	r18, 0x04	; 4
    3646:	fc 01       	movw	r30, r24
    3648:	22 87       	std	Z+10, r18	; 0x0a
    364a:	0e 94 95 21 	call	0x432a	; 0x432a <I2C_0_Init>
    364e:	89 81       	ldd	r24, Y+1	; 0x01
    3650:	9a 81       	ldd	r25, Y+2	; 0x02
    3652:	0e 94 4a 1b 	call	0x3694	; 0x3694 <_ZN7Display5resetEv>
    3656:	89 81       	ldd	r24, Y+1	; 0x01
    3658:	9a 81       	ldd	r25, Y+2	; 0x02
    365a:	0e 94 71 1b 	call	0x36e2	; 0x36e2 <_ZN7Display4initEv>
    365e:	89 81       	ldd	r24, Y+1	; 0x01
    3660:	9a 81       	ldd	r25, Y+2	; 0x02
    3662:	0e 94 ee 1b 	call	0x37dc	; 0x37dc <_ZN7Display3clsEv>
    3666:	89 81       	ldd	r24, Y+1	; 0x01
    3668:	9a 81       	ldd	r25, Y+2	; 0x02
    366a:	22 e0       	ldi	r18, 0x02	; 2
    366c:	fc 01       	movw	r30, r24
    366e:	27 83       	std	Z+7, r18	; 0x07
    3670:	89 81       	ldd	r24, Y+1	; 0x01
    3672:	9a 81       	ldd	r25, Y+2	; 0x02
    3674:	fc 01       	movw	r30, r24
    3676:	87 81       	ldd	r24, Z+7	; 0x07
    3678:	28 2f       	mov	r18, r24
    367a:	24 60       	ori	r18, 0x04	; 4
    367c:	89 81       	ldd	r24, Y+1	; 0x01
    367e:	9a 81       	ldd	r25, Y+2	; 0x02
    3680:	62 2f       	mov	r22, r18
    3682:	0e 94 58 1c 	call	0x38b0	; 0x38b0 <_ZN7Display11sendCommandEh>
    3686:	00 00       	nop
    3688:	24 96       	adiw	r28, 0x04	; 4
    368a:	cd bf       	out	0x3d, r28	; 61
    368c:	de bf       	out	0x3e, r29	; 62
    368e:	df 91       	pop	r29
    3690:	cf 91       	pop	r28
    3692:	08 95       	ret

00003694 <_ZN7Display5resetEv>:
    3694:	cf 93       	push	r28
    3696:	df 93       	push	r29
    3698:	00 d0       	rcall	.+0      	; 0x369a <_ZN7Display5resetEv+0x6>
    369a:	cd b7       	in	r28, 0x3d	; 61
    369c:	de b7       	in	r29, 0x3e	; 62
    369e:	89 83       	std	Y+1, r24	; 0x01
    36a0:	9a 83       	std	Y+2, r25	; 0x02
    36a2:	62 e3       	ldi	r22, 0x32	; 50
    36a4:	70 e0       	ldi	r23, 0x00	; 0
    36a6:	80 e0       	ldi	r24, 0x00	; 0
    36a8:	90 e0       	ldi	r25, 0x00	; 0
    36aa:	0e 94 a9 34 	call	0x6952	; 0x6952 <util_delay_ms>
    36ae:	60 e0       	ldi	r22, 0x00	; 0
    36b0:	84 e0       	ldi	r24, 0x04	; 4
    36b2:	0e 94 8a 1a 	call	0x3514	; 0x3514 <PORTB_set_pin_level>
    36b6:	64 e0       	ldi	r22, 0x04	; 4
    36b8:	70 e0       	ldi	r23, 0x00	; 0
    36ba:	80 e0       	ldi	r24, 0x00	; 0
    36bc:	90 e0       	ldi	r25, 0x00	; 0
    36be:	0e 94 a9 34 	call	0x6952	; 0x6952 <util_delay_ms>
    36c2:	61 e0       	ldi	r22, 0x01	; 1
    36c4:	84 e0       	ldi	r24, 0x04	; 4
    36c6:	0e 94 8a 1a 	call	0x3514	; 0x3514 <PORTB_set_pin_level>
    36ca:	64 e1       	ldi	r22, 0x14	; 20
    36cc:	70 e0       	ldi	r23, 0x00	; 0
    36ce:	80 e0       	ldi	r24, 0x00	; 0
    36d0:	90 e0       	ldi	r25, 0x00	; 0
    36d2:	0e 94 a9 34 	call	0x6952	; 0x6952 <util_delay_ms>
    36d6:	00 00       	nop
    36d8:	0f 90       	pop	r0
    36da:	0f 90       	pop	r0
    36dc:	df 91       	pop	r29
    36de:	cf 91       	pop	r28
    36e0:	08 95       	ret

000036e2 <_ZN7Display4initEv>:
    36e2:	cf 93       	push	r28
    36e4:	df 93       	push	r29
    36e6:	00 d0       	rcall	.+0      	; 0x36e8 <_ZN7Display4initEv+0x6>
    36e8:	cd b7       	in	r28, 0x3d	; 61
    36ea:	de b7       	in	r29, 0x3e	; 62
    36ec:	89 83       	std	Y+1, r24	; 0x01
    36ee:	9a 83       	std	Y+2, r25	; 0x02
    36f0:	89 81       	ldd	r24, Y+1	; 0x01
    36f2:	9a 81       	ldd	r25, Y+2	; 0x02
    36f4:	6a e3       	ldi	r22, 0x3A	; 58
    36f6:	0e 94 58 1c 	call	0x38b0	; 0x38b0 <_ZN7Display11sendCommandEh>
    36fa:	89 81       	ldd	r24, Y+1	; 0x01
    36fc:	9a 81       	ldd	r25, Y+2	; 0x02
    36fe:	69 e0       	ldi	r22, 0x09	; 9
    3700:	0e 94 58 1c 	call	0x38b0	; 0x38b0 <_ZN7Display11sendCommandEh>
    3704:	89 81       	ldd	r24, Y+1	; 0x01
    3706:	9a 81       	ldd	r25, Y+2	; 0x02
    3708:	66 e0       	ldi	r22, 0x06	; 6
    370a:	0e 94 58 1c 	call	0x38b0	; 0x38b0 <_ZN7Display11sendCommandEh>
    370e:	89 81       	ldd	r24, Y+1	; 0x01
    3710:	9a 81       	ldd	r25, Y+2	; 0x02
    3712:	6e e1       	ldi	r22, 0x1E	; 30
    3714:	0e 94 58 1c 	call	0x38b0	; 0x38b0 <_ZN7Display11sendCommandEh>
    3718:	89 81       	ldd	r24, Y+1	; 0x01
    371a:	9a 81       	ldd	r25, Y+2	; 0x02
    371c:	69 e3       	ldi	r22, 0x39	; 57
    371e:	0e 94 58 1c 	call	0x38b0	; 0x38b0 <_ZN7Display11sendCommandEh>
    3722:	89 81       	ldd	r24, Y+1	; 0x01
    3724:	9a 81       	ldd	r25, Y+2	; 0x02
    3726:	6b e1       	ldi	r22, 0x1B	; 27
    3728:	0e 94 58 1c 	call	0x38b0	; 0x38b0 <_ZN7Display11sendCommandEh>
    372c:	89 81       	ldd	r24, Y+1	; 0x01
    372e:	9a 81       	ldd	r25, Y+2	; 0x02
    3730:	fc 01       	movw	r30, r24
    3732:	82 81       	ldd	r24, Z+2	; 0x02
    3734:	93 81       	ldd	r25, Z+3	; 0x03
    3736:	81 30       	cpi	r24, 0x01	; 1
    3738:	91 05       	cpc	r25, r1
    373a:	a9 f0       	breq	.+42     	; 0x3766 <_ZN7Display4initEv+0x84>
    373c:	82 30       	cpi	r24, 0x02	; 2
    373e:	91 05       	cpc	r25, r1
    3740:	11 f1       	breq	.+68     	; 0x3786 <_ZN7Display4initEv+0xa4>
    3742:	89 2b       	or	r24, r25
    3744:	81 f5       	brne	.+96     	; 0x37a6 <_ZN7Display4initEv+0xc4>
    3746:	89 81       	ldd	r24, Y+1	; 0x01
    3748:	9a 81       	ldd	r25, Y+2	; 0x02
    374a:	6e e6       	ldi	r22, 0x6E	; 110
    374c:	0e 94 58 1c 	call	0x38b0	; 0x38b0 <_ZN7Display11sendCommandEh>
    3750:	89 81       	ldd	r24, Y+1	; 0x01
    3752:	9a 81       	ldd	r25, Y+2	; 0x02
    3754:	67 e5       	ldi	r22, 0x57	; 87
    3756:	0e 94 58 1c 	call	0x38b0	; 0x38b0 <_ZN7Display11sendCommandEh>
    375a:	89 81       	ldd	r24, Y+1	; 0x01
    375c:	9a 81       	ldd	r25, Y+2	; 0x02
    375e:	62 e7       	ldi	r22, 0x72	; 114
    3760:	0e 94 58 1c 	call	0x38b0	; 0x38b0 <_ZN7Display11sendCommandEh>
    3764:	20 c0       	rjmp	.+64     	; 0x37a6 <_ZN7Display4initEv+0xc4>
    3766:	89 81       	ldd	r24, Y+1	; 0x01
    3768:	9a 81       	ldd	r25, Y+2	; 0x02
    376a:	6c e6       	ldi	r22, 0x6C	; 108
    376c:	0e 94 58 1c 	call	0x38b0	; 0x38b0 <_ZN7Display11sendCommandEh>
    3770:	89 81       	ldd	r24, Y+1	; 0x01
    3772:	9a 81       	ldd	r25, Y+2	; 0x02
    3774:	66 e5       	ldi	r22, 0x56	; 86
    3776:	0e 94 58 1c 	call	0x38b0	; 0x38b0 <_ZN7Display11sendCommandEh>
    377a:	89 81       	ldd	r24, Y+1	; 0x01
    377c:	9a 81       	ldd	r25, Y+2	; 0x02
    377e:	6b e6       	ldi	r22, 0x6B	; 107
    3780:	0e 94 58 1c 	call	0x38b0	; 0x38b0 <_ZN7Display11sendCommandEh>
    3784:	10 c0       	rjmp	.+32     	; 0x37a6 <_ZN7Display4initEv+0xc4>
    3786:	89 81       	ldd	r24, Y+1	; 0x01
    3788:	9a 81       	ldd	r25, Y+2	; 0x02
    378a:	6e e6       	ldi	r22, 0x6E	; 110
    378c:	0e 94 58 1c 	call	0x38b0	; 0x38b0 <_ZN7Display11sendCommandEh>
    3790:	89 81       	ldd	r24, Y+1	; 0x01
    3792:	9a 81       	ldd	r25, Y+2	; 0x02
    3794:	66 e5       	ldi	r22, 0x56	; 86
    3796:	0e 94 58 1c 	call	0x38b0	; 0x38b0 <_ZN7Display11sendCommandEh>
    379a:	89 81       	ldd	r24, Y+1	; 0x01
    379c:	9a 81       	ldd	r25, Y+2	; 0x02
    379e:	6a e7       	ldi	r22, 0x7A	; 122
    37a0:	0e 94 58 1c 	call	0x38b0	; 0x38b0 <_ZN7Display11sendCommandEh>
    37a4:	00 00       	nop
    37a6:	89 81       	ldd	r24, Y+1	; 0x01
    37a8:	9a 81       	ldd	r25, Y+2	; 0x02
    37aa:	68 e3       	ldi	r22, 0x38	; 56
    37ac:	0e 94 58 1c 	call	0x38b0	; 0x38b0 <_ZN7Display11sendCommandEh>
    37b0:	89 81       	ldd	r24, Y+1	; 0x01
    37b2:	9a 81       	ldd	r25, Y+2	; 0x02
    37b4:	24 e0       	ldi	r18, 0x04	; 4
    37b6:	fc 01       	movw	r30, r24
    37b8:	20 87       	std	Z+8, r18	; 0x08
    37ba:	89 81       	ldd	r24, Y+1	; 0x01
    37bc:	9a 81       	ldd	r25, Y+2	; 0x02
    37be:	fc 01       	movw	r30, r24
    37c0:	80 85       	ldd	r24, Z+8	; 0x08
    37c2:	28 2f       	mov	r18, r24
    37c4:	28 60       	ori	r18, 0x08	; 8
    37c6:	89 81       	ldd	r24, Y+1	; 0x01
    37c8:	9a 81       	ldd	r25, Y+2	; 0x02
    37ca:	62 2f       	mov	r22, r18
    37cc:	0e 94 58 1c 	call	0x38b0	; 0x38b0 <_ZN7Display11sendCommandEh>
    37d0:	00 00       	nop
    37d2:	0f 90       	pop	r0
    37d4:	0f 90       	pop	r0
    37d6:	df 91       	pop	r29
    37d8:	cf 91       	pop	r28
    37da:	08 95       	ret

000037dc <_ZN7Display3clsEv>:
    37dc:	cf 93       	push	r28
    37de:	df 93       	push	r29
    37e0:	00 d0       	rcall	.+0      	; 0x37e2 <_ZN7Display3clsEv+0x6>
    37e2:	cd b7       	in	r28, 0x3d	; 61
    37e4:	de b7       	in	r29, 0x3e	; 62
    37e6:	89 83       	std	Y+1, r24	; 0x01
    37e8:	9a 83       	std	Y+2, r25	; 0x02
    37ea:	89 81       	ldd	r24, Y+1	; 0x01
    37ec:	9a 81       	ldd	r25, Y+2	; 0x02
    37ee:	61 e0       	ldi	r22, 0x01	; 1
    37f0:	0e 94 58 1c 	call	0x38b0	; 0x38b0 <_ZN7Display11sendCommandEh>
    37f4:	00 00       	nop
    37f6:	0f 90       	pop	r0
    37f8:	0f 90       	pop	r0
    37fa:	df 91       	pop	r29
    37fc:	cf 91       	pop	r28
    37fe:	08 95       	ret

00003800 <_ZN7Display6locateEhh>:
    3800:	cf 93       	push	r28
    3802:	df 93       	push	r29
    3804:	00 d0       	rcall	.+0      	; 0x3806 <_ZN7Display6locateEhh+0x6>
    3806:	00 d0       	rcall	.+0      	; 0x3808 <_ZN7Display6locateEhh+0x8>
    3808:	cd b7       	in	r28, 0x3d	; 61
    380a:	de b7       	in	r29, 0x3e	; 62
    380c:	89 83       	std	Y+1, r24	; 0x01
    380e:	9a 83       	std	Y+2, r25	; 0x02
    3810:	6b 83       	std	Y+3, r22	; 0x03
    3812:	4c 83       	std	Y+4, r20	; 0x04
    3814:	89 81       	ldd	r24, Y+1	; 0x01
    3816:	9a 81       	ldd	r25, Y+2	; 0x02
    3818:	fc 01       	movw	r30, r24
    381a:	81 85       	ldd	r24, Z+9	; 0x09
    381c:	28 2f       	mov	r18, r24
    381e:	8b 81       	ldd	r24, Y+3	; 0x03
    3820:	98 2f       	mov	r25, r24
    3822:	92 95       	swap	r25
    3824:	99 0f       	add	r25, r25
    3826:	90 7e       	andi	r25, 0xE0	; 224
    3828:	8c 81       	ldd	r24, Y+4	; 0x04
    382a:	89 0f       	add	r24, r25
    382c:	82 2b       	or	r24, r18
    382e:	28 2f       	mov	r18, r24
    3830:	89 81       	ldd	r24, Y+1	; 0x01
    3832:	9a 81       	ldd	r25, Y+2	; 0x02
    3834:	62 2f       	mov	r22, r18
    3836:	0e 94 58 1c 	call	0x38b0	; 0x38b0 <_ZN7Display11sendCommandEh>
    383a:	00 00       	nop
    383c:	24 96       	adiw	r28, 0x04	; 4
    383e:	cd bf       	out	0x3d, r28	; 61
    3840:	de bf       	out	0x3e, r29	; 62
    3842:	df 91       	pop	r29
    3844:	cf 91       	pop	r28
    3846:	08 95       	ret

00003848 <_ZN7Display5writeEh>:
    3848:	cf 93       	push	r28
    384a:	df 93       	push	r29
    384c:	00 d0       	rcall	.+0      	; 0x384e <_ZN7Display5writeEh+0x6>
    384e:	1f 92       	push	r1
    3850:	cd b7       	in	r28, 0x3d	; 61
    3852:	de b7       	in	r29, 0x3e	; 62
    3854:	89 83       	std	Y+1, r24	; 0x01
    3856:	9a 83       	std	Y+2, r25	; 0x02
    3858:	6b 83       	std	Y+3, r22	; 0x03
    385a:	89 81       	ldd	r24, Y+1	; 0x01
    385c:	9a 81       	ldd	r25, Y+2	; 0x02
    385e:	6b 81       	ldd	r22, Y+3	; 0x03
    3860:	0e 94 7a 1c 	call	0x38f4	; 0x38f4 <_ZN7Display8sendDataEh>
    3864:	81 e0       	ldi	r24, 0x01	; 1
    3866:	90 e0       	ldi	r25, 0x00	; 0
    3868:	23 96       	adiw	r28, 0x03	; 3
    386a:	cd bf       	out	0x3d, r28	; 61
    386c:	de bf       	out	0x3e, r29	; 62
    386e:	df 91       	pop	r29
    3870:	cf 91       	pop	r28
    3872:	08 95       	ret

00003874 <_ZN7Display5writeEPhj>:
    3874:	cf 93       	push	r28
    3876:	df 93       	push	r29
    3878:	cd b7       	in	r28, 0x3d	; 61
    387a:	de b7       	in	r29, 0x3e	; 62
    387c:	26 97       	sbiw	r28, 0x06	; 6
    387e:	cd bf       	out	0x3d, r28	; 61
    3880:	de bf       	out	0x3e, r29	; 62
    3882:	89 83       	std	Y+1, r24	; 0x01
    3884:	9a 83       	std	Y+2, r25	; 0x02
    3886:	6b 83       	std	Y+3, r22	; 0x03
    3888:	7c 83       	std	Y+4, r23	; 0x04
    388a:	4d 83       	std	Y+5, r20	; 0x05
    388c:	5e 83       	std	Y+6, r21	; 0x06
    388e:	4d 81       	ldd	r20, Y+5	; 0x05
    3890:	5e 81       	ldd	r21, Y+6	; 0x06
    3892:	2b 81       	ldd	r18, Y+3	; 0x03
    3894:	3c 81       	ldd	r19, Y+4	; 0x04
    3896:	89 81       	ldd	r24, Y+1	; 0x01
    3898:	9a 81       	ldd	r25, Y+2	; 0x02
    389a:	b9 01       	movw	r22, r18
    389c:	0e 94 9c 1c 	call	0x3938	; 0x3938 <_ZN7Display10sendBufferEPhj>
    38a0:	8d 81       	ldd	r24, Y+5	; 0x05
    38a2:	9e 81       	ldd	r25, Y+6	; 0x06
    38a4:	26 96       	adiw	r28, 0x06	; 6
    38a6:	cd bf       	out	0x3d, r28	; 61
    38a8:	de bf       	out	0x3e, r29	; 62
    38aa:	df 91       	pop	r29
    38ac:	cf 91       	pop	r28
    38ae:	08 95       	ret

000038b0 <_ZN7Display11sendCommandEh>:

EC Display::sendCommand(uint8_t cmd) {
    38b0:	cf 93       	push	r28
    38b2:	df 93       	push	r29
    38b4:	cd b7       	in	r28, 0x3d	; 61
    38b6:	de b7       	in	r29, 0x3e	; 62
    38b8:	25 97       	sbiw	r28, 0x05	; 5
    38ba:	cd bf       	out	0x3d, r28	; 61
    38bc:	de bf       	out	0x3e, r29	; 62
    38be:	8b 83       	std	Y+3, r24	; 0x03
    38c0:	9c 83       	std	Y+4, r25	; 0x04
    38c2:	6d 83       	std	Y+5, r22	; 0x05
	uint8_t data[2];
		
	data[0] = cmd;
    38c4:	8d 81       	ldd	r24, Y+5	; 0x05
    38c6:	89 83       	std	Y+1, r24	; 0x01
	if(display_write_bulk(MODE_COMMAND, data, 1)) return ERROR_CODE_DISPLAY_NONRESPONSIVE;
    38c8:	8b 81       	ldd	r24, Y+3	; 0x03
    38ca:	9c 81       	ldd	r25, Y+4	; 0x04
    38cc:	21 e0       	ldi	r18, 0x01	; 1
    38ce:	ae 01       	movw	r20, r28
    38d0:	4f 5f       	subi	r20, 0xFF	; 255
    38d2:	5f 4f       	sbci	r21, 0xFF	; 255
    38d4:	60 e0       	ldi	r22, 0x00	; 0
    38d6:	0e 94 be 1c 	call	0x397c	; 0x397c <_ZN7Display18display_write_bulkEhPhh>
    38da:	88 23       	and	r24, r24
    38dc:	19 f0       	breq	.+6      	; 0x38e4 <_ZN7Display11sendCommandEh+0x34>
    38de:	80 ee       	ldi	r24, 0xE0	; 224
    38e0:	90 e0       	ldi	r25, 0x00	; 0
    38e2:	02 c0       	rjmp	.+4      	; 0x38e8 <_ZN7Display11sendCommandEh+0x38>

	return ERROR_CODE_NO_ERROR;
    38e4:	80 e0       	ldi	r24, 0x00	; 0
    38e6:	90 e0       	ldi	r25, 0x00	; 0
}
    38e8:	25 96       	adiw	r28, 0x05	; 5
    38ea:	cd bf       	out	0x3d, r28	; 61
    38ec:	de bf       	out	0x3e, r29	; 62
    38ee:	df 91       	pop	r29
    38f0:	cf 91       	pop	r28
    38f2:	08 95       	ret

000038f4 <_ZN7Display8sendDataEh>:

EC Display::sendData(uint8_t val) {
    38f4:	cf 93       	push	r28
    38f6:	df 93       	push	r29
    38f8:	cd b7       	in	r28, 0x3d	; 61
    38fa:	de b7       	in	r29, 0x3e	; 62
    38fc:	25 97       	sbiw	r28, 0x05	; 5
    38fe:	cd bf       	out	0x3d, r28	; 61
    3900:	de bf       	out	0x3e, r29	; 62
    3902:	8b 83       	std	Y+3, r24	; 0x03
    3904:	9c 83       	std	Y+4, r25	; 0x04
    3906:	6d 83       	std	Y+5, r22	; 0x05
	uint8_t data[2];
	
	data[0] = val;
    3908:	8d 81       	ldd	r24, Y+5	; 0x05
    390a:	89 83       	std	Y+1, r24	; 0x01
	if(display_write_bulk(MODE_DATA, data, 1)) return ERROR_CODE_DISPLAY_NONRESPONSIVE;
    390c:	8b 81       	ldd	r24, Y+3	; 0x03
    390e:	9c 81       	ldd	r25, Y+4	; 0x04
    3910:	21 e0       	ldi	r18, 0x01	; 1
    3912:	ae 01       	movw	r20, r28
    3914:	4f 5f       	subi	r20, 0xFF	; 255
    3916:	5f 4f       	sbci	r21, 0xFF	; 255
    3918:	60 e4       	ldi	r22, 0x40	; 64
    391a:	0e 94 be 1c 	call	0x397c	; 0x397c <_ZN7Display18display_write_bulkEhPhh>
    391e:	88 23       	and	r24, r24
    3920:	19 f0       	breq	.+6      	; 0x3928 <_ZN7Display8sendDataEh+0x34>
    3922:	80 ee       	ldi	r24, 0xE0	; 224
    3924:	90 e0       	ldi	r25, 0x00	; 0
    3926:	02 c0       	rjmp	.+4      	; 0x392c <_ZN7Display8sendDataEh+0x38>

	return ERROR_CODE_NO_ERROR;
    3928:	80 e0       	ldi	r24, 0x00	; 0
    392a:	90 e0       	ldi	r25, 0x00	; 0
}
    392c:	25 96       	adiw	r28, 0x05	; 5
    392e:	cd bf       	out	0x3d, r28	; 61
    3930:	de bf       	out	0x3e, r29	; 62
    3932:	df 91       	pop	r29
    3934:	cf 91       	pop	r28
    3936:	08 95       	ret

00003938 <_ZN7Display10sendBufferEPhj>:

EC Display::sendBuffer(uint8_t *buffer, size_t size) {
    3938:	cf 93       	push	r28
    393a:	df 93       	push	r29
    393c:	cd b7       	in	r28, 0x3d	; 61
    393e:	de b7       	in	r29, 0x3e	; 62
    3940:	26 97       	sbiw	r28, 0x06	; 6
    3942:	cd bf       	out	0x3d, r28	; 61
    3944:	de bf       	out	0x3e, r29	; 62
    3946:	89 83       	std	Y+1, r24	; 0x01
    3948:	9a 83       	std	Y+2, r25	; 0x02
    394a:	6b 83       	std	Y+3, r22	; 0x03
    394c:	7c 83       	std	Y+4, r23	; 0x04
    394e:	4d 83       	std	Y+5, r20	; 0x05
    3950:	5e 83       	std	Y+6, r21	; 0x06
	if(display_write_bulk(MODE_DATA, buffer, size)) return ERROR_CODE_DISPLAY_NONRESPONSIVE;
    3952:	2d 81       	ldd	r18, Y+5	; 0x05
    3954:	4b 81       	ldd	r20, Y+3	; 0x03
    3956:	5c 81       	ldd	r21, Y+4	; 0x04
    3958:	89 81       	ldd	r24, Y+1	; 0x01
    395a:	9a 81       	ldd	r25, Y+2	; 0x02
    395c:	60 e4       	ldi	r22, 0x40	; 64
    395e:	0e 94 be 1c 	call	0x397c	; 0x397c <_ZN7Display18display_write_bulkEhPhh>
    3962:	88 23       	and	r24, r24
    3964:	19 f0       	breq	.+6      	; 0x396c <_ZN7Display10sendBufferEPhj+0x34>
    3966:	80 ee       	ldi	r24, 0xE0	; 224
    3968:	90 e0       	ldi	r25, 0x00	; 0
    396a:	02 c0       	rjmp	.+4      	; 0x3970 <_ZN7Display10sendBufferEPhj+0x38>
	return ERROR_CODE_NO_ERROR;
    396c:	80 e0       	ldi	r24, 0x00	; 0
    396e:	90 e0       	ldi	r25, 0x00	; 0
}
    3970:	26 96       	adiw	r28, 0x06	; 6
    3972:	cd bf       	out	0x3d, r28	; 61
    3974:	de bf       	out	0x3e, r29	; 62
    3976:	df 91       	pop	r29
    3978:	cf 91       	pop	r28
    397a:	08 95       	ret

0000397c <_ZN7Display18display_write_bulkEhPhh>:

bool Display::display_write_bulk(uint8_t regAddr, uint8_t *data, uint8_t bytes)
{
    397c:	cf 93       	push	r28
    397e:	df 93       	push	r29
    3980:	cd b7       	in	r28, 0x3d	; 61
    3982:	de b7       	in	r29, 0x3e	; 62
    3984:	28 97       	sbiw	r28, 0x08	; 8
    3986:	cd bf       	out	0x3d, r28	; 61
    3988:	de bf       	out	0x3e, r29	; 62
    398a:	8b 83       	std	Y+3, r24	; 0x03
    398c:	9c 83       	std	Y+4, r25	; 0x04
    398e:	6d 83       	std	Y+5, r22	; 0x05
    3990:	4e 83       	std	Y+6, r20	; 0x06
    3992:	5f 83       	std	Y+7, r21	; 0x07
    3994:	28 87       	std	Y+8, r18	; 0x08
	uint8_t tries = 5;
    3996:	85 e0       	ldi	r24, 0x05	; 5
    3998:	89 83       	std	Y+1, r24	; 0x01
	bool fail;
	while(tries-- && (fail = I2C_0_SendData(this->i2cAddr, regAddr, data, bytes) != bytes));
    399a:	89 81       	ldd	r24, Y+1	; 0x01
    399c:	9f ef       	ldi	r25, 0xFF	; 255
    399e:	98 0f       	add	r25, r24
    39a0:	99 83       	std	Y+1, r25	; 0x01
    39a2:	88 23       	and	r24, r24
    39a4:	c1 f0       	breq	.+48     	; 0x39d6 <_ZN7Display18display_write_bulkEhPhh+0x5a>
    39a6:	8b 81       	ldd	r24, Y+3	; 0x03
    39a8:	9c 81       	ldd	r25, Y+4	; 0x04
    39aa:	fc 01       	movw	r30, r24
    39ac:	36 81       	ldd	r19, Z+6	; 0x06
    39ae:	8e 81       	ldd	r24, Y+6	; 0x06
    39b0:	9f 81       	ldd	r25, Y+7	; 0x07
    39b2:	28 85       	ldd	r18, Y+8	; 0x08
    39b4:	ac 01       	movw	r20, r24
    39b6:	6d 81       	ldd	r22, Y+5	; 0x05
    39b8:	83 2f       	mov	r24, r19
    39ba:	0e 94 65 22 	call	0x44ca	; 0x44ca <I2C_0_SendData>
    39be:	28 2f       	mov	r18, r24
    39c0:	81 e0       	ldi	r24, 0x01	; 1
    39c2:	98 85       	ldd	r25, Y+8	; 0x08
    39c4:	92 17       	cp	r25, r18
    39c6:	09 f4       	brne	.+2      	; 0x39ca <_ZN7Display18display_write_bulkEhPhh+0x4e>
    39c8:	80 e0       	ldi	r24, 0x00	; 0
    39ca:	8a 83       	std	Y+2, r24	; 0x02
    39cc:	8a 81       	ldd	r24, Y+2	; 0x02
    39ce:	88 23       	and	r24, r24
    39d0:	11 f0       	breq	.+4      	; 0x39d6 <_ZN7Display18display_write_bulkEhPhh+0x5a>
    39d2:	81 e0       	ldi	r24, 0x01	; 1
    39d4:	01 c0       	rjmp	.+2      	; 0x39d8 <_ZN7Display18display_write_bulkEhPhh+0x5c>
    39d6:	80 e0       	ldi	r24, 0x00	; 0
    39d8:	88 23       	and	r24, r24
    39da:	09 f0       	breq	.+2      	; 0x39de <_ZN7Display18display_write_bulkEhPhh+0x62>
    39dc:	de cf       	rjmp	.-68     	; 0x399a <_ZN7Display18display_write_bulkEhPhh+0x1e>
	return(fail);
    39de:	8a 81       	ldd	r24, Y+2	; 0x02
}
    39e0:	28 96       	adiw	r28, 0x08	; 8
    39e2:	cd bf       	out	0x3d, r28	; 61
    39e4:	de bf       	out	0x3e, r29	; 62
    39e6:	df 91       	pop	r29
    39e8:	cf 91       	pop	r28
    39ea:	08 95       	ret

000039ec <PORTC_set_pin_dir>:
 *                      PORT_DIR_OUT = Data direction out
 *                      PORT_DIR_OFF = Disables the pin
 *                      (low power state)
 */
static inline void PORTC_set_pin_dir(const uint8_t pin, const enum port_dir dir)
{
    39ec:	cf 93       	push	r28
    39ee:	df 93       	push	r29
    39f0:	00 d0       	rcall	.+0      	; 0x39f2 <PORTC_set_pin_dir+0x6>
    39f2:	1f 92       	push	r1
    39f4:	cd b7       	in	r28, 0x3d	; 61
    39f6:	de b7       	in	r29, 0x3e	; 62
    39f8:	89 83       	std	Y+1, r24	; 0x01
    39fa:	6a 83       	std	Y+2, r22	; 0x02
    39fc:	7b 83       	std	Y+3, r23	; 0x03
	switch (dir) {
    39fe:	8a 81       	ldd	r24, Y+2	; 0x02
    3a00:	9b 81       	ldd	r25, Y+3	; 0x03
    3a02:	81 30       	cpi	r24, 0x01	; 1
    3a04:	91 05       	cpc	r25, r1
    3a06:	e9 f0       	breq	.+58     	; 0x3a42 <PORTC_set_pin_dir+0x56>
    3a08:	82 30       	cpi	r24, 0x02	; 2
    3a0a:	91 05       	cpc	r25, r1
    3a0c:	81 f1       	breq	.+96     	; 0x3a6e <PORTC_set_pin_dir+0x82>
    3a0e:	89 2b       	or	r24, r25
    3a10:	09 f0       	breq	.+2      	; 0x3a14 <PORTC_set_pin_dir+0x28>
		break;
	case PORT_DIR_OFF:
		*((uint8_t *)&PORTC + 0x10 + pin) |= 1 << PORT_PULLUPEN_bp;
		break;
	default:
		break;
    3a12:	3d c0       	rjmp	.+122    	; 0x3a8e <PORTC_set_pin_dir+0xa2>
 */
static inline void PORTC_set_pin_dir(const uint8_t pin, const enum port_dir dir)
{
	switch (dir) {
	case PORT_DIR_IN:
		VPORTC.DIR &= ~(1 << pin);
    3a14:	88 e0       	ldi	r24, 0x08	; 8
    3a16:	90 e0       	ldi	r25, 0x00	; 0
    3a18:	fc 01       	movw	r30, r24
    3a1a:	80 81       	ld	r24, Z
    3a1c:	48 2f       	mov	r20, r24
    3a1e:	89 81       	ldd	r24, Y+1	; 0x01
    3a20:	28 2f       	mov	r18, r24
    3a22:	30 e0       	ldi	r19, 0x00	; 0
    3a24:	81 e0       	ldi	r24, 0x01	; 1
    3a26:	90 e0       	ldi	r25, 0x00	; 0
    3a28:	02 c0       	rjmp	.+4      	; 0x3a2e <PORTC_set_pin_dir+0x42>
    3a2a:	88 0f       	add	r24, r24
    3a2c:	99 1f       	adc	r25, r25
    3a2e:	2a 95       	dec	r18
    3a30:	e2 f7       	brpl	.-8      	; 0x3a2a <PORTC_set_pin_dir+0x3e>
    3a32:	80 95       	com	r24
    3a34:	24 2f       	mov	r18, r20
    3a36:	28 23       	and	r18, r24
    3a38:	88 e0       	ldi	r24, 0x08	; 8
    3a3a:	90 e0       	ldi	r25, 0x00	; 0
    3a3c:	fc 01       	movw	r30, r24
    3a3e:	20 83       	st	Z, r18
		break;
    3a40:	26 c0       	rjmp	.+76     	; 0x3a8e <PORTC_set_pin_dir+0xa2>
	case PORT_DIR_OUT:
		VPORTC.DIR |= (1 << pin);
    3a42:	88 e0       	ldi	r24, 0x08	; 8
    3a44:	90 e0       	ldi	r25, 0x00	; 0
    3a46:	fc 01       	movw	r30, r24
    3a48:	80 81       	ld	r24, Z
    3a4a:	48 2f       	mov	r20, r24
    3a4c:	89 81       	ldd	r24, Y+1	; 0x01
    3a4e:	28 2f       	mov	r18, r24
    3a50:	30 e0       	ldi	r19, 0x00	; 0
    3a52:	81 e0       	ldi	r24, 0x01	; 1
    3a54:	90 e0       	ldi	r25, 0x00	; 0
    3a56:	02 c0       	rjmp	.+4      	; 0x3a5c <PORTC_set_pin_dir+0x70>
    3a58:	88 0f       	add	r24, r24
    3a5a:	99 1f       	adc	r25, r25
    3a5c:	2a 95       	dec	r18
    3a5e:	e2 f7       	brpl	.-8      	; 0x3a58 <PORTC_set_pin_dir+0x6c>
    3a60:	24 2f       	mov	r18, r20
    3a62:	28 2b       	or	r18, r24
    3a64:	88 e0       	ldi	r24, 0x08	; 8
    3a66:	90 e0       	ldi	r25, 0x00	; 0
    3a68:	fc 01       	movw	r30, r24
    3a6a:	20 83       	st	Z, r18
		break;
    3a6c:	10 c0       	rjmp	.+32     	; 0x3a8e <PORTC_set_pin_dir+0xa2>
	case PORT_DIR_OFF:
		*((uint8_t *)&PORTC + 0x10 + pin) |= 1 << PORT_PULLUPEN_bp;
    3a6e:	89 81       	ldd	r24, Y+1	; 0x01
    3a70:	88 2f       	mov	r24, r24
    3a72:	90 e0       	ldi	r25, 0x00	; 0
    3a74:	80 5b       	subi	r24, 0xB0	; 176
    3a76:	9b 4f       	sbci	r25, 0xFB	; 251
    3a78:	fc 01       	movw	r30, r24
    3a7a:	20 81       	ld	r18, Z
    3a7c:	89 81       	ldd	r24, Y+1	; 0x01
    3a7e:	88 2f       	mov	r24, r24
    3a80:	90 e0       	ldi	r25, 0x00	; 0
    3a82:	80 5b       	subi	r24, 0xB0	; 176
    3a84:	9b 4f       	sbci	r25, 0xFB	; 251
    3a86:	28 60       	ori	r18, 0x08	; 8
    3a88:	fc 01       	movw	r30, r24
    3a8a:	20 83       	st	Z, r18
		break;
    3a8c:	00 00       	nop
	default:
		break;
	}
}
    3a8e:	00 00       	nop
    3a90:	23 96       	adiw	r28, 0x03	; 3
    3a92:	cd bf       	out	0x3d, r28	; 61
    3a94:	de bf       	out	0x3e, r29	; 62
    3a96:	df 91       	pop	r29
    3a98:	cf 91       	pop	r28
    3a9a:	08 95       	ret

00003a9c <PORTC_set_pin_level>:
 * \param[in] pin       The pin number within port
 * \param[in] level true  = Pin level set to "high" state
 *                  false = Pin level set to "low" state
 */
static inline void PORTC_set_pin_level(const uint8_t pin, const bool level)
{
    3a9c:	cf 93       	push	r28
    3a9e:	df 93       	push	r29
    3aa0:	00 d0       	rcall	.+0      	; 0x3aa2 <PORTC_set_pin_level+0x6>
    3aa2:	cd b7       	in	r28, 0x3d	; 61
    3aa4:	de b7       	in	r29, 0x3e	; 62
    3aa6:	89 83       	std	Y+1, r24	; 0x01
    3aa8:	6a 83       	std	Y+2, r22	; 0x02
	if (level == true) {
    3aaa:	8a 81       	ldd	r24, Y+2	; 0x02
    3aac:	88 23       	and	r24, r24
    3aae:	b1 f0       	breq	.+44     	; 0x3adc <PORTC_set_pin_level+0x40>
		VPORTC.OUT |= (1 << pin);
    3ab0:	88 e0       	ldi	r24, 0x08	; 8
    3ab2:	90 e0       	ldi	r25, 0x00	; 0
    3ab4:	fc 01       	movw	r30, r24
    3ab6:	81 81       	ldd	r24, Z+1	; 0x01
    3ab8:	48 2f       	mov	r20, r24
    3aba:	89 81       	ldd	r24, Y+1	; 0x01
    3abc:	28 2f       	mov	r18, r24
    3abe:	30 e0       	ldi	r19, 0x00	; 0
    3ac0:	81 e0       	ldi	r24, 0x01	; 1
    3ac2:	90 e0       	ldi	r25, 0x00	; 0
    3ac4:	02 c0       	rjmp	.+4      	; 0x3aca <PORTC_set_pin_level+0x2e>
    3ac6:	88 0f       	add	r24, r24
    3ac8:	99 1f       	adc	r25, r25
    3aca:	2a 95       	dec	r18
    3acc:	e2 f7       	brpl	.-8      	; 0x3ac6 <PORTC_set_pin_level+0x2a>
    3ace:	24 2f       	mov	r18, r20
    3ad0:	28 2b       	or	r18, r24
    3ad2:	88 e0       	ldi	r24, 0x08	; 8
    3ad4:	90 e0       	ldi	r25, 0x00	; 0
    3ad6:	fc 01       	movw	r30, r24
    3ad8:	21 83       	std	Z+1, r18	; 0x01
	} else {
		VPORTC.OUT &= ~(1 << pin);
	}
}
    3ada:	16 c0       	rjmp	.+44     	; 0x3b08 <PORTC_set_pin_level+0x6c>
static inline void PORTC_set_pin_level(const uint8_t pin, const bool level)
{
	if (level == true) {
		VPORTC.OUT |= (1 << pin);
	} else {
		VPORTC.OUT &= ~(1 << pin);
    3adc:	88 e0       	ldi	r24, 0x08	; 8
    3ade:	90 e0       	ldi	r25, 0x00	; 0
    3ae0:	fc 01       	movw	r30, r24
    3ae2:	81 81       	ldd	r24, Z+1	; 0x01
    3ae4:	48 2f       	mov	r20, r24
    3ae6:	89 81       	ldd	r24, Y+1	; 0x01
    3ae8:	28 2f       	mov	r18, r24
    3aea:	30 e0       	ldi	r19, 0x00	; 0
    3aec:	81 e0       	ldi	r24, 0x01	; 1
    3aee:	90 e0       	ldi	r25, 0x00	; 0
    3af0:	02 c0       	rjmp	.+4      	; 0x3af6 <PORTC_set_pin_level+0x5a>
    3af2:	88 0f       	add	r24, r24
    3af4:	99 1f       	adc	r25, r25
    3af6:	2a 95       	dec	r18
    3af8:	e2 f7       	brpl	.-8      	; 0x3af2 <PORTC_set_pin_level+0x56>
    3afa:	80 95       	com	r24
    3afc:	24 2f       	mov	r18, r20
    3afe:	28 23       	and	r18, r24
    3b00:	88 e0       	ldi	r24, 0x08	; 8
    3b02:	90 e0       	ldi	r25, 0x00	; 0
    3b04:	fc 01       	movw	r30, r24
    3b06:	21 83       	std	Z+1, r18	; 0x01
	}
}
    3b08:	00 00       	nop
    3b0a:	0f 90       	pop	r0
    3b0c:	0f 90       	pop	r0
    3b0e:	df 91       	pop	r29
    3b10:	cf 91       	pop	r28
    3b12:	08 95       	ret

00003b14 <_ZL15LED_set_RED_dir8port_dir>:
 *                      PORT_DIR_OUT = Data direction out
 *                      PORT_DIR_OFF = Disables the pin
 *                      (low power state)
 */
static inline void LED_set_RED_dir(const enum port_dir dir)
{
    3b14:	cf 93       	push	r28
    3b16:	df 93       	push	r29
    3b18:	00 d0       	rcall	.+0      	; 0x3b1a <_ZL15LED_set_RED_dir8port_dir+0x6>
    3b1a:	cd b7       	in	r28, 0x3d	; 61
    3b1c:	de b7       	in	r29, 0x3e	; 62
    3b1e:	89 83       	std	Y+1, r24	; 0x01
    3b20:	9a 83       	std	Y+2, r25	; 0x02
	PORTC_set_pin_dir(RED_PIN, dir);
    3b22:	89 81       	ldd	r24, Y+1	; 0x01
    3b24:	9a 81       	ldd	r25, Y+2	; 0x02
    3b26:	bc 01       	movw	r22, r24
    3b28:	85 e0       	ldi	r24, 0x05	; 5
    3b2a:	0e 94 f6 1c 	call	0x39ec	; 0x39ec <PORTC_set_pin_dir>
}
    3b2e:	00 00       	nop
    3b30:	0f 90       	pop	r0
    3b32:	0f 90       	pop	r0
    3b34:	df 91       	pop	r29
    3b36:	cf 91       	pop	r28
    3b38:	08 95       	ret

00003b3a <_ZL17LED_set_GREEN_dir8port_dir>:
 *                      PORT_DIR_OUT = Data direction out
 *                      PORT_DIR_OFF = Disables the pin
 *                      (low power state)
 */
static inline void LED_set_GREEN_dir(const enum port_dir dir)
{
    3b3a:	cf 93       	push	r28
    3b3c:	df 93       	push	r29
    3b3e:	00 d0       	rcall	.+0      	; 0x3b40 <_ZL17LED_set_GREEN_dir8port_dir+0x6>
    3b40:	cd b7       	in	r28, 0x3d	; 61
    3b42:	de b7       	in	r29, 0x3e	; 62
    3b44:	89 83       	std	Y+1, r24	; 0x01
    3b46:	9a 83       	std	Y+2, r25	; 0x02
	PORTC_set_pin_dir(GREEN_PIN, dir);
    3b48:	89 81       	ldd	r24, Y+1	; 0x01
    3b4a:	9a 81       	ldd	r25, Y+2	; 0x02
    3b4c:	bc 01       	movw	r22, r24
    3b4e:	84 e0       	ldi	r24, 0x04	; 4
    3b50:	0e 94 f6 1c 	call	0x39ec	; 0x39ec <PORTC_set_pin_dir>
}
    3b54:	00 00       	nop
    3b56:	0f 90       	pop	r0
    3b58:	0f 90       	pop	r0
    3b5a:	df 91       	pop	r29
    3b5c:	cf 91       	pop	r28
    3b5e:	08 95       	ret

00003b60 <_ZL17LED_set_RED_levelb>:
 *
 * \param[in] level true  = Pin level set to "high" state
 *                  false = Pin level set to "low" state
 */
static inline void LED_set_RED_level(const bool level)
{
    3b60:	cf 93       	push	r28
    3b62:	df 93       	push	r29
    3b64:	1f 92       	push	r1
    3b66:	cd b7       	in	r28, 0x3d	; 61
    3b68:	de b7       	in	r29, 0x3e	; 62
    3b6a:	89 83       	std	Y+1, r24	; 0x01
	PORTC_set_pin_level(RED_PIN, level); /* Low == LED off */
    3b6c:	69 81       	ldd	r22, Y+1	; 0x01
    3b6e:	85 e0       	ldi	r24, 0x05	; 5
    3b70:	0e 94 4e 1d 	call	0x3a9c	; 0x3a9c <PORTC_set_pin_level>
}
    3b74:	00 00       	nop
    3b76:	0f 90       	pop	r0
    3b78:	df 91       	pop	r29
    3b7a:	cf 91       	pop	r28
    3b7c:	08 95       	ret

00003b7e <_ZL19LED_set_GREEN_levelb>:
 *
 * \param[in] level true  = Pin level set to "high" state
 *                  false = Pin level set to "low" state
 */
static inline void LED_set_GREEN_level(const bool level)
{
    3b7e:	cf 93       	push	r28
    3b80:	df 93       	push	r29
    3b82:	1f 92       	push	r1
    3b84:	cd b7       	in	r28, 0x3d	; 61
    3b86:	de b7       	in	r29, 0x3e	; 62
    3b88:	89 83       	std	Y+1, r24	; 0x01
	PORTC_set_pin_level(GREEN_PIN, level); /* Low == LED off */
    3b8a:	69 81       	ldd	r22, Y+1	; 0x01
    3b8c:	84 e0       	ldi	r24, 0x04	; 4
    3b8e:	0e 94 4e 1d 	call	0x3a9c	; 0x3a9c <PORTC_set_pin_level>
}
    3b92:	00 00       	nop
    3b94:	0f 90       	pop	r0
    3b96:	df 91       	pop	r29
    3b98:	cf 91       	pop	r28
    3b9a:	08 95       	ret

00003b9c <mcu_init>:
#ifdef __cplusplus
extern "C" {
#endif

void mcu_init(void)
{
    3b9c:	cf 93       	push	r28
    3b9e:	df 93       	push	r29
    3ba0:	00 d0       	rcall	.+0      	; 0x3ba2 <mcu_init+0x6>
    3ba2:	cd b7       	in	r28, 0x3d	; 61
    3ba4:	de b7       	in	r29, 0x3e	; 62
	 Configure the individual pin configurations and interrupt control for pin Pxn in PORTx.PINnCTRL
	*/

	/* Set all pins to low power mode */

	for (uint8_t i = 0; i < 8; i++) {
    3ba6:	19 82       	std	Y+1, r1	; 0x01
    3ba8:	89 81       	ldd	r24, Y+1	; 0x01
    3baa:	88 30       	cpi	r24, 0x08	; 8
    3bac:	98 f4       	brcc	.+38     	; 0x3bd4 <mcu_init+0x38>
		*((uint8_t *)&PORTA + 0x10 + i) |= 1 << PORT_PULLUPEN_bp;
    3bae:	89 81       	ldd	r24, Y+1	; 0x01
    3bb0:	88 2f       	mov	r24, r24
    3bb2:	90 e0       	ldi	r25, 0x00	; 0
    3bb4:	80 5f       	subi	r24, 0xF0	; 240
    3bb6:	9b 4f       	sbci	r25, 0xFB	; 251
    3bb8:	fc 01       	movw	r30, r24
    3bba:	20 81       	ld	r18, Z
    3bbc:	89 81       	ldd	r24, Y+1	; 0x01
    3bbe:	88 2f       	mov	r24, r24
    3bc0:	90 e0       	ldi	r25, 0x00	; 0
    3bc2:	80 5f       	subi	r24, 0xF0	; 240
    3bc4:	9b 4f       	sbci	r25, 0xFB	; 251
    3bc6:	28 60       	ori	r18, 0x08	; 8
    3bc8:	fc 01       	movw	r30, r24
    3bca:	20 83       	st	Z, r18
	 Configure the individual pin configurations and interrupt control for pin Pxn in PORTx.PINnCTRL
	*/

	/* Set all pins to low power mode */

	for (uint8_t i = 0; i < 8; i++) {
    3bcc:	89 81       	ldd	r24, Y+1	; 0x01
    3bce:	8f 5f       	subi	r24, 0xFF	; 255
    3bd0:	89 83       	std	Y+1, r24	; 0x01
    3bd2:	ea cf       	rjmp	.-44     	; 0x3ba8 <mcu_init+0xc>
		*((uint8_t *)&PORTA + 0x10 + i) |= 1 << PORT_PULLUPEN_bp;
	}

	for (uint8_t i = 0; i < 8; i++) {
    3bd4:	1a 82       	std	Y+2, r1	; 0x02
    3bd6:	8a 81       	ldd	r24, Y+2	; 0x02
    3bd8:	88 30       	cpi	r24, 0x08	; 8
    3bda:	98 f4       	brcc	.+38     	; 0x3c02 <mcu_init+0x66>
		*((uint8_t *)&PORTB + 0x10 + i) |= 1 << PORT_PULLUPEN_bp;
    3bdc:	8a 81       	ldd	r24, Y+2	; 0x02
    3bde:	88 2f       	mov	r24, r24
    3be0:	90 e0       	ldi	r25, 0x00	; 0
    3be2:	80 5d       	subi	r24, 0xD0	; 208
    3be4:	9b 4f       	sbci	r25, 0xFB	; 251
    3be6:	fc 01       	movw	r30, r24
    3be8:	20 81       	ld	r18, Z
    3bea:	8a 81       	ldd	r24, Y+2	; 0x02
    3bec:	88 2f       	mov	r24, r24
    3bee:	90 e0       	ldi	r25, 0x00	; 0
    3bf0:	80 5d       	subi	r24, 0xD0	; 208
    3bf2:	9b 4f       	sbci	r25, 0xFB	; 251
    3bf4:	28 60       	ori	r18, 0x08	; 8
    3bf6:	fc 01       	movw	r30, r24
    3bf8:	20 83       	st	Z, r18

	for (uint8_t i = 0; i < 8; i++) {
		*((uint8_t *)&PORTA + 0x10 + i) |= 1 << PORT_PULLUPEN_bp;
	}

	for (uint8_t i = 0; i < 8; i++) {
    3bfa:	8a 81       	ldd	r24, Y+2	; 0x02
    3bfc:	8f 5f       	subi	r24, 0xFF	; 255
    3bfe:	8a 83       	std	Y+2, r24	; 0x02
    3c00:	ea cf       	rjmp	.-44     	; 0x3bd6 <mcu_init+0x3a>
// 	}

// 	for (uint8_t i = 0; i < 8; i++) {
// 		*((uint8_t *)&PORTF + 0x10 + i) |= 1 << PORT_PULLUPEN_bp;
// 	}
}
    3c02:	00 00       	nop
    3c04:	0f 90       	pop	r0
    3c06:	0f 90       	pop	r0
    3c08:	df 91       	pop	r29
    3c0a:	cf 91       	pop	r28
    3c0c:	08 95       	ret

00003c0e <system_init>:

/**
 * \brief System initialization
 */
void system_init()
{
    3c0e:	cf 93       	push	r28
    3c10:	df 93       	push	r29
    3c12:	cd b7       	in	r28, 0x3d	; 61
    3c14:	de b7       	in	r29, 0x3e	; 62
	mcu_init();
    3c16:	0e 94 ce 1d 	call	0x3b9c	; 0x3b9c <mcu_init>

	CLKCTRL_init(); /* Set CPU clock speed appropriately */
    3c1a:	0e 94 17 1a 	call	0x342e	; 0x342e <CLKCTRL_init>
	TIMERA_init();  /* Set PWM timer */
    3c1e:	0e 94 a6 33 	call	0x674c	; 0x674c <TIMERA_init>
	TIMERB_init(); /* Timers must be initialized before utility_delay functions will work */
    3c22:	0e 94 3f 34 	call	0x687e	; 0x687e <TIMERB_init>
	BINIO_init();
    3c26:	0e 94 db 15 	call	0x2bb6	; 0x2bb6 <_Z10BINIO_initv>
	CPUINT_init(); /* Interrupts must also be enabled before timer interrupts will function */
    3c2a:	0e 94 29 1a 	call	0x3452	; 0x3452 <CPUINT_init>

	SLPCTRL_init();
    3c2e:	0e 94 f2 32 	call	0x65e4	; 0x65e4 <SLPCTRL_init>
	
//	DAC0_init();

	BOD_init();
    3c32:	0e 94 80 17 	call	0x2f00	; 0x2f00 <BOD_init>
}
    3c36:	00 00       	nop
    3c38:	df 91       	pop	r29
    3c3a:	cf 91       	pop	r28
    3c3c:	08 95       	ret

00003c3e <system_sleep_settings>:

void system_sleep_settings()
{
    3c3e:	cf 93       	push	r28
    3c40:	df 93       	push	r29
    3c42:	cd b7       	in	r28, 0x3d	; 61
    3c44:	de b7       	in	r29, 0x3e	; 62
	mcu_init();
    3c46:	0e 94 ce 1d 	call	0x3b9c	; 0x3b9c <mcu_init>

//	CLKCTRL_init(); /* Set CPU clock speed appropriately */
	TIMERB_sleep(); /* Timers must be initialized before utility_delay functions will work */
    3c4a:	0e 94 16 36 	call	0x6c2c	; 0x6c2c <TIMERB_sleep>
//	CPUINT_init(); /* Interrupts must also be enabled before timer interrupts will function */
	BINIO_sleep();
    3c4e:	0e 94 ba 16 	call	0x2d74	; 0x2d74 <_Z11BINIO_sleepv>

	LED_set_RED_dir(PORT_DIR_OUT);
    3c52:	81 e0       	ldi	r24, 0x01	; 1
    3c54:	90 e0       	ldi	r25, 0x00	; 0
    3c56:	0e 94 8a 1d 	call	0x3b14	; 0x3b14 <_ZL15LED_set_RED_dir8port_dir>
	LED_set_RED_level(OFF);
    3c5a:	80 e0       	ldi	r24, 0x00	; 0
    3c5c:	0e 94 b0 1d 	call	0x3b60	; 0x3b60 <_ZL17LED_set_RED_levelb>
	LED_set_GREEN_dir(PORT_DIR_OUT);
    3c60:	81 e0       	ldi	r24, 0x01	; 1
    3c62:	90 e0       	ldi	r25, 0x00	; 0
    3c64:	0e 94 9d 1d 	call	0x3b3a	; 0x3b3a <_ZL17LED_set_GREEN_dir8port_dir>
	LED_set_GREEN_level(OFF);
    3c68:	80 e0       	ldi	r24, 0x00	; 0
    3c6a:	0e 94 bf 1d 	call	0x3b7e	; 0x3b7e <_ZL19LED_set_GREEN_levelb>

}
    3c6e:	00 00       	nop
    3c70:	df 91       	pop	r29
    3c72:	cf 91       	pop	r28
    3c74:	08 95       	ret

00003c76 <_ZN13EepromManagerC1Ev>:
void avr_eeprom_write_float(eeprom_addr_t index, float in) {
	while (NVMCTRL.STATUS & NVMCTRL_EEBUSY_bm);
	_PROTECTED_WRITE_SPM(NVMCTRL.CTRLA, NVMCTRL_CMD_EEERWR_gc);
	*(float*)(eeprom_addr_t)(MAPPED_EEPROM_START+index) = in;
	_PROTECTED_WRITE_SPM(NVMCTRL.CTRLA, NVMCTRL_CMD_NONE_gc);
}
    3c76:	cf 93       	push	r28
    3c78:	df 93       	push	r29
    3c7a:	00 d0       	rcall	.+0      	; 0x3c7c <_ZN13EepromManagerC1Ev+0x6>
    3c7c:	cd b7       	in	r28, 0x3d	; 61
    3c7e:	de b7       	in	r29, 0x3e	; 62
    3c80:	89 83       	std	Y+1, r24	; 0x01
    3c82:	9a 83       	std	Y+2, r25	; 0x02
    3c84:	00 00       	nop
    3c86:	0f 90       	pop	r0
    3c88:	0f 90       	pop	r0
    3c8a:	df 91       	pop	r29
    3c8c:	cf 91       	pop	r28
    3c8e:	08 95       	ret

00003c90 <_ZN13EepromManagerD1Ev>:
    3c90:	cf 93       	push	r28
    3c92:	df 93       	push	r29
    3c94:	00 d0       	rcall	.+0      	; 0x3c96 <_ZN13EepromManagerD1Ev+0x6>
    3c96:	cd b7       	in	r28, 0x3d	; 61
    3c98:	de b7       	in	r29, 0x3e	; 62
    3c9a:	89 83       	std	Y+1, r24	; 0x01
    3c9c:	9a 83       	std	Y+2, r25	; 0x02
    3c9e:	00 00       	nop
    3ca0:	0f 90       	pop	r0
    3ca2:	0f 90       	pop	r0
    3ca4:	df 91       	pop	r29
    3ca6:	cf 91       	pop	r28
    3ca8:	08 95       	ret

00003caa <_ZN13EepromManager15updateEEPROMVarE8EE_var_tPv>:

void EepromManager::updateEEPROMVar(EE_var_t v, void* val)
{
    3caa:	cf 93       	push	r28
    3cac:	df 93       	push	r29
    3cae:	cd b7       	in	r28, 0x3d	; 61
    3cb0:	de b7       	in	r29, 0x3e	; 62
    3cb2:	26 97       	sbiw	r28, 0x06	; 6
    3cb4:	cd bf       	out	0x3d, r28	; 61
    3cb6:	de bf       	out	0x3e, r29	; 62
    3cb8:	89 83       	std	Y+1, r24	; 0x01
    3cba:	9a 83       	std	Y+2, r25	; 0x02
    3cbc:	6b 83       	std	Y+3, r22	; 0x03
    3cbe:	7c 83       	std	Y+4, r23	; 0x04
    3cc0:	4d 83       	std	Y+5, r20	; 0x05
    3cc2:	5e 83       	std	Y+6, r21	; 0x06
// 		{
// 
// 		}
// 		break;
// 	}
}
    3cc4:	26 96       	adiw	r28, 0x06	; 6
    3cc6:	cd bf       	out	0x3d, r28	; 61
    3cc8:	de bf       	out	0x3e, r29	; 62
    3cca:	df 91       	pop	r29
    3ccc:	cf 91       	pop	r28
    3cce:	08 95       	ret

00003cd0 <_ZN8GoertzelC1Eff>:

void Goertzel::Flush(void)
{
	memset(testData, 0x00, _N * sizeof(int));
	ResetGoertzel();
}
    3cd0:	0f 93       	push	r16
    3cd2:	1f 93       	push	r17
    3cd4:	cf 93       	push	r28
    3cd6:	df 93       	push	r29
    3cd8:	cd b7       	in	r28, 0x3d	; 61
    3cda:	de b7       	in	r29, 0x3e	; 62
    3cdc:	62 97       	sbiw	r28, 0x12	; 18
    3cde:	cd bf       	out	0x3d, r28	; 61
    3ce0:	de bf       	out	0x3e, r29	; 62
    3ce2:	89 87       	std	Y+9, r24	; 0x09
    3ce4:	9a 87       	std	Y+10, r25	; 0x0a
    3ce6:	4b 87       	std	Y+11, r20	; 0x0b
    3ce8:	5c 87       	std	Y+12, r21	; 0x0c
    3cea:	6d 87       	std	Y+13, r22	; 0x0d
    3cec:	7e 87       	std	Y+14, r23	; 0x0e
    3cee:	0f 87       	std	Y+15, r16	; 0x0f
    3cf0:	18 8b       	std	Y+16, r17	; 0x10
    3cf2:	29 8b       	std	Y+17, r18	; 0x11
    3cf4:	3a 8b       	std	Y+18, r19	; 0x12
    3cf6:	8f 85       	ldd	r24, Y+15	; 0x0f
    3cf8:	98 89       	ldd	r25, Y+16	; 0x10
    3cfa:	a9 89       	ldd	r26, Y+17	; 0x11
    3cfc:	ba 89       	ldd	r27, Y+18	; 0x12
    3cfe:	80 93 ef 41 	sts	0x41EF, r24	; 0x8041ef <_SAMPLING_FREQUENCY>
    3d02:	90 93 f0 41 	sts	0x41F0, r25	; 0x8041f0 <_SAMPLING_FREQUENCY+0x1>
    3d06:	a0 93 f1 41 	sts	0x41F1, r26	; 0x8041f1 <_SAMPLING_FREQUENCY+0x2>
    3d0a:	b0 93 f2 41 	sts	0x41F2, r27	; 0x8041f2 <_SAMPLING_FREQUENCY+0x3>
    3d0e:	8b 85       	ldd	r24, Y+11	; 0x0b
    3d10:	9c 85       	ldd	r25, Y+12	; 0x0c
    3d12:	ad 85       	ldd	r26, Y+13	; 0x0d
    3d14:	be 85       	ldd	r27, Y+14	; 0x0e
    3d16:	89 83       	std	Y+1, r24	; 0x01
    3d18:	9a 83       	std	Y+2, r25	; 0x02
    3d1a:	ab 83       	std	Y+3, r26	; 0x03
    3d1c:	bc 83       	std	Y+4, r27	; 0x04
    3d1e:	84 e6       	ldi	r24, 0x64	; 100
    3d20:	90 e0       	ldi	r25, 0x00	; 0
    3d22:	8d 83       	std	Y+5, r24	; 0x05
    3d24:	9e 83       	std	Y+6, r25	; 0x06
    3d26:	81 ed       	ldi	r24, 0xD1	; 209
    3d28:	90 e0       	ldi	r25, 0x00	; 0
    3d2a:	8f 83       	std	Y+7, r24	; 0x07
    3d2c:	98 87       	std	Y+8, r25	; 0x08
    3d2e:	8f 81       	ldd	r24, Y+7	; 0x07
    3d30:	98 85       	ldd	r25, Y+8	; 0x08
    3d32:	09 2e       	mov	r0, r25
    3d34:	00 0c       	add	r0, r0
    3d36:	aa 0b       	sbc	r26, r26
    3d38:	bb 0b       	sbc	r27, r27
    3d3a:	bc 01       	movw	r22, r24
    3d3c:	cd 01       	movw	r24, r26
    3d3e:	0e 94 bd 38 	call	0x717a	; 0x717a <__floatsisf>
    3d42:	dc 01       	movw	r26, r24
    3d44:	cb 01       	movw	r24, r22
    3d46:	9c 01       	movw	r18, r24
    3d48:	ad 01       	movw	r20, r26
    3d4a:	69 81       	ldd	r22, Y+1	; 0x01
    3d4c:	7a 81       	ldd	r23, Y+2	; 0x02
    3d4e:	8b 81       	ldd	r24, Y+3	; 0x03
    3d50:	9c 81       	ldd	r25, Y+4	; 0x04
    3d52:	0e 94 ba 39 	call	0x7374	; 0x7374 <__gesf2>
    3d56:	18 16       	cp	r1, r24
    3d58:	6c f4       	brge	.+26     	; 0x3d74 <_ZN8GoertzelC1Eff+0xa4>
    3d5a:	8f 81       	ldd	r24, Y+7	; 0x07
    3d5c:	98 85       	ldd	r25, Y+8	; 0x08
    3d5e:	09 2e       	mov	r0, r25
    3d60:	00 0c       	add	r0, r0
    3d62:	aa 0b       	sbc	r26, r26
    3d64:	bb 0b       	sbc	r27, r27
    3d66:	bc 01       	movw	r22, r24
    3d68:	cd 01       	movw	r24, r26
    3d6a:	0e 94 bd 38 	call	0x717a	; 0x717a <__floatsisf>
    3d6e:	dc 01       	movw	r26, r24
    3d70:	cb 01       	movw	r24, r22
    3d72:	27 c0       	rjmp	.+78     	; 0x3dc2 <_ZN8GoertzelC1Eff+0xf2>
    3d74:	8d 81       	ldd	r24, Y+5	; 0x05
    3d76:	9e 81       	ldd	r25, Y+6	; 0x06
    3d78:	09 2e       	mov	r0, r25
    3d7a:	00 0c       	add	r0, r0
    3d7c:	aa 0b       	sbc	r26, r26
    3d7e:	bb 0b       	sbc	r27, r27
    3d80:	bc 01       	movw	r22, r24
    3d82:	cd 01       	movw	r24, r26
    3d84:	0e 94 bd 38 	call	0x717a	; 0x717a <__floatsisf>
    3d88:	dc 01       	movw	r26, r24
    3d8a:	cb 01       	movw	r24, r22
    3d8c:	9c 01       	movw	r18, r24
    3d8e:	ad 01       	movw	r20, r26
    3d90:	69 81       	ldd	r22, Y+1	; 0x01
    3d92:	7a 81       	ldd	r23, Y+2	; 0x02
    3d94:	8b 81       	ldd	r24, Y+3	; 0x03
    3d96:	9c 81       	ldd	r25, Y+4	; 0x04
    3d98:	0e 94 09 38 	call	0x7012	; 0x7012 <__cmpsf2>
    3d9c:	88 23       	and	r24, r24
    3d9e:	6c f4       	brge	.+26     	; 0x3dba <_ZN8GoertzelC1Eff+0xea>
    3da0:	8d 81       	ldd	r24, Y+5	; 0x05
    3da2:	9e 81       	ldd	r25, Y+6	; 0x06
    3da4:	09 2e       	mov	r0, r25
    3da6:	00 0c       	add	r0, r0
    3da8:	aa 0b       	sbc	r26, r26
    3daa:	bb 0b       	sbc	r27, r27
    3dac:	bc 01       	movw	r22, r24
    3dae:	cd 01       	movw	r24, r26
    3db0:	0e 94 bd 38 	call	0x717a	; 0x717a <__floatsisf>
    3db4:	dc 01       	movw	r26, r24
    3db6:	cb 01       	movw	r24, r22
    3db8:	04 c0       	rjmp	.+8      	; 0x3dc2 <_ZN8GoertzelC1Eff+0xf2>
    3dba:	89 81       	ldd	r24, Y+1	; 0x01
    3dbc:	9a 81       	ldd	r25, Y+2	; 0x02
    3dbe:	ab 81       	ldd	r26, Y+3	; 0x03
    3dc0:	bc 81       	ldd	r27, Y+4	; 0x04
    3dc2:	bc 01       	movw	r22, r24
    3dc4:	cd 01       	movw	r24, r26
    3dc6:	0e 94 85 38 	call	0x710a	; 0x710a <__fixsfsi>
    3dca:	dc 01       	movw	r26, r24
    3dcc:	cb 01       	movw	r24, r22
    3dce:	80 93 f7 41 	sts	0x41F7, r24	; 0x8041f7 <_N>
    3dd2:	90 93 f8 41 	sts	0x41F8, r25	; 0x8041f8 <_N+0x1>
    3dd6:	80 91 f7 41 	lds	r24, 0x41F7	; 0x8041f7 <_N>
    3dda:	90 91 f8 41 	lds	r25, 0x41F8	; 0x8041f8 <_N+0x1>
    3dde:	88 0f       	add	r24, r24
    3de0:	99 1f       	adc	r25, r25
    3de2:	0e 94 30 3b 	call	0x7660	; 0x7660 <malloc>
    3de6:	80 93 0a 42 	sts	0x420A, r24	; 0x80420a <testData>
    3dea:	90 93 0b 42 	sts	0x420B, r25	; 0x80420b <testData+0x1>
    3dee:	00 00       	nop
    3df0:	62 96       	adiw	r28, 0x12	; 18
    3df2:	cd bf       	out	0x3d, r28	; 61
    3df4:	de bf       	out	0x3e, r29	; 62
    3df6:	df 91       	pop	r29
    3df8:	cf 91       	pop	r28
    3dfa:	1f 91       	pop	r17
    3dfc:	0f 91       	pop	r16
    3dfe:	08 95       	ret

00003e00 <_ZN8GoertzelD1Ev>:
    3e00:	cf 93       	push	r28
    3e02:	df 93       	push	r29
    3e04:	00 d0       	rcall	.+0      	; 0x3e06 <_ZN8GoertzelD1Ev+0x6>
    3e06:	cd b7       	in	r28, 0x3d	; 61
    3e08:	de b7       	in	r29, 0x3e	; 62
    3e0a:	89 83       	std	Y+1, r24	; 0x01
    3e0c:	9a 83       	std	Y+2, r25	; 0x02
    3e0e:	80 91 0a 42 	lds	r24, 0x420A	; 0x80420a <testData>
    3e12:	90 91 0b 42 	lds	r25, 0x420B	; 0x80420b <testData+0x1>
    3e16:	0e 94 cc 3b 	call	0x7798	; 0x7798 <free>
    3e1a:	00 00       	nop
    3e1c:	0f 90       	pop	r0
    3e1e:	0f 90       	pop	r0
    3e20:	df 91       	pop	r29
    3e22:	cf 91       	pop	r28
    3e24:	08 95       	ret

00003e26 <_ZN8Goertzel18SetTargetFrequencyEf>:

void Goertzel::SetTargetFrequency(float target_frequency)
{
    3e26:	ef 92       	push	r14
    3e28:	ff 92       	push	r15
    3e2a:	0f 93       	push	r16
    3e2c:	1f 93       	push	r17
    3e2e:	cf 93       	push	r28
    3e30:	df 93       	push	r29
    3e32:	cd b7       	in	r28, 0x3d	; 61
    3e34:	de b7       	in	r29, 0x3e	; 62
    3e36:	60 97       	sbiw	r28, 0x10	; 16
    3e38:	cd bf       	out	0x3d, r28	; 61
    3e3a:	de bf       	out	0x3e, r29	; 62
    3e3c:	8b 87       	std	Y+11, r24	; 0x0b
    3e3e:	9c 87       	std	Y+12, r25	; 0x0c
    3e40:	4d 87       	std	Y+13, r20	; 0x0d
    3e42:	5e 87       	std	Y+14, r21	; 0x0e
    3e44:	6f 87       	std	Y+15, r22	; 0x0f
    3e46:	78 8b       	std	Y+16, r23	; 0x10
	float floatN = (float)_N;
    3e48:	80 91 f7 41 	lds	r24, 0x41F7	; 0x8041f7 <_N>
    3e4c:	90 91 f8 41 	lds	r25, 0x41F8	; 0x8041f8 <_N+0x1>
    3e50:	09 2e       	mov	r0, r25
    3e52:	00 0c       	add	r0, r0
    3e54:	aa 0b       	sbc	r26, r26
    3e56:	bb 0b       	sbc	r27, r27
    3e58:	bc 01       	movw	r22, r24
    3e5a:	cd 01       	movw	r24, r26
    3e5c:	0e 94 bd 38 	call	0x717a	; 0x717a <__floatsisf>
    3e60:	dc 01       	movw	r26, r24
    3e62:	cb 01       	movw	r24, r22
    3e64:	89 83       	std	Y+1, r24	; 0x01
    3e66:	9a 83       	std	Y+2, r25	; 0x02
    3e68:	ab 83       	std	Y+3, r26	; 0x03
    3e6a:	bc 83       	std	Y+4, r27	; 0x04

	_TARGET_FREQUENCY = target_frequency;   /* Ideally, this should be an integer multiple of SAMPLING_RATE/N */
    3e6c:	8d 85       	ldd	r24, Y+13	; 0x0d
    3e6e:	9e 85       	ldd	r25, Y+14	; 0x0e
    3e70:	af 85       	ldd	r26, Y+15	; 0x0f
    3e72:	b8 89       	ldd	r27, Y+16	; 0x10
    3e74:	80 93 f3 41 	sts	0x41F3, r24	; 0x8041f3 <_TARGET_FREQUENCY>
    3e78:	90 93 f4 41 	sts	0x41F4, r25	; 0x8041f4 <_TARGET_FREQUENCY+0x1>
    3e7c:	a0 93 f5 41 	sts	0x41F5, r26	; 0x8041f5 <_TARGET_FREQUENCY+0x2>
    3e80:	b0 93 f6 41 	sts	0x41F6, r27	; 0x8041f6 <_TARGET_FREQUENCY+0x3>
	int k = (int)(0.5 + ((floatN * _TARGET_FREQUENCY) / _SAMPLING_FREQUENCY));
    3e84:	80 91 f3 41 	lds	r24, 0x41F3	; 0x8041f3 <_TARGET_FREQUENCY>
    3e88:	90 91 f4 41 	lds	r25, 0x41F4	; 0x8041f4 <_TARGET_FREQUENCY+0x1>
    3e8c:	a0 91 f5 41 	lds	r26, 0x41F5	; 0x8041f5 <_TARGET_FREQUENCY+0x2>
    3e90:	b0 91 f6 41 	lds	r27, 0x41F6	; 0x8041f6 <_TARGET_FREQUENCY+0x3>
    3e94:	29 81       	ldd	r18, Y+1	; 0x01
    3e96:	3a 81       	ldd	r19, Y+2	; 0x02
    3e98:	4b 81       	ldd	r20, Y+3	; 0x03
    3e9a:	5c 81       	ldd	r21, Y+4	; 0x04
    3e9c:	bc 01       	movw	r22, r24
    3e9e:	cd 01       	movw	r24, r26
    3ea0:	0e 94 17 3a 	call	0x742e	; 0x742e <__mulsf3>
    3ea4:	dc 01       	movw	r26, r24
    3ea6:	cb 01       	movw	r24, r22
    3ea8:	7c 01       	movw	r14, r24
    3eaa:	8d 01       	movw	r16, r26
    3eac:	80 91 ef 41 	lds	r24, 0x41EF	; 0x8041ef <_SAMPLING_FREQUENCY>
    3eb0:	90 91 f0 41 	lds	r25, 0x41F0	; 0x8041f0 <_SAMPLING_FREQUENCY+0x1>
    3eb4:	a0 91 f1 41 	lds	r26, 0x41F1	; 0x8041f1 <_SAMPLING_FREQUENCY+0x2>
    3eb8:	b0 91 f2 41 	lds	r27, 0x41F2	; 0x8041f2 <_SAMPLING_FREQUENCY+0x3>
    3ebc:	9c 01       	movw	r18, r24
    3ebe:	ad 01       	movw	r20, r26
    3ec0:	c8 01       	movw	r24, r16
    3ec2:	b7 01       	movw	r22, r14
    3ec4:	0e 94 13 38 	call	0x7026	; 0x7026 <__divsf3>
    3ec8:	dc 01       	movw	r26, r24
    3eca:	cb 01       	movw	r24, r22
    3ecc:	20 e0       	ldi	r18, 0x00	; 0
    3ece:	30 e0       	ldi	r19, 0x00	; 0
    3ed0:	40 e0       	ldi	r20, 0x00	; 0
    3ed2:	5f e3       	ldi	r21, 0x3F	; 63
    3ed4:	bc 01       	movw	r22, r24
    3ed6:	cd 01       	movw	r24, r26
    3ed8:	0e 94 9d 37 	call	0x6f3a	; 0x6f3a <__addsf3>
    3edc:	dc 01       	movw	r26, r24
    3ede:	cb 01       	movw	r24, r22
    3ee0:	bc 01       	movw	r22, r24
    3ee2:	cd 01       	movw	r24, r26
    3ee4:	0e 94 85 38 	call	0x710a	; 0x710a <__fixsfsi>
    3ee8:	dc 01       	movw	r26, r24
    3eea:	cb 01       	movw	r24, r22
    3eec:	8d 83       	std	Y+5, r24	; 0x05
    3eee:	9e 83       	std	Y+6, r25	; 0x06
	float w = (2.0 * PI * k) / floatN;
    3ef0:	8d 81       	ldd	r24, Y+5	; 0x05
    3ef2:	9e 81       	ldd	r25, Y+6	; 0x06
    3ef4:	09 2e       	mov	r0, r25
    3ef6:	00 0c       	add	r0, r0
    3ef8:	aa 0b       	sbc	r26, r26
    3efa:	bb 0b       	sbc	r27, r27
    3efc:	bc 01       	movw	r22, r24
    3efe:	cd 01       	movw	r24, r26
    3f00:	0e 94 bd 38 	call	0x717a	; 0x717a <__floatsisf>
    3f04:	dc 01       	movw	r26, r24
    3f06:	cb 01       	movw	r24, r22
    3f08:	2b ed       	ldi	r18, 0xDB	; 219
    3f0a:	3f e0       	ldi	r19, 0x0F	; 15
    3f0c:	49 ec       	ldi	r20, 0xC9	; 201
    3f0e:	50 e4       	ldi	r21, 0x40	; 64
    3f10:	bc 01       	movw	r22, r24
    3f12:	cd 01       	movw	r24, r26
    3f14:	0e 94 17 3a 	call	0x742e	; 0x742e <__mulsf3>
    3f18:	dc 01       	movw	r26, r24
    3f1a:	cb 01       	movw	r24, r22
    3f1c:	29 81       	ldd	r18, Y+1	; 0x01
    3f1e:	3a 81       	ldd	r19, Y+2	; 0x02
    3f20:	4b 81       	ldd	r20, Y+3	; 0x03
    3f22:	5c 81       	ldd	r21, Y+4	; 0x04
    3f24:	bc 01       	movw	r22, r24
    3f26:	cd 01       	movw	r24, r26
    3f28:	0e 94 13 38 	call	0x7026	; 0x7026 <__divsf3>
    3f2c:	dc 01       	movw	r26, r24
    3f2e:	cb 01       	movw	r24, r22
    3f30:	8f 83       	std	Y+7, r24	; 0x07
    3f32:	98 87       	std	Y+8, r25	; 0x08
    3f34:	a9 87       	std	Y+9, r26	; 0x09
    3f36:	ba 87       	std	Y+10, r27	; 0x0a
	g_coeff = 2.0 * cos(w);
    3f38:	8f 81       	ldd	r24, Y+7	; 0x07
    3f3a:	98 85       	ldd	r25, Y+8	; 0x08
    3f3c:	a9 85       	ldd	r26, Y+9	; 0x09
    3f3e:	ba 85       	ldd	r27, Y+10	; 0x0a
    3f40:	bc 01       	movw	r22, r24
    3f42:	cd 01       	movw	r24, r26
    3f44:	0e 94 0e 38 	call	0x701c	; 0x701c <cos>
    3f48:	dc 01       	movw	r26, r24
    3f4a:	cb 01       	movw	r24, r22
    3f4c:	9c 01       	movw	r18, r24
    3f4e:	ad 01       	movw	r20, r26
    3f50:	bc 01       	movw	r22, r24
    3f52:	cd 01       	movw	r24, r26
    3f54:	0e 94 9d 37 	call	0x6f3a	; 0x6f3a <__addsf3>
    3f58:	dc 01       	movw	r26, r24
    3f5a:	cb 01       	movw	r24, r22
    3f5c:	80 93 f9 41 	sts	0x41F9, r24	; 0x8041f9 <g_coeff>
    3f60:	90 93 fa 41 	sts	0x41FA, r25	; 0x8041fa <g_coeff+0x1>
    3f64:	a0 93 fb 41 	sts	0x41FB, r26	; 0x8041fb <g_coeff+0x2>
    3f68:	b0 93 fc 41 	sts	0x41FC, r27	; 0x8041fc <g_coeff+0x3>
	ResetGoertzel();
    3f6c:	8b 85       	ldd	r24, Y+11	; 0x0b
    3f6e:	9c 85       	ldd	r25, Y+12	; 0x0c
    3f70:	0e 94 c5 1f 	call	0x3f8a	; 0x3f8a <_ZN8Goertzel13ResetGoertzelEv>
}
    3f74:	00 00       	nop
    3f76:	60 96       	adiw	r28, 0x10	; 16
    3f78:	cd bf       	out	0x3d, r28	; 61
    3f7a:	de bf       	out	0x3e, r29	; 62
    3f7c:	df 91       	pop	r29
    3f7e:	cf 91       	pop	r28
    3f80:	1f 91       	pop	r17
    3f82:	0f 91       	pop	r16
    3f84:	ff 90       	pop	r15
    3f86:	ef 90       	pop	r14
    3f88:	08 95       	ret

00003f8a <_ZN8Goertzel13ResetGoertzelEv>:

/* Call this routine before every sample "block" (size=N) of data. */
void Goertzel::ResetGoertzel(void)
{
    3f8a:	cf 93       	push	r28
    3f8c:	df 93       	push	r29
    3f8e:	00 d0       	rcall	.+0      	; 0x3f90 <_ZN8Goertzel13ResetGoertzelEv+0x6>
    3f90:	cd b7       	in	r28, 0x3d	; 61
    3f92:	de b7       	in	r29, 0x3e	; 62
    3f94:	89 83       	std	Y+1, r24	; 0x01
    3f96:	9a 83       	std	Y+2, r25	; 0x02
	Q2 = 0;
    3f98:	10 92 01 42 	sts	0x4201, r1	; 0x804201 <Q2>
    3f9c:	10 92 02 42 	sts	0x4202, r1	; 0x804202 <Q2+0x1>
    3fa0:	10 92 03 42 	sts	0x4203, r1	; 0x804203 <Q2+0x2>
    3fa4:	10 92 04 42 	sts	0x4204, r1	; 0x804204 <Q2+0x3>
	Q1 = 0;
    3fa8:	10 92 fd 41 	sts	0x41FD, r1	; 0x8041fd <Q1>
    3fac:	10 92 fe 41 	sts	0x41FE, r1	; 0x8041fe <Q1+0x1>
    3fb0:	10 92 ff 41 	sts	0x41FF, r1	; 0x8041ff <Q1+0x2>
    3fb4:	10 92 00 42 	sts	0x4200, r1	; 0x804200 <Q1+0x3>
	_samplesReady = false;
    3fb8:	10 92 07 42 	sts	0x4207, r1	; 0x804207 <_samplesReady>
}
    3fbc:	00 00       	nop
    3fbe:	0f 90       	pop	r0
    3fc0:	0f 90       	pop	r0
    3fc2:	df 91       	pop	r29
    3fc4:	cf 91       	pop	r28
    3fc6:	08 95       	ret

00003fc8 <_ZN8Goertzel13ProcessSampleEi>:

/* Call this routine for every sample. */
void Goertzel::ProcessSample(int sample)
{
    3fc8:	cf 92       	push	r12
    3fca:	df 92       	push	r13
    3fcc:	ef 92       	push	r14
    3fce:	ff 92       	push	r15
    3fd0:	0f 93       	push	r16
    3fd2:	1f 93       	push	r17
    3fd4:	cf 93       	push	r28
    3fd6:	df 93       	push	r29
    3fd8:	cd b7       	in	r28, 0x3d	; 61
    3fda:	de b7       	in	r29, 0x3e	; 62
    3fdc:	28 97       	sbiw	r28, 0x08	; 8
    3fde:	cd bf       	out	0x3d, r28	; 61
    3fe0:	de bf       	out	0x3e, r29	; 62
    3fe2:	8d 83       	std	Y+5, r24	; 0x05
    3fe4:	9e 83       	std	Y+6, r25	; 0x06
    3fe6:	6f 83       	std	Y+7, r22	; 0x07
    3fe8:	78 87       	std	Y+8, r23	; 0x08
	float Q0 = g_coeff * Q1 - Q2 + (float)(sample - ADCCENTER);
    3fea:	80 91 f9 41 	lds	r24, 0x41F9	; 0x8041f9 <g_coeff>
    3fee:	90 91 fa 41 	lds	r25, 0x41FA	; 0x8041fa <g_coeff+0x1>
    3ff2:	a0 91 fb 41 	lds	r26, 0x41FB	; 0x8041fb <g_coeff+0x2>
    3ff6:	b0 91 fc 41 	lds	r27, 0x41FC	; 0x8041fc <g_coeff+0x3>
    3ffa:	20 91 fd 41 	lds	r18, 0x41FD	; 0x8041fd <Q1>
    3ffe:	30 91 fe 41 	lds	r19, 0x41FE	; 0x8041fe <Q1+0x1>
    4002:	40 91 ff 41 	lds	r20, 0x41FF	; 0x8041ff <Q1+0x2>
    4006:	50 91 00 42 	lds	r21, 0x4200	; 0x804200 <Q1+0x3>
    400a:	bc 01       	movw	r22, r24
    400c:	cd 01       	movw	r24, r26
    400e:	0e 94 17 3a 	call	0x742e	; 0x742e <__mulsf3>
    4012:	dc 01       	movw	r26, r24
    4014:	cb 01       	movw	r24, r22
    4016:	7c 01       	movw	r14, r24
    4018:	8d 01       	movw	r16, r26
    401a:	80 91 01 42 	lds	r24, 0x4201	; 0x804201 <Q2>
    401e:	90 91 02 42 	lds	r25, 0x4202	; 0x804202 <Q2+0x1>
    4022:	a0 91 03 42 	lds	r26, 0x4203	; 0x804203 <Q2+0x2>
    4026:	b0 91 04 42 	lds	r27, 0x4204	; 0x804204 <Q2+0x3>
    402a:	9c 01       	movw	r18, r24
    402c:	ad 01       	movw	r20, r26
    402e:	c8 01       	movw	r24, r16
    4030:	b7 01       	movw	r22, r14
    4032:	0e 94 9c 37 	call	0x6f38	; 0x6f38 <__subsf3>
    4036:	dc 01       	movw	r26, r24
    4038:	cb 01       	movw	r24, r22
    403a:	6c 01       	movw	r12, r24
    403c:	7d 01       	movw	r14, r26
    403e:	8f 81       	ldd	r24, Y+7	; 0x07
    4040:	98 85       	ldd	r25, Y+8	; 0x08
    4042:	92 50       	subi	r25, 0x02	; 2
    4044:	09 2e       	mov	r0, r25
    4046:	00 0c       	add	r0, r0
    4048:	aa 0b       	sbc	r26, r26
    404a:	bb 0b       	sbc	r27, r27
    404c:	bc 01       	movw	r22, r24
    404e:	cd 01       	movw	r24, r26
    4050:	0e 94 bd 38 	call	0x717a	; 0x717a <__floatsisf>
    4054:	dc 01       	movw	r26, r24
    4056:	cb 01       	movw	r24, r22
    4058:	9c 01       	movw	r18, r24
    405a:	ad 01       	movw	r20, r26
    405c:	c7 01       	movw	r24, r14
    405e:	b6 01       	movw	r22, r12
    4060:	0e 94 9d 37 	call	0x6f3a	; 0x6f3a <__addsf3>
    4064:	dc 01       	movw	r26, r24
    4066:	cb 01       	movw	r24, r22
    4068:	89 83       	std	Y+1, r24	; 0x01
    406a:	9a 83       	std	Y+2, r25	; 0x02
    406c:	ab 83       	std	Y+3, r26	; 0x03
    406e:	bc 83       	std	Y+4, r27	; 0x04

	if(sample > 1000)
    4070:	8f 81       	ldd	r24, Y+7	; 0x07
    4072:	98 85       	ldd	r25, Y+8	; 0x08
    4074:	89 3e       	cpi	r24, 0xE9	; 233
    4076:	93 40       	sbci	r25, 0x03	; 3
    4078:	4c f0       	brlt	.+18     	; 0x408c <__DATA_REGION_LENGTH__+0x8c>
	{
		highValueCount++;
    407a:	80 91 08 42 	lds	r24, 0x4208	; 0x804208 <highValueCount>
    407e:	90 91 09 42 	lds	r25, 0x4209	; 0x804209 <highValueCount+0x1>
    4082:	01 96       	adiw	r24, 0x01	; 1
    4084:	80 93 08 42 	sts	0x4208, r24	; 0x804208 <highValueCount>
    4088:	90 93 09 42 	sts	0x4209, r25	; 0x804209 <highValueCount+0x1>
	}

	Q2 = Q1;
    408c:	80 91 fd 41 	lds	r24, 0x41FD	; 0x8041fd <Q1>
    4090:	90 91 fe 41 	lds	r25, 0x41FE	; 0x8041fe <Q1+0x1>
    4094:	a0 91 ff 41 	lds	r26, 0x41FF	; 0x8041ff <Q1+0x2>
    4098:	b0 91 00 42 	lds	r27, 0x4200	; 0x804200 <Q1+0x3>
    409c:	80 93 01 42 	sts	0x4201, r24	; 0x804201 <Q2>
    40a0:	90 93 02 42 	sts	0x4202, r25	; 0x804202 <Q2+0x1>
    40a4:	a0 93 03 42 	sts	0x4203, r26	; 0x804203 <Q2+0x2>
    40a8:	b0 93 04 42 	sts	0x4204, r27	; 0x804204 <Q2+0x3>
	Q1 = Q0;
    40ac:	89 81       	ldd	r24, Y+1	; 0x01
    40ae:	9a 81       	ldd	r25, Y+2	; 0x02
    40b0:	ab 81       	ldd	r26, Y+3	; 0x03
    40b2:	bc 81       	ldd	r27, Y+4	; 0x04
    40b4:	80 93 fd 41 	sts	0x41FD, r24	; 0x8041fd <Q1>
    40b8:	90 93 fe 41 	sts	0x41FE, r25	; 0x8041fe <Q1+0x1>
    40bc:	a0 93 ff 41 	sts	0x41FF, r26	; 0x8041ff <Q1+0x2>
    40c0:	b0 93 00 42 	sts	0x4200, r27	; 0x804200 <Q1+0x3>
}
    40c4:	00 00       	nop
    40c6:	28 96       	adiw	r28, 0x08	; 8
    40c8:	cd bf       	out	0x3d, r28	; 61
    40ca:	de bf       	out	0x3e, r29	; 62
    40cc:	df 91       	pop	r29
    40ce:	cf 91       	pop	r28
    40d0:	1f 91       	pop	r17
    40d2:	0f 91       	pop	r16
    40d4:	ff 90       	pop	r15
    40d6:	ef 90       	pop	r14
    40d8:	df 90       	pop	r13
    40da:	cf 90       	pop	r12
    40dc:	08 95       	ret

000040de <_ZN8Goertzel9DataPointEi>:

bool Goertzel::DataPoint(int data)
{
    40de:	cf 93       	push	r28
    40e0:	df 93       	push	r29
    40e2:	00 d0       	rcall	.+0      	; 0x40e4 <_ZN8Goertzel9DataPointEi+0x6>
    40e4:	00 d0       	rcall	.+0      	; 0x40e6 <_ZN8Goertzel9DataPointEi+0x8>
    40e6:	cd b7       	in	r28, 0x3d	; 61
    40e8:	de b7       	in	r29, 0x3e	; 62
    40ea:	89 83       	std	Y+1, r24	; 0x01
    40ec:	9a 83       	std	Y+2, r25	; 0x02
    40ee:	6b 83       	std	Y+3, r22	; 0x03
    40f0:	7c 83       	std	Y+4, r23	; 0x04
	if(_samplesReady)
    40f2:	80 91 07 42 	lds	r24, 0x4207	; 0x804207 <_samplesReady>
    40f6:	88 23       	and	r24, r24
    40f8:	19 f0       	breq	.+6      	; 0x4100 <_ZN8Goertzel9DataPointEi+0x22>
	{
		return(_samplesReady);
    40fa:	80 91 07 42 	lds	r24, 0x4207	; 0x804207 <_samplesReady>
    40fe:	32 c0       	rjmp	.+100    	; 0x4164 <_ZN8Goertzel9DataPointEi+0x86>
	}

	testData[_index] = data;
    4100:	20 91 0a 42 	lds	r18, 0x420A	; 0x80420a <testData>
    4104:	30 91 0b 42 	lds	r19, 0x420B	; 0x80420b <testData+0x1>
    4108:	80 91 05 42 	lds	r24, 0x4205	; 0x804205 <_index>
    410c:	90 91 06 42 	lds	r25, 0x4206	; 0x804206 <_index+0x1>
    4110:	88 0f       	add	r24, r24
    4112:	99 1f       	adc	r25, r25
    4114:	82 0f       	add	r24, r18
    4116:	93 1f       	adc	r25, r19
    4118:	2b 81       	ldd	r18, Y+3	; 0x03
    411a:	3c 81       	ldd	r19, Y+4	; 0x04
    411c:	fc 01       	movw	r30, r24
    411e:	20 83       	st	Z, r18
    4120:	31 83       	std	Z+1, r19	; 0x01
	_index++;
    4122:	80 91 05 42 	lds	r24, 0x4205	; 0x804205 <_index>
    4126:	90 91 06 42 	lds	r25, 0x4206	; 0x804206 <_index+0x1>
    412a:	01 96       	adiw	r24, 0x01	; 1
    412c:	80 93 05 42 	sts	0x4205, r24	; 0x804205 <_index>
    4130:	90 93 06 42 	sts	0x4206, r25	; 0x804206 <_index+0x1>
	if(_index >= _N)
    4134:	20 91 05 42 	lds	r18, 0x4205	; 0x804205 <_index>
    4138:	30 91 06 42 	lds	r19, 0x4206	; 0x804206 <_index+0x1>
    413c:	80 91 f7 41 	lds	r24, 0x41F7	; 0x8041f7 <_N>
    4140:	90 91 f8 41 	lds	r25, 0x41F8	; 0x8041f8 <_N+0x1>
    4144:	41 e0       	ldi	r20, 0x01	; 1
    4146:	28 17       	cp	r18, r24
    4148:	39 07       	cpc	r19, r25
    414a:	0c f4       	brge	.+2      	; 0x414e <_ZN8Goertzel9DataPointEi+0x70>
    414c:	40 e0       	ldi	r20, 0x00	; 0
    414e:	44 23       	and	r20, r20
    4150:	39 f0       	breq	.+14     	; 0x4160 <_ZN8Goertzel9DataPointEi+0x82>
	{
		_index = 0;
    4152:	10 92 05 42 	sts	0x4205, r1	; 0x804205 <_index>
    4156:	10 92 06 42 	sts	0x4206, r1	; 0x804206 <_index+0x1>
		_samplesReady = true;
    415a:	81 e0       	ldi	r24, 0x01	; 1
    415c:	80 93 07 42 	sts	0x4207, r24	; 0x804207 <_samplesReady>
	}

	return(_samplesReady);
    4160:	80 91 07 42 	lds	r24, 0x4207	; 0x804207 <_samplesReady>
}
    4164:	24 96       	adiw	r28, 0x04	; 4
    4166:	cd bf       	out	0x3d, r28	; 61
    4168:	de bf       	out	0x3e, r29	; 62
    416a:	df 91       	pop	r29
    416c:	cf 91       	pop	r28
    416e:	08 95       	ret

00004170 <_ZN8Goertzel12SamplesReadyEv>:

bool Goertzel::SamplesReady(void)
{
    4170:	cf 93       	push	r28
    4172:	df 93       	push	r29
    4174:	00 d0       	rcall	.+0      	; 0x4176 <_ZN8Goertzel12SamplesReadyEv+0x6>
    4176:	cd b7       	in	r28, 0x3d	; 61
    4178:	de b7       	in	r29, 0x3e	; 62
    417a:	89 83       	std	Y+1, r24	; 0x01
    417c:	9a 83       	std	Y+2, r25	; 0x02
	return(_samplesReady);
    417e:	80 91 07 42 	lds	r24, 0x4207	; 0x804207 <_samplesReady>
}
    4182:	0f 90       	pop	r0
    4184:	0f 90       	pop	r0
    4186:	df 91       	pop	r29
    4188:	cf 91       	pop	r28
    418a:	08 95       	ret

0000418c <_ZN8Goertzel10Magnitude2EPi>:

float Goertzel::Magnitude2(int *highCount)
{
    418c:	8f 92       	push	r8
    418e:	9f 92       	push	r9
    4190:	af 92       	push	r10
    4192:	bf 92       	push	r11
    4194:	cf 92       	push	r12
    4196:	df 92       	push	r13
    4198:	ef 92       	push	r14
    419a:	ff 92       	push	r15
    419c:	cf 93       	push	r28
    419e:	df 93       	push	r29
    41a0:	cd b7       	in	r28, 0x3d	; 61
    41a2:	de b7       	in	r29, 0x3e	; 62
    41a4:	2a 97       	sbiw	r28, 0x0a	; 10
    41a6:	cd bf       	out	0x3d, r28	; 61
    41a8:	de bf       	out	0x3e, r29	; 62
    41aa:	8f 83       	std	Y+7, r24	; 0x07
    41ac:	98 87       	std	Y+8, r25	; 0x08
    41ae:	69 87       	std	Y+9, r22	; 0x09
    41b0:	7a 87       	std	Y+10, r23	; 0x0a
	float magnitude2;

	highValueCount = 0;
    41b2:	10 92 08 42 	sts	0x4208, r1	; 0x804208 <highValueCount>
    41b6:	10 92 09 42 	sts	0x4209, r1	; 0x804209 <highValueCount+0x1>

	/* Process the samples. */
	for(int index = 0; index < _N; index++)
    41ba:	19 82       	std	Y+1, r1	; 0x01
    41bc:	1a 82       	std	Y+2, r1	; 0x02
    41be:	80 91 f7 41 	lds	r24, 0x41F7	; 0x8041f7 <_N>
    41c2:	90 91 f8 41 	lds	r25, 0x41F8	; 0x8041f8 <_N+0x1>
    41c6:	41 e0       	ldi	r20, 0x01	; 1
    41c8:	29 81       	ldd	r18, Y+1	; 0x01
    41ca:	3a 81       	ldd	r19, Y+2	; 0x02
    41cc:	28 17       	cp	r18, r24
    41ce:	39 07       	cpc	r19, r25
    41d0:	0c f0       	brlt	.+2      	; 0x41d4 <_ZN8Goertzel10Magnitude2EPi+0x48>
    41d2:	40 e0       	ldi	r20, 0x00	; 0
    41d4:	44 23       	and	r20, r20
    41d6:	c1 f0       	breq	.+48     	; 0x4208 <_ZN8Goertzel10Magnitude2EPi+0x7c>
	{
		ProcessSample(testData[index]);
    41d8:	20 91 0a 42 	lds	r18, 0x420A	; 0x80420a <testData>
    41dc:	30 91 0b 42 	lds	r19, 0x420B	; 0x80420b <testData+0x1>
    41e0:	89 81       	ldd	r24, Y+1	; 0x01
    41e2:	9a 81       	ldd	r25, Y+2	; 0x02
    41e4:	88 0f       	add	r24, r24
    41e6:	99 1f       	adc	r25, r25
    41e8:	82 0f       	add	r24, r18
    41ea:	93 1f       	adc	r25, r19
    41ec:	fc 01       	movw	r30, r24
    41ee:	20 81       	ld	r18, Z
    41f0:	31 81       	ldd	r19, Z+1	; 0x01
    41f2:	8f 81       	ldd	r24, Y+7	; 0x07
    41f4:	98 85       	ldd	r25, Y+8	; 0x08
    41f6:	b9 01       	movw	r22, r18
    41f8:	0e 94 e4 1f 	call	0x3fc8	; 0x3fc8 <_ZN8Goertzel13ProcessSampleEi>
	float magnitude2;

	highValueCount = 0;

	/* Process the samples. */
	for(int index = 0; index < _N; index++)
    41fc:	89 81       	ldd	r24, Y+1	; 0x01
    41fe:	9a 81       	ldd	r25, Y+2	; 0x02
    4200:	01 96       	adiw	r24, 0x01	; 1
    4202:	89 83       	std	Y+1, r24	; 0x01
    4204:	9a 83       	std	Y+2, r25	; 0x02
    4206:	db cf       	rjmp	.-74     	; 0x41be <_ZN8Goertzel10Magnitude2EPi+0x32>
	{
		ProcessSample(testData[index]);
	}

	if(highCount) *highCount = highValueCount;
    4208:	89 85       	ldd	r24, Y+9	; 0x09
    420a:	9a 85       	ldd	r25, Y+10	; 0x0a
    420c:	89 2b       	or	r24, r25
    420e:	49 f0       	breq	.+18     	; 0x4222 <_ZN8Goertzel10Magnitude2EPi+0x96>
    4210:	20 91 08 42 	lds	r18, 0x4208	; 0x804208 <highValueCount>
    4214:	30 91 09 42 	lds	r19, 0x4209	; 0x804209 <highValueCount+0x1>
    4218:	89 85       	ldd	r24, Y+9	; 0x09
    421a:	9a 85       	ldd	r25, Y+10	; 0x0a
    421c:	fc 01       	movw	r30, r24
    421e:	20 83       	st	Z, r18
    4220:	31 83       	std	Z+1, r19	; 0x01

	magnitude2 = Q1 * Q1 + Q2 * Q2 - g_coeff * Q1 * Q2;
    4222:	80 91 fd 41 	lds	r24, 0x41FD	; 0x8041fd <Q1>
    4226:	90 91 fe 41 	lds	r25, 0x41FE	; 0x8041fe <Q1+0x1>
    422a:	a0 91 ff 41 	lds	r26, 0x41FF	; 0x8041ff <Q1+0x2>
    422e:	b0 91 00 42 	lds	r27, 0x4200	; 0x804200 <Q1+0x3>
    4232:	20 91 fd 41 	lds	r18, 0x41FD	; 0x8041fd <Q1>
    4236:	30 91 fe 41 	lds	r19, 0x41FE	; 0x8041fe <Q1+0x1>
    423a:	40 91 ff 41 	lds	r20, 0x41FF	; 0x8041ff <Q1+0x2>
    423e:	50 91 00 42 	lds	r21, 0x4200	; 0x804200 <Q1+0x3>
    4242:	bc 01       	movw	r22, r24
    4244:	cd 01       	movw	r24, r26
    4246:	0e 94 17 3a 	call	0x742e	; 0x742e <__mulsf3>
    424a:	dc 01       	movw	r26, r24
    424c:	cb 01       	movw	r24, r22
    424e:	6c 01       	movw	r12, r24
    4250:	7d 01       	movw	r14, r26
    4252:	80 91 01 42 	lds	r24, 0x4201	; 0x804201 <Q2>
    4256:	90 91 02 42 	lds	r25, 0x4202	; 0x804202 <Q2+0x1>
    425a:	a0 91 03 42 	lds	r26, 0x4203	; 0x804203 <Q2+0x2>
    425e:	b0 91 04 42 	lds	r27, 0x4204	; 0x804204 <Q2+0x3>
    4262:	20 91 01 42 	lds	r18, 0x4201	; 0x804201 <Q2>
    4266:	30 91 02 42 	lds	r19, 0x4202	; 0x804202 <Q2+0x1>
    426a:	40 91 03 42 	lds	r20, 0x4203	; 0x804203 <Q2+0x2>
    426e:	50 91 04 42 	lds	r21, 0x4204	; 0x804204 <Q2+0x3>
    4272:	bc 01       	movw	r22, r24
    4274:	cd 01       	movw	r24, r26
    4276:	0e 94 17 3a 	call	0x742e	; 0x742e <__mulsf3>
    427a:	dc 01       	movw	r26, r24
    427c:	cb 01       	movw	r24, r22
    427e:	9c 01       	movw	r18, r24
    4280:	ad 01       	movw	r20, r26
    4282:	c7 01       	movw	r24, r14
    4284:	b6 01       	movw	r22, r12
    4286:	0e 94 9d 37 	call	0x6f3a	; 0x6f3a <__addsf3>
    428a:	dc 01       	movw	r26, r24
    428c:	cb 01       	movw	r24, r22
    428e:	6c 01       	movw	r12, r24
    4290:	7d 01       	movw	r14, r26
    4292:	80 91 f9 41 	lds	r24, 0x41F9	; 0x8041f9 <g_coeff>
    4296:	90 91 fa 41 	lds	r25, 0x41FA	; 0x8041fa <g_coeff+0x1>
    429a:	a0 91 fb 41 	lds	r26, 0x41FB	; 0x8041fb <g_coeff+0x2>
    429e:	b0 91 fc 41 	lds	r27, 0x41FC	; 0x8041fc <g_coeff+0x3>
    42a2:	20 91 fd 41 	lds	r18, 0x41FD	; 0x8041fd <Q1>
    42a6:	30 91 fe 41 	lds	r19, 0x41FE	; 0x8041fe <Q1+0x1>
    42aa:	40 91 ff 41 	lds	r20, 0x41FF	; 0x8041ff <Q1+0x2>
    42ae:	50 91 00 42 	lds	r21, 0x4200	; 0x804200 <Q1+0x3>
    42b2:	bc 01       	movw	r22, r24
    42b4:	cd 01       	movw	r24, r26
    42b6:	0e 94 17 3a 	call	0x742e	; 0x742e <__mulsf3>
    42ba:	dc 01       	movw	r26, r24
    42bc:	cb 01       	movw	r24, r22
    42be:	4c 01       	movw	r8, r24
    42c0:	5d 01       	movw	r10, r26
    42c2:	80 91 01 42 	lds	r24, 0x4201	; 0x804201 <Q2>
    42c6:	90 91 02 42 	lds	r25, 0x4202	; 0x804202 <Q2+0x1>
    42ca:	a0 91 03 42 	lds	r26, 0x4203	; 0x804203 <Q2+0x2>
    42ce:	b0 91 04 42 	lds	r27, 0x4204	; 0x804204 <Q2+0x3>
    42d2:	9c 01       	movw	r18, r24
    42d4:	ad 01       	movw	r20, r26
    42d6:	c5 01       	movw	r24, r10
    42d8:	b4 01       	movw	r22, r8
    42da:	0e 94 17 3a 	call	0x742e	; 0x742e <__mulsf3>
    42de:	dc 01       	movw	r26, r24
    42e0:	cb 01       	movw	r24, r22
    42e2:	9c 01       	movw	r18, r24
    42e4:	ad 01       	movw	r20, r26
    42e6:	c7 01       	movw	r24, r14
    42e8:	b6 01       	movw	r22, r12
    42ea:	0e 94 9c 37 	call	0x6f38	; 0x6f38 <__subsf3>
    42ee:	dc 01       	movw	r26, r24
    42f0:	cb 01       	movw	r24, r22
    42f2:	8b 83       	std	Y+3, r24	; 0x03
    42f4:	9c 83       	std	Y+4, r25	; 0x04
    42f6:	ad 83       	std	Y+5, r26	; 0x05
    42f8:	be 83       	std	Y+6, r27	; 0x06

	ResetGoertzel();
    42fa:	8f 81       	ldd	r24, Y+7	; 0x07
    42fc:	98 85       	ldd	r25, Y+8	; 0x08
    42fe:	0e 94 c5 1f 	call	0x3f8a	; 0x3f8a <_ZN8Goertzel13ResetGoertzelEv>
	return( magnitude2);
    4302:	8b 81       	ldd	r24, Y+3	; 0x03
    4304:	9c 81       	ldd	r25, Y+4	; 0x04
    4306:	ad 81       	ldd	r26, Y+5	; 0x05
    4308:	be 81       	ldd	r27, Y+6	; 0x06
}
    430a:	bc 01       	movw	r22, r24
    430c:	cd 01       	movw	r24, r26
    430e:	2a 96       	adiw	r28, 0x0a	; 10
    4310:	cd bf       	out	0x3d, r28	; 61
    4312:	de bf       	out	0x3e, r29	; 62
    4314:	df 91       	pop	r29
    4316:	cf 91       	pop	r28
    4318:	ff 90       	pop	r15
    431a:	ef 90       	pop	r14
    431c:	df 90       	pop	r13
    431e:	cf 90       	pop	r12
    4320:	bf 90       	pop	r11
    4322:	af 90       	pop	r10
    4324:	9f 90       	pop	r9
    4326:	8f 90       	pop	r8
    4328:	08 95       	ret

0000432a <I2C_0_Init>:
	TWI0.MSTATUS = TWI_BUSSTATE_IDLE_gc;
	TWI0.MCTRLA = 0;
}

void I2C_0_Init(void)
{
    432a:	cf 93       	push	r28
    432c:	df 93       	push	r29
    432e:	cd b7       	in	r28, 0x3d	; 61
    4330:	de b7       	in	r29, 0x3e	; 62
	PORTMUX.TWIROUTEA &= 0x0A;
    4332:	80 ee       	ldi	r24, 0xE0	; 224
    4334:	95 e0       	ldi	r25, 0x05	; 5
    4336:	fc 01       	movw	r30, r24
    4338:	25 81       	ldd	r18, Z+5	; 0x05
    433a:	80 ee       	ldi	r24, 0xE0	; 224
    433c:	95 e0       	ldi	r25, 0x05	; 5
    433e:	2a 70       	andi	r18, 0x0A	; 10
    4340:	fc 01       	movw	r30, r24
    4342:	25 83       	std	Z+5, r18	; 0x05
	PORTMUX.TWIROUTEA |= 0x02;
    4344:	80 ee       	ldi	r24, 0xE0	; 224
    4346:	95 e0       	ldi	r25, 0x05	; 5
    4348:	fc 01       	movw	r30, r24
    434a:	25 81       	ldd	r18, Z+5	; 0x05
    434c:	80 ee       	ldi	r24, 0xE0	; 224
    434e:	95 e0       	ldi	r25, 0x05	; 5
    4350:	22 60       	ori	r18, 0x02	; 2
    4352:	fc 01       	movw	r30, r24
    4354:	25 83       	std	Z+5, r18	; 0x05
	
	/* Host Baud Rate Control */
//	TWI0.MBAUD = TWI0_BAUD((I2C_SCL_FREQ), 0.3);
	TWI0.MBAUD = (uint8_t)TWI0_BAUD(I2C_SCL_FREQ, 0);
    4356:	80 e0       	ldi	r24, 0x00	; 0
    4358:	99 e0       	ldi	r25, 0x09	; 9
    435a:	23 e7       	ldi	r18, 0x73	; 115
    435c:	fc 01       	movw	r30, r24
    435e:	26 83       	std	Z+6, r18	; 0x06
	
	/* Enable TWI */
	TWI0.MCTRLA = TWI_ENABLE_bm;
    4360:	80 e0       	ldi	r24, 0x00	; 0
    4362:	99 e0       	ldi	r25, 0x09	; 9
    4364:	21 e0       	ldi	r18, 0x01	; 1
    4366:	fc 01       	movw	r30, r24
    4368:	23 83       	std	Z+3, r18	; 0x03
	
	/* Initialize the address register */
	TWI0.MADDR = 0x00;
    436a:	80 e0       	ldi	r24, 0x00	; 0
    436c:	99 e0       	ldi	r25, 0x09	; 9
    436e:	fc 01       	movw	r30, r24
    4370:	17 82       	std	Z+7, r1	; 0x07
	
	/* Initialize the data register */
	TWI0.MDATA = 0x00;
    4372:	80 e0       	ldi	r24, 0x00	; 0
    4374:	99 e0       	ldi	r25, 0x09	; 9
    4376:	fc 01       	movw	r30, r24
    4378:	10 86       	std	Z+8, r1	; 0x08
	
	/* Set bus state idle */
	TWI0.MSTATUS = TWI_BUSSTATE_IDLE_gc;
    437a:	80 e0       	ldi	r24, 0x00	; 0
    437c:	99 e0       	ldi	r25, 0x09	; 9
    437e:	21 e0       	ldi	r18, 0x01	; 1
    4380:	fc 01       	movw	r30, r24
    4382:	25 83       	std	Z+5, r18	; 0x05
	/* Select I2C pins PC2/PC3 */
}
    4384:	00 00       	nop
    4386:	df 91       	pop	r29
    4388:	cf 91       	pop	r28
    438a:	08 95       	ret

0000438c <_ZL11i2c_0_WaitWv>:

static uint8_t i2c_0_WaitW(void)
{
    438c:	cf 93       	push	r28
    438e:	df 93       	push	r29
    4390:	1f 92       	push	r1
    4392:	cd b7       	in	r28, 0x3d	; 61
    4394:	de b7       	in	r29, 0x3e	; 62
	uint8_t state = I2C_INIT;
    4396:	19 82       	std	Y+1, r1	; 0x01
	
	g_i2c0_timeout_ticks = 50;
    4398:	82 e3       	ldi	r24, 0x32	; 50
    439a:	90 e0       	ldi	r25, 0x00	; 0
    439c:	80 93 22 40 	sts	0x4022, r24	; 0x804022 <g_i2c0_timeout_ticks>
    43a0:	90 93 23 40 	sts	0x4023, r25	; 0x804023 <g_i2c0_timeout_ticks+0x1>
	
	do
	{
		if(TWI0.MSTATUS & (TWI_WIF_bm | TWI_RIF_bm))
    43a4:	80 e0       	ldi	r24, 0x00	; 0
    43a6:	99 e0       	ldi	r25, 0x09	; 9
    43a8:	fc 01       	movw	r30, r24
    43aa:	85 81       	ldd	r24, Z+5	; 0x05
    43ac:	88 2f       	mov	r24, r24
    43ae:	90 e0       	ldi	r25, 0x00	; 0
    43b0:	80 7c       	andi	r24, 0xC0	; 192
    43b2:	99 27       	eor	r25, r25
    43b4:	21 e0       	ldi	r18, 0x01	; 1
    43b6:	89 2b       	or	r24, r25
    43b8:	09 f4       	brne	.+2      	; 0x43bc <_ZL11i2c_0_WaitWv+0x30>
    43ba:	20 e0       	ldi	r18, 0x00	; 0
    43bc:	22 23       	and	r18, r18
    43be:	a1 f0       	breq	.+40     	; 0x43e8 <_ZL11i2c_0_WaitWv+0x5c>
		{
			if(!(TWI0.MSTATUS & TWI_RXACK_bm))
    43c0:	80 e0       	ldi	r24, 0x00	; 0
    43c2:	99 e0       	ldi	r25, 0x09	; 9
    43c4:	fc 01       	movw	r30, r24
    43c6:	85 81       	ldd	r24, Z+5	; 0x05
    43c8:	88 2f       	mov	r24, r24
    43ca:	90 e0       	ldi	r25, 0x00	; 0
    43cc:	80 71       	andi	r24, 0x10	; 16
    43ce:	99 27       	eor	r25, r25
    43d0:	21 e0       	ldi	r18, 0x01	; 1
    43d2:	89 2b       	or	r24, r25
    43d4:	09 f0       	breq	.+2      	; 0x43d8 <_ZL11i2c_0_WaitWv+0x4c>
    43d6:	20 e0       	ldi	r18, 0x00	; 0
    43d8:	22 23       	and	r18, r18
    43da:	19 f0       	breq	.+6      	; 0x43e2 <_ZL11i2c_0_WaitWv+0x56>
			{
				/* client responded with ack - TWI goes to M1 state */
				state = I2C_ACKED;
    43dc:	81 e0       	ldi	r24, 0x01	; 1
    43de:	89 83       	std	Y+1, r24	; 0x01
    43e0:	13 c0       	rjmp	.+38     	; 0x4408 <_ZL11i2c_0_WaitWv+0x7c>
			}
			else
			{
				/* address sent but no ack received - TWI goes to M3 state */
				state = I2C_NACKED;
    43e2:	82 e0       	ldi	r24, 0x02	; 2
    43e4:	89 83       	std	Y+1, r24	; 0x01
    43e6:	10 c0       	rjmp	.+32     	; 0x4408 <_ZL11i2c_0_WaitWv+0x7c>
			}
		}
		else if(TWI0.MSTATUS & (TWI_BUSERR_bm | TWI_ARBLOST_bm))
    43e8:	80 e0       	ldi	r24, 0x00	; 0
    43ea:	99 e0       	ldi	r25, 0x09	; 9
    43ec:	fc 01       	movw	r30, r24
    43ee:	85 81       	ldd	r24, Z+5	; 0x05
    43f0:	88 2f       	mov	r24, r24
    43f2:	90 e0       	ldi	r25, 0x00	; 0
    43f4:	8c 70       	andi	r24, 0x0C	; 12
    43f6:	99 27       	eor	r25, r25
    43f8:	21 e0       	ldi	r18, 0x01	; 1
    43fa:	89 2b       	or	r24, r25
    43fc:	09 f4       	brne	.+2      	; 0x4400 <_ZL11i2c_0_WaitWv+0x74>
    43fe:	20 e0       	ldi	r18, 0x00	; 0
    4400:	22 23       	and	r18, r18
    4402:	11 f0       	breq	.+4      	; 0x4408 <_ZL11i2c_0_WaitWv+0x7c>
		{
			/* get here only in case of bus error or arbitration lost - M4 state */
			state = I2C_ERROR;
    4404:	84 e0       	ldi	r24, 0x04	; 4
    4406:	89 83       	std	Y+1, r24	; 0x01
		}
	} while(!state && g_i2c0_timeout_ticks);
    4408:	89 81       	ldd	r24, Y+1	; 0x01
    440a:	88 23       	and	r24, r24
    440c:	41 f4       	brne	.+16     	; 0x441e <_ZL11i2c_0_WaitWv+0x92>
    440e:	80 91 22 40 	lds	r24, 0x4022	; 0x804022 <g_i2c0_timeout_ticks>
    4412:	90 91 23 40 	lds	r25, 0x4023	; 0x804023 <g_i2c0_timeout_ticks+0x1>
    4416:	89 2b       	or	r24, r25
    4418:	11 f0       	breq	.+4      	; 0x441e <_ZL11i2c_0_WaitWv+0x92>
    441a:	81 e0       	ldi	r24, 0x01	; 1
    441c:	01 c0       	rjmp	.+2      	; 0x4420 <_ZL11i2c_0_WaitWv+0x94>
    441e:	80 e0       	ldi	r24, 0x00	; 0
    4420:	88 23       	and	r24, r24
    4422:	09 f0       	breq	.+2      	; 0x4426 <_ZL11i2c_0_WaitWv+0x9a>
{
	uint8_t state = I2C_INIT;
	
	g_i2c0_timeout_ticks = 50;
	
	do
    4424:	bf cf       	rjmp	.-130    	; 0x43a4 <_ZL11i2c_0_WaitWv+0x18>
			/* get here only in case of bus error or arbitration lost - M4 state */
			state = I2C_ERROR;
		}
	} while(!state && g_i2c0_timeout_ticks);
	
	if(!g_i2c0_timeout_ticks) 
    4426:	80 91 22 40 	lds	r24, 0x4022	; 0x804022 <g_i2c0_timeout_ticks>
    442a:	90 91 23 40 	lds	r25, 0x4023	; 0x804023 <g_i2c0_timeout_ticks+0x1>
    442e:	21 e0       	ldi	r18, 0x01	; 1
    4430:	89 2b       	or	r24, r25
    4432:	09 f0       	breq	.+2      	; 0x4436 <_ZL11i2c_0_WaitWv+0xaa>
    4434:	20 e0       	ldi	r18, 0x00	; 0
    4436:	22 23       	and	r18, r18
    4438:	11 f0       	breq	.+4      	; 0x443e <_ZL11i2c_0_WaitWv+0xb2>
	{
		state = I2C_ERROR;
    443a:	84 e0       	ldi	r24, 0x04	; 4
    443c:	89 83       	std	Y+1, r24	; 0x01
	}
	
	return state;
    443e:	89 81       	ldd	r24, Y+1	; 0x01
}
    4440:	0f 90       	pop	r0
    4442:	df 91       	pop	r29
    4444:	cf 91       	pop	r28
    4446:	08 95       	ret

00004448 <_ZL11i2c_0_WaitRv>:

static uint8_t i2c_0_WaitR(void)
{
    4448:	cf 93       	push	r28
    444a:	df 93       	push	r29
    444c:	1f 92       	push	r1
    444e:	cd b7       	in	r28, 0x3d	; 61
    4450:	de b7       	in	r29, 0x3e	; 62
	uint8_t state = I2C_INIT;
    4452:	19 82       	std	Y+1, r1	; 0x01
	
	g_i2c0_timeout_ticks = 50;
    4454:	82 e3       	ldi	r24, 0x32	; 50
    4456:	90 e0       	ldi	r25, 0x00	; 0
    4458:	80 93 22 40 	sts	0x4022, r24	; 0x804022 <g_i2c0_timeout_ticks>
    445c:	90 93 23 40 	sts	0x4023, r25	; 0x804023 <g_i2c0_timeout_ticks+0x1>
	
	do
	{
		if(TWI0.MSTATUS & (TWI_WIF_bm | TWI_RIF_bm))
    4460:	80 e0       	ldi	r24, 0x00	; 0
    4462:	99 e0       	ldi	r25, 0x09	; 9
    4464:	fc 01       	movw	r30, r24
    4466:	85 81       	ldd	r24, Z+5	; 0x05
    4468:	88 2f       	mov	r24, r24
    446a:	90 e0       	ldi	r25, 0x00	; 0
    446c:	80 7c       	andi	r24, 0xC0	; 192
    446e:	99 27       	eor	r25, r25
    4470:	21 e0       	ldi	r18, 0x01	; 1
    4472:	89 2b       	or	r24, r25
    4474:	09 f4       	brne	.+2      	; 0x4478 <_ZL11i2c_0_WaitRv+0x30>
    4476:	20 e0       	ldi	r18, 0x00	; 0
    4478:	22 23       	and	r18, r18
    447a:	19 f0       	breq	.+6      	; 0x4482 <_ZL11i2c_0_WaitRv+0x3a>
		{
			state = I2C_READY;
    447c:	83 e0       	ldi	r24, 0x03	; 3
    447e:	89 83       	std	Y+1, r24	; 0x01
    4480:	10 c0       	rjmp	.+32     	; 0x44a2 <_ZL11i2c_0_WaitRv+0x5a>
		}
		else if(TWI0.MSTATUS & (TWI_BUSERR_bm | TWI_ARBLOST_bm))
    4482:	80 e0       	ldi	r24, 0x00	; 0
    4484:	99 e0       	ldi	r25, 0x09	; 9
    4486:	fc 01       	movw	r30, r24
    4488:	85 81       	ldd	r24, Z+5	; 0x05
    448a:	88 2f       	mov	r24, r24
    448c:	90 e0       	ldi	r25, 0x00	; 0
    448e:	8c 70       	andi	r24, 0x0C	; 12
    4490:	99 27       	eor	r25, r25
    4492:	21 e0       	ldi	r18, 0x01	; 1
    4494:	89 2b       	or	r24, r25
    4496:	09 f4       	brne	.+2      	; 0x449a <_ZL11i2c_0_WaitRv+0x52>
    4498:	20 e0       	ldi	r18, 0x00	; 0
    449a:	22 23       	and	r18, r18
    449c:	11 f0       	breq	.+4      	; 0x44a2 <_ZL11i2c_0_WaitRv+0x5a>
		{
			/* get here only in case of bus error or arbitration lost - M4 state */
			state = I2C_ERROR;
    449e:	84 e0       	ldi	r24, 0x04	; 4
    44a0:	89 83       	std	Y+1, r24	; 0x01
		}
	} while(!state && g_i2c0_timeout_ticks);
    44a2:	89 81       	ldd	r24, Y+1	; 0x01
    44a4:	88 23       	and	r24, r24
    44a6:	41 f4       	brne	.+16     	; 0x44b8 <_ZL11i2c_0_WaitRv+0x70>
    44a8:	80 91 22 40 	lds	r24, 0x4022	; 0x804022 <g_i2c0_timeout_ticks>
    44ac:	90 91 23 40 	lds	r25, 0x4023	; 0x804023 <g_i2c0_timeout_ticks+0x1>
    44b0:	89 2b       	or	r24, r25
    44b2:	11 f0       	breq	.+4      	; 0x44b8 <_ZL11i2c_0_WaitRv+0x70>
    44b4:	81 e0       	ldi	r24, 0x01	; 1
    44b6:	01 c0       	rjmp	.+2      	; 0x44ba <_ZL11i2c_0_WaitRv+0x72>
    44b8:	80 e0       	ldi	r24, 0x00	; 0
    44ba:	88 23       	and	r24, r24
    44bc:	09 f0       	breq	.+2      	; 0x44c0 <_ZL11i2c_0_WaitRv+0x78>
{
	uint8_t state = I2C_INIT;
	
	g_i2c0_timeout_ticks = 50;
	
	do
    44be:	d0 cf       	rjmp	.-96     	; 0x4460 <_ZL11i2c_0_WaitRv+0x18>
			/* get here only in case of bus error or arbitration lost - M4 state */
			state = I2C_ERROR;
		}
	} while(!state && g_i2c0_timeout_ticks);
	
	return state;
    44c0:	89 81       	ldd	r24, Y+1	; 0x01
}
    44c2:	0f 90       	pop	r0
    44c4:	df 91       	pop	r29
    44c6:	cf 91       	pop	r28
    44c8:	08 95       	ret

000044ca <I2C_0_SendData>:

/* Returns how many bytes have been sent, -1 means NACK at address, 0 means client ACKed to client address */
uint8_t I2C_0_SendData(uint8_t slaveAddr, uint8_t regAddr, uint8_t *pData, uint8_t len)
{
    44ca:	cf 93       	push	r28
    44cc:	df 93       	push	r29
    44ce:	cd b7       	in	r28, 0x3d	; 61
    44d0:	de b7       	in	r29, 0x3e	; 62
    44d2:	26 97       	sbiw	r28, 0x06	; 6
    44d4:	cd bf       	out	0x3d, r28	; 61
    44d6:	de bf       	out	0x3e, r29	; 62
    44d8:	8a 83       	std	Y+2, r24	; 0x02
    44da:	6b 83       	std	Y+3, r22	; 0x03
    44dc:	4c 83       	std	Y+4, r20	; 0x04
    44de:	5d 83       	std	Y+5, r21	; 0x05
    44e0:	2e 83       	std	Y+6, r18	; 0x06
	uint8_t retVal = (uint8_t) - 1;
    44e2:	8f ef       	ldi	r24, 0xFF	; 255
    44e4:	89 83       	std	Y+1, r24	; 0x01
	
	/* Send slave address */
	TWI0.MADDR = slaveAddr;
    44e6:	80 e0       	ldi	r24, 0x00	; 0
    44e8:	99 e0       	ldi	r25, 0x09	; 9
    44ea:	2a 81       	ldd	r18, Y+2	; 0x02
    44ec:	fc 01       	movw	r30, r24
    44ee:	27 83       	std	Z+7, r18	; 0x07
	if(i2c_0_WaitW() != I2C_ACKED)
    44f0:	0e 94 c6 21 	call	0x438c	; 0x438c <_ZL11i2c_0_WaitWv>
    44f4:	98 2f       	mov	r25, r24
    44f6:	81 e0       	ldi	r24, 0x01	; 1
    44f8:	91 30       	cpi	r25, 0x01	; 1
    44fa:	09 f4       	brne	.+2      	; 0x44fe <I2C_0_SendData+0x34>
    44fc:	80 e0       	ldi	r24, 0x00	; 0
    44fe:	88 23       	and	r24, r24
    4500:	11 f0       	breq	.+4      	; 0x4506 <I2C_0_SendData+0x3c>
	{
		return retVal;
    4502:	89 81       	ldd	r24, Y+1	; 0x01
    4504:	44 c0       	rjmp	.+136    	; 0x458e <I2C_0_SendData+0xc4>
	}
	
	/* Send the register address */
	TWI0.MDATA = regAddr;
    4506:	80 e0       	ldi	r24, 0x00	; 0
    4508:	99 e0       	ldi	r25, 0x09	; 9
    450a:	2b 81       	ldd	r18, Y+3	; 0x03
    450c:	fc 01       	movw	r30, r24
    450e:	20 87       	std	Z+8, r18	; 0x08
	if(i2c_0_WaitW() != I2C_ACKED)
    4510:	0e 94 c6 21 	call	0x438c	; 0x438c <_ZL11i2c_0_WaitWv>
    4514:	98 2f       	mov	r25, r24
    4516:	81 e0       	ldi	r24, 0x01	; 1
    4518:	91 30       	cpi	r25, 0x01	; 1
    451a:	09 f4       	brne	.+2      	; 0x451e <I2C_0_SendData+0x54>
    451c:	80 e0       	ldi	r24, 0x00	; 0
    451e:	88 23       	and	r24, r24
    4520:	11 f0       	breq	.+4      	; 0x4526 <I2C_0_SendData+0x5c>
	{
		return retVal;
    4522:	89 81       	ldd	r24, Y+1	; 0x01
    4524:	34 c0       	rjmp	.+104    	; 0x458e <I2C_0_SendData+0xc4>
	}

	retVal = 0;
    4526:	19 82       	std	Y+1, r1	; 0x01
	if((len != 0) && (pData != null))
    4528:	8e 81       	ldd	r24, Y+6	; 0x06
    452a:	88 23       	and	r24, r24
    452c:	79 f1       	breq	.+94     	; 0x458c <I2C_0_SendData+0xc2>
    452e:	8c 81       	ldd	r24, Y+4	; 0x04
    4530:	9d 81       	ldd	r25, Y+5	; 0x05
    4532:	89 2b       	or	r24, r25
    4534:	59 f1       	breq	.+86     	; 0x458c <I2C_0_SendData+0xc2>
	{
		while(len--)
    4536:	8e 81       	ldd	r24, Y+6	; 0x06
    4538:	9f ef       	ldi	r25, 0xFF	; 255
    453a:	98 0f       	add	r25, r24
    453c:	9e 83       	std	Y+6, r25	; 0x06
    453e:	91 e0       	ldi	r25, 0x01	; 1
    4540:	88 23       	and	r24, r24
    4542:	09 f4       	brne	.+2      	; 0x4546 <I2C_0_SendData+0x7c>
    4544:	90 e0       	ldi	r25, 0x00	; 0
    4546:	99 23       	and	r25, r25
    4548:	09 f1       	breq	.+66     	; 0x458c <I2C_0_SendData+0xc2>
		{
			TWI0.MDATA = *pData;
    454a:	80 e0       	ldi	r24, 0x00	; 0
    454c:	99 e0       	ldi	r25, 0x09	; 9
    454e:	2c 81       	ldd	r18, Y+4	; 0x04
    4550:	3d 81       	ldd	r19, Y+5	; 0x05
    4552:	f9 01       	movw	r30, r18
    4554:	20 81       	ld	r18, Z
    4556:	fc 01       	movw	r30, r24
    4558:	20 87       	std	Z+8, r18	; 0x08
			if(i2c_0_WaitW() == I2C_ACKED)
    455a:	0e 94 c6 21 	call	0x438c	; 0x438c <_ZL11i2c_0_WaitWv>
    455e:	98 2f       	mov	r25, r24
    4560:	81 e0       	ldi	r24, 0x01	; 1
    4562:	91 30       	cpi	r25, 0x01	; 1
    4564:	09 f0       	breq	.+2      	; 0x4568 <I2C_0_SendData+0x9e>
    4566:	80 e0       	ldi	r24, 0x00	; 0
    4568:	88 23       	and	r24, r24
    456a:	79 f0       	breq	.+30     	; 0x458a <I2C_0_SendData+0xc0>
			{
				retVal++;
    456c:	89 81       	ldd	r24, Y+1	; 0x01
    456e:	8f 5f       	subi	r24, 0xFF	; 255
    4570:	89 83       	std	Y+1, r24	; 0x01
				pData++;
    4572:	8c 81       	ldd	r24, Y+4	; 0x04
    4574:	9d 81       	ldd	r25, Y+5	; 0x05
    4576:	01 96       	adiw	r24, 0x01	; 1
    4578:	8c 83       	std	Y+4, r24	; 0x04
    457a:	9d 83       	std	Y+5, r25	; 0x05
				if(!len) I2C_0_EndSession();
    457c:	8e 81       	ldd	r24, Y+6	; 0x06
    457e:	88 23       	and	r24, r24
    4580:	11 f4       	brne	.+4      	; 0x4586 <I2C_0_SendData+0xbc>
    4582:	0e 94 4b 23 	call	0x4696	; 0x4696 <I2C_0_EndSession>
				continue;
    4586:	00 00       	nop
	}

	retVal = 0;
	if((len != 0) && (pData != null))
	{
		while(len--)
    4588:	d6 cf       	rjmp	.-84     	; 0x4536 <I2C_0_SendData+0x6c>
				if(!len) I2C_0_EndSession();
				continue;
			}
			else // did not get ACK after client address
			{
				break;
    458a:	00 00       	nop
			}
		}
	}
	
	return retVal;
    458c:	89 81       	ldd	r24, Y+1	; 0x01
}
    458e:	26 96       	adiw	r28, 0x06	; 6
    4590:	cd bf       	out	0x3d, r28	; 61
    4592:	de bf       	out	0x3e, r29	; 62
    4594:	df 91       	pop	r29
    4596:	cf 91       	pop	r28
    4598:	08 95       	ret

0000459a <I2C_0_GetData>:

/* Returns how many bytes have been received, -1 means NACK at address */
uint8_t I2C_0_GetData(uint8_t slaveAddr, uint8_t regAddr, uint8_t *pData, uint8_t len)
{
    459a:	cf 93       	push	r28
    459c:	df 93       	push	r29
    459e:	cd b7       	in	r28, 0x3d	; 61
    45a0:	de b7       	in	r29, 0x3e	; 62
    45a2:	26 97       	sbiw	r28, 0x06	; 6
    45a4:	cd bf       	out	0x3d, r28	; 61
    45a6:	de bf       	out	0x3e, r29	; 62
    45a8:	8a 83       	std	Y+2, r24	; 0x02
    45aa:	6b 83       	std	Y+3, r22	; 0x03
    45ac:	4c 83       	std	Y+4, r20	; 0x04
    45ae:	5d 83       	std	Y+5, r21	; 0x05
    45b0:	2e 83       	std	Y+6, r18	; 0x06
	uint8_t retVal = (uint8_t) -1;
    45b2:	8f ef       	ldi	r24, 0xFF	; 255
    45b4:	89 83       	std	Y+1, r24	; 0x01
	
	/* Send the client address for write */
	TWI0.MADDR = slaveAddr;
    45b6:	80 e0       	ldi	r24, 0x00	; 0
    45b8:	99 e0       	ldi	r25, 0x09	; 9
    45ba:	2a 81       	ldd	r18, Y+2	; 0x02
    45bc:	fc 01       	movw	r30, r24
    45be:	27 83       	std	Z+7, r18	; 0x07
	if(i2c_0_WaitW() != I2C_ACKED)
    45c0:	0e 94 c6 21 	call	0x438c	; 0x438c <_ZL11i2c_0_WaitWv>
    45c4:	98 2f       	mov	r25, r24
    45c6:	81 e0       	ldi	r24, 0x01	; 1
    45c8:	91 30       	cpi	r25, 0x01	; 1
    45ca:	09 f4       	brne	.+2      	; 0x45ce <I2C_0_GetData+0x34>
    45cc:	80 e0       	ldi	r24, 0x00	; 0
    45ce:	88 23       	and	r24, r24
    45d0:	11 f0       	breq	.+4      	; 0x45d6 <I2C_0_GetData+0x3c>
	{
		return retVal;
    45d2:	89 81       	ldd	r24, Y+1	; 0x01
    45d4:	5a c0       	rjmp	.+180    	; 0x468a <I2C_0_GetData+0xf0>
	}
	
	/* Send the register address */
	TWI0.MDATA = regAddr;
    45d6:	80 e0       	ldi	r24, 0x00	; 0
    45d8:	99 e0       	ldi	r25, 0x09	; 9
    45da:	2b 81       	ldd	r18, Y+3	; 0x03
    45dc:	fc 01       	movw	r30, r24
    45de:	20 87       	std	Z+8, r18	; 0x08
	if(i2c_0_WaitW() != I2C_ACKED)
    45e0:	0e 94 c6 21 	call	0x438c	; 0x438c <_ZL11i2c_0_WaitWv>
    45e4:	98 2f       	mov	r25, r24
    45e6:	81 e0       	ldi	r24, 0x01	; 1
    45e8:	91 30       	cpi	r25, 0x01	; 1
    45ea:	09 f4       	brne	.+2      	; 0x45ee <I2C_0_GetData+0x54>
    45ec:	80 e0       	ldi	r24, 0x00	; 0
    45ee:	88 23       	and	r24, r24
    45f0:	11 f0       	breq	.+4      	; 0x45f6 <I2C_0_GetData+0x5c>
	{
		return retVal;
    45f2:	89 81       	ldd	r24, Y+1	; 0x01
    45f4:	4a c0       	rjmp	.+148    	; 0x468a <I2C_0_GetData+0xf0>
	}
	
	/* Send the client address for read */
	TWI0.MADDR = slaveAddr | 0x01;
    45f6:	80 e0       	ldi	r24, 0x00	; 0
    45f8:	99 e0       	ldi	r25, 0x09	; 9
    45fa:	2a 81       	ldd	r18, Y+2	; 0x02
    45fc:	21 60       	ori	r18, 0x01	; 1
    45fe:	fc 01       	movw	r30, r24
    4600:	27 83       	std	Z+7, r18	; 0x07
	if(i2c_0_WaitW() != I2C_ACKED)
    4602:	0e 94 c6 21 	call	0x438c	; 0x438c <_ZL11i2c_0_WaitWv>
    4606:	98 2f       	mov	r25, r24
    4608:	81 e0       	ldi	r24, 0x01	; 1
    460a:	91 30       	cpi	r25, 0x01	; 1
    460c:	09 f4       	brne	.+2      	; 0x4610 <I2C_0_GetData+0x76>
    460e:	80 e0       	ldi	r24, 0x00	; 0
    4610:	88 23       	and	r24, r24
    4612:	11 f0       	breq	.+4      	; 0x4618 <I2C_0_GetData+0x7e>
	{
		return retVal;
    4614:	89 81       	ldd	r24, Y+1	; 0x01
    4616:	39 c0       	rjmp	.+114    	; 0x468a <I2C_0_GetData+0xf0>
	}
	
	retVal = 0;
    4618:	19 82       	std	Y+1, r1	; 0x01
	if((len != 0) && (pData !=null ))
    461a:	8e 81       	ldd	r24, Y+6	; 0x06
    461c:	88 23       	and	r24, r24
    461e:	a1 f1       	breq	.+104    	; 0x4688 <I2C_0_GetData+0xee>
    4620:	8c 81       	ldd	r24, Y+4	; 0x04
    4622:	9d 81       	ldd	r25, Y+5	; 0x05
    4624:	89 2b       	or	r24, r25
    4626:	81 f1       	breq	.+96     	; 0x4688 <I2C_0_GetData+0xee>
	{
		while(len--)
    4628:	8e 81       	ldd	r24, Y+6	; 0x06
    462a:	9f ef       	ldi	r25, 0xFF	; 255
    462c:	98 0f       	add	r25, r24
    462e:	9e 83       	std	Y+6, r25	; 0x06
    4630:	91 e0       	ldi	r25, 0x01	; 1
    4632:	88 23       	and	r24, r24
    4634:	09 f4       	brne	.+2      	; 0x4638 <I2C_0_GetData+0x9e>
    4636:	90 e0       	ldi	r25, 0x00	; 0
    4638:	99 23       	and	r25, r25
    463a:	31 f1       	breq	.+76     	; 0x4688 <I2C_0_GetData+0xee>
		{
			if(i2c_0_WaitR() == I2C_READY)
    463c:	0e 94 24 22 	call	0x4448	; 0x4448 <_ZL11i2c_0_WaitRv>
    4640:	98 2f       	mov	r25, r24
    4642:	81 e0       	ldi	r24, 0x01	; 1
    4644:	93 30       	cpi	r25, 0x03	; 3
    4646:	09 f0       	breq	.+2      	; 0x464a <I2C_0_GetData+0xb0>
    4648:	80 e0       	ldi	r24, 0x00	; 0
    464a:	88 23       	and	r24, r24
    464c:	e1 f0       	breq	.+56     	; 0x4686 <I2C_0_GetData+0xec>
			{
				*pData = TWI0.MDATA;
    464e:	80 e0       	ldi	r24, 0x00	; 0
    4650:	99 e0       	ldi	r25, 0x09	; 9
    4652:	fc 01       	movw	r30, r24
    4654:	20 85       	ldd	r18, Z+8	; 0x08
    4656:	8c 81       	ldd	r24, Y+4	; 0x04
    4658:	9d 81       	ldd	r25, Y+5	; 0x05
    465a:	fc 01       	movw	r30, r24
    465c:	20 83       	st	Z, r18
				TWI0.MCTRLB = (len == 0)? TWI_ACKACT_bm | TWI_MCMD_STOP_gc : TWI_MCMD_RECVTRANS_gc;
    465e:	8e 81       	ldd	r24, Y+6	; 0x06
    4660:	88 23       	and	r24, r24
    4662:	11 f4       	brne	.+4      	; 0x4668 <I2C_0_GetData+0xce>
    4664:	27 e0       	ldi	r18, 0x07	; 7
    4666:	01 c0       	rjmp	.+2      	; 0x466a <I2C_0_GetData+0xd0>
    4668:	22 e0       	ldi	r18, 0x02	; 2
    466a:	80 e0       	ldi	r24, 0x00	; 0
    466c:	99 e0       	ldi	r25, 0x09	; 9
    466e:	fc 01       	movw	r30, r24
    4670:	24 83       	std	Z+4, r18	; 0x04
				retVal++;
    4672:	89 81       	ldd	r24, Y+1	; 0x01
    4674:	8f 5f       	subi	r24, 0xFF	; 255
    4676:	89 83       	std	Y+1, r24	; 0x01
				pData++;
    4678:	8c 81       	ldd	r24, Y+4	; 0x04
    467a:	9d 81       	ldd	r25, Y+5	; 0x05
    467c:	01 96       	adiw	r24, 0x01	; 1
    467e:	8c 83       	std	Y+4, r24	; 0x04
    4680:	9d 83       	std	Y+5, r25	; 0x05
				continue;
    4682:	00 00       	nop
	}
	
	retVal = 0;
	if((len != 0) && (pData !=null ))
	{
		while(len--)
    4684:	d1 cf       	rjmp	.-94     	; 0x4628 <I2C_0_GetData+0x8e>
				retVal++;
				pData++;
				continue;
			}
			else
			break;
    4686:	00 00       	nop
		}
	}
	
	return retVal;
    4688:	89 81       	ldd	r24, Y+1	; 0x01
}
    468a:	26 96       	adiw	r28, 0x06	; 6
    468c:	cd bf       	out	0x3d, r28	; 61
    468e:	de bf       	out	0x3e, r29	; 62
    4690:	df 91       	pop	r29
    4692:	cf 91       	pop	r28
    4694:	08 95       	ret

00004696 <I2C_0_EndSession>:

void I2C_0_EndSession(void)
{
    4696:	cf 93       	push	r28
    4698:	df 93       	push	r29
    469a:	cd b7       	in	r28, 0x3d	; 61
    469c:	de b7       	in	r29, 0x3e	; 62
	TWI0.MCTRLB = TWI_MCMD_STOP_gc;
    469e:	80 e0       	ldi	r24, 0x00	; 0
    46a0:	99 e0       	ldi	r25, 0x09	; 9
    46a2:	23 e0       	ldi	r18, 0x03	; 3
    46a4:	fc 01       	movw	r30, r24
    46a6:	24 83       	std	Z+4, r18	; 0x04
}
    46a8:	00 00       	nop
    46aa:	df 91       	pop	r29
    46ac:	cf 91       	pop	r28
    46ae:	08 95       	ret

000046b0 <PORTC_set_pin_level>:
	{
		g_text_buff.put(str[i++]);
	}
	
	timer_red_blink_inhibit = true; /* Prevent timer from controlling LED */
}
    46b0:	cf 93       	push	r28
    46b2:	df 93       	push	r29
    46b4:	00 d0       	rcall	.+0      	; 0x46b6 <PORTC_set_pin_level+0x6>
    46b6:	cd b7       	in	r28, 0x3d	; 61
    46b8:	de b7       	in	r29, 0x3e	; 62
    46ba:	89 83       	std	Y+1, r24	; 0x01
    46bc:	6a 83       	std	Y+2, r22	; 0x02
    46be:	8a 81       	ldd	r24, Y+2	; 0x02
    46c0:	88 23       	and	r24, r24
    46c2:	b1 f0       	breq	.+44     	; 0x46f0 <PORTC_set_pin_level+0x40>
    46c4:	88 e0       	ldi	r24, 0x08	; 8
    46c6:	90 e0       	ldi	r25, 0x00	; 0
    46c8:	fc 01       	movw	r30, r24
    46ca:	81 81       	ldd	r24, Z+1	; 0x01
    46cc:	48 2f       	mov	r20, r24
    46ce:	89 81       	ldd	r24, Y+1	; 0x01
    46d0:	28 2f       	mov	r18, r24
    46d2:	30 e0       	ldi	r19, 0x00	; 0
    46d4:	81 e0       	ldi	r24, 0x01	; 1
    46d6:	90 e0       	ldi	r25, 0x00	; 0
    46d8:	02 c0       	rjmp	.+4      	; 0x46de <PORTC_set_pin_level+0x2e>
    46da:	88 0f       	add	r24, r24
    46dc:	99 1f       	adc	r25, r25
    46de:	2a 95       	dec	r18
    46e0:	e2 f7       	brpl	.-8      	; 0x46da <PORTC_set_pin_level+0x2a>
    46e2:	24 2f       	mov	r18, r20
    46e4:	28 2b       	or	r18, r24
    46e6:	88 e0       	ldi	r24, 0x08	; 8
    46e8:	90 e0       	ldi	r25, 0x00	; 0
    46ea:	fc 01       	movw	r30, r24
    46ec:	21 83       	std	Z+1, r18	; 0x01
    46ee:	16 c0       	rjmp	.+44     	; 0x471c <PORTC_set_pin_level+0x6c>
    46f0:	88 e0       	ldi	r24, 0x08	; 8
    46f2:	90 e0       	ldi	r25, 0x00	; 0
    46f4:	fc 01       	movw	r30, r24
    46f6:	81 81       	ldd	r24, Z+1	; 0x01
    46f8:	48 2f       	mov	r20, r24
    46fa:	89 81       	ldd	r24, Y+1	; 0x01
    46fc:	28 2f       	mov	r18, r24
    46fe:	30 e0       	ldi	r19, 0x00	; 0
    4700:	81 e0       	ldi	r24, 0x01	; 1
    4702:	90 e0       	ldi	r25, 0x00	; 0
    4704:	02 c0       	rjmp	.+4      	; 0x470a <PORTC_set_pin_level+0x5a>
    4706:	88 0f       	add	r24, r24
    4708:	99 1f       	adc	r25, r25
    470a:	2a 95       	dec	r18
    470c:	e2 f7       	brpl	.-8      	; 0x4706 <PORTC_set_pin_level+0x56>
    470e:	80 95       	com	r24
    4710:	24 2f       	mov	r18, r20
    4712:	28 23       	and	r18, r24
    4714:	88 e0       	ldi	r24, 0x08	; 8
    4716:	90 e0       	ldi	r25, 0x00	; 0
    4718:	fc 01       	movw	r30, r24
    471a:	21 83       	std	Z+1, r18	; 0x01
    471c:	00 00       	nop
    471e:	0f 90       	pop	r0
    4720:	0f 90       	pop	r0
    4722:	df 91       	pop	r29
    4724:	cf 91       	pop	r28
    4726:	08 95       	ret

00004728 <_ZL17LED_set_RED_levelb>:
    4728:	cf 93       	push	r28
    472a:	df 93       	push	r29
    472c:	1f 92       	push	r1
    472e:	cd b7       	in	r28, 0x3d	; 61
    4730:	de b7       	in	r29, 0x3e	; 62
    4732:	89 83       	std	Y+1, r24	; 0x01
    4734:	69 81       	ldd	r22, Y+1	; 0x01
    4736:	85 e0       	ldi	r24, 0x05	; 5
    4738:	0e 94 58 23 	call	0x46b0	; 0x46b0 <PORTC_set_pin_level>
    473c:	00 00       	nop
    473e:	0f 90       	pop	r0
    4740:	df 91       	pop	r29
    4742:	cf 91       	pop	r28
    4744:	08 95       	ret

00004746 <_ZL19LED_set_GREEN_levelb>:
    4746:	cf 93       	push	r28
    4748:	df 93       	push	r29
    474a:	1f 92       	push	r1
    474c:	cd b7       	in	r28, 0x3d	; 61
    474e:	de b7       	in	r29, 0x3e	; 62
    4750:	89 83       	std	Y+1, r24	; 0x01
    4752:	69 81       	ldd	r22, Y+1	; 0x01
    4754:	84 e0       	ldi	r24, 0x04	; 4
    4756:	0e 94 58 23 	call	0x46b0	; 0x46b0 <PORTC_set_pin_level>
    475a:	00 00       	nop
    475c:	0f 90       	pop	r0
    475e:	df 91       	pop	r29
    4760:	cf 91       	pop	r28
    4762:	08 95       	ret

00004764 <_ZN4ledsC1Ev>:
    4764:	cf 93       	push	r28
    4766:	df 93       	push	r29
    4768:	00 d0       	rcall	.+0      	; 0x476a <_ZN4ledsC1Ev+0x6>
    476a:	cd b7       	in	r28, 0x3d	; 61
    476c:	de b7       	in	r29, 0x3e	; 62
    476e:	89 83       	std	Y+1, r24	; 0x01
    4770:	9a 83       	std	Y+2, r25	; 0x02
    4772:	00 00       	nop
    4774:	0f 90       	pop	r0
    4776:	0f 90       	pop	r0
    4778:	df 91       	pop	r29
    477a:	cf 91       	pop	r28
    477c:	08 95       	ret

0000477e <_ZN4ledsD1Ev>:
    477e:	cf 93       	push	r28
    4780:	df 93       	push	r29
    4782:	00 d0       	rcall	.+0      	; 0x4784 <_ZN4ledsD1Ev+0x6>
    4784:	cd b7       	in	r28, 0x3d	; 61
    4786:	de b7       	in	r29, 0x3e	; 62
    4788:	89 83       	std	Y+1, r24	; 0x01
    478a:	9a 83       	std	Y+2, r25	; 0x02
    478c:	00 00       	nop
    478e:	0f 90       	pop	r0
    4790:	0f 90       	pop	r0
    4792:	df 91       	pop	r29
    4794:	cf 91       	pop	r28
    4796:	08 95       	ret

00004798 <__vector_41>:
    4798:	1f 92       	push	r1
    479a:	0f 92       	push	r0
    479c:	0f b6       	in	r0, 0x3f	; 63
    479e:	0f 92       	push	r0
    47a0:	11 24       	eor	r1, r1
    47a2:	0b b6       	in	r0, 0x3b	; 59
    47a4:	0f 92       	push	r0
    47a6:	2f 93       	push	r18
    47a8:	3f 93       	push	r19
    47aa:	4f 93       	push	r20
    47ac:	5f 93       	push	r21
    47ae:	6f 93       	push	r22
    47b0:	7f 93       	push	r23
    47b2:	8f 93       	push	r24
    47b4:	9f 93       	push	r25
    47b6:	af 93       	push	r26
    47b8:	bf 93       	push	r27
    47ba:	ef 93       	push	r30
    47bc:	ff 93       	push	r31
    47be:	cf 93       	push	r28
    47c0:	df 93       	push	r29
    47c2:	1f 92       	push	r1
    47c4:	cd b7       	in	r28, 0x3d	; 61
    47c6:	de b7       	in	r29, 0x3e	; 62
    47c8:	80 e3       	ldi	r24, 0x30	; 48
    47ca:	9b e0       	ldi	r25, 0x0B	; 11
    47cc:	fc 01       	movw	r30, r24
    47ce:	86 81       	ldd	r24, Z+6	; 0x06
    47d0:	89 83       	std	Y+1, r24	; 0x01
    47d2:	89 81       	ldd	r24, Y+1	; 0x01
    47d4:	88 2f       	mov	r24, r24
    47d6:	90 e0       	ldi	r25, 0x00	; 0
    47d8:	81 70       	andi	r24, 0x01	; 1
    47da:	99 27       	eor	r25, r25
    47dc:	89 2b       	or	r24, r25
    47de:	09 f4       	brne	.+2      	; 0x47e2 <__vector_41+0x4a>
    47e0:	40 c1       	rjmp	.+640    	; 0x4a62 <__vector_41+0x2ca>
    47e2:	80 91 26 40 	lds	r24, 0x4026	; 0x804026 <_ZL17led_timeout_count>
    47e6:	90 91 27 40 	lds	r25, 0x4027	; 0x804027 <_ZL17led_timeout_count+0x1>
    47ea:	a0 91 28 40 	lds	r26, 0x4028	; 0x804028 <_ZL17led_timeout_count+0x2>
    47ee:	b0 91 29 40 	lds	r27, 0x4029	; 0x804029 <_ZL17led_timeout_count+0x3>
    47f2:	21 e0       	ldi	r18, 0x01	; 1
    47f4:	89 2b       	or	r24, r25
    47f6:	8a 2b       	or	r24, r26
    47f8:	8b 2b       	or	r24, r27
    47fa:	09 f4       	brne	.+2      	; 0x47fe <__vector_41+0x66>
    47fc:	20 e0       	ldi	r18, 0x00	; 0
    47fe:	22 23       	and	r18, r18
    4800:	49 f1       	breq	.+82     	; 0x4854 <__vector_41+0xbc>
    4802:	80 91 26 40 	lds	r24, 0x4026	; 0x804026 <_ZL17led_timeout_count>
    4806:	90 91 27 40 	lds	r25, 0x4027	; 0x804027 <_ZL17led_timeout_count+0x1>
    480a:	a0 91 28 40 	lds	r26, 0x4028	; 0x804028 <_ZL17led_timeout_count+0x2>
    480e:	b0 91 29 40 	lds	r27, 0x4029	; 0x804029 <_ZL17led_timeout_count+0x3>
    4812:	01 97       	sbiw	r24, 0x01	; 1
    4814:	a1 09       	sbc	r26, r1
    4816:	b1 09       	sbc	r27, r1
    4818:	80 93 26 40 	sts	0x4026, r24	; 0x804026 <_ZL17led_timeout_count>
    481c:	90 93 27 40 	sts	0x4027, r25	; 0x804027 <_ZL17led_timeout_count+0x1>
    4820:	a0 93 28 40 	sts	0x4028, r26	; 0x804028 <_ZL17led_timeout_count+0x2>
    4824:	b0 93 29 40 	sts	0x4029, r27	; 0x804029 <_ZL17led_timeout_count+0x3>
    4828:	80 91 26 40 	lds	r24, 0x4026	; 0x804026 <_ZL17led_timeout_count>
    482c:	90 91 27 40 	lds	r25, 0x4027	; 0x804027 <_ZL17led_timeout_count+0x1>
    4830:	a0 91 28 40 	lds	r26, 0x4028	; 0x804028 <_ZL17led_timeout_count+0x2>
    4834:	b0 91 29 40 	lds	r27, 0x4029	; 0x804029 <_ZL17led_timeout_count+0x3>
    4838:	21 e0       	ldi	r18, 0x01	; 1
    483a:	89 2b       	or	r24, r25
    483c:	8a 2b       	or	r24, r26
    483e:	8b 2b       	or	r24, r27
    4840:	09 f0       	breq	.+2      	; 0x4844 <__vector_41+0xac>
    4842:	20 e0       	ldi	r18, 0x00	; 0
    4844:	22 23       	and	r18, r18
    4846:	31 f0       	breq	.+12     	; 0x4854 <__vector_41+0xbc>
    4848:	80 e0       	ldi	r24, 0x00	; 0
    484a:	0e 94 94 23 	call	0x4728	; 0x4728 <_ZL17LED_set_RED_levelb>
    484e:	80 e0       	ldi	r24, 0x00	; 0
    4850:	0e 94 a3 23 	call	0x4746	; 0x4746 <_ZL19LED_set_GREEN_levelb>
    4854:	80 91 26 40 	lds	r24, 0x4026	; 0x804026 <_ZL17led_timeout_count>
    4858:	90 91 27 40 	lds	r25, 0x4027	; 0x804027 <_ZL17led_timeout_count+0x1>
    485c:	a0 91 28 40 	lds	r26, 0x4028	; 0x804028 <_ZL17led_timeout_count+0x2>
    4860:	b0 91 29 40 	lds	r27, 0x4029	; 0x804029 <_ZL17led_timeout_count+0x3>
    4864:	21 e0       	ldi	r18, 0x01	; 1
    4866:	89 2b       	or	r24, r25
    4868:	8a 2b       	or	r24, r26
    486a:	8b 2b       	or	r24, r27
    486c:	09 f4       	brne	.+2      	; 0x4870 <__vector_41+0xd8>
    486e:	20 e0       	ldi	r18, 0x00	; 0
    4870:	22 23       	and	r18, r18
    4872:	09 f4       	brne	.+2      	; 0x4876 <__vector_41+0xde>
    4874:	f6 c0       	rjmp	.+492    	; 0x4a62 <__vector_41+0x2ca>
    4876:	80 91 1c 42 	lds	r24, 0x421C	; 0x80421c <_ZL15red_blink_count>
    487a:	90 91 1d 42 	lds	r25, 0x421D	; 0x80421d <_ZL15red_blink_count+0x1>
    487e:	89 2b       	or	r24, r25
    4880:	41 f0       	breq	.+16     	; 0x4892 <__vector_41+0xfa>
    4882:	90 91 0c 42 	lds	r25, 0x420C	; 0x80420c <_ZL23timer_red_blink_inhibit>
    4886:	81 e0       	ldi	r24, 0x01	; 1
    4888:	89 27       	eor	r24, r25
    488a:	88 23       	and	r24, r24
    488c:	11 f0       	breq	.+4      	; 0x4892 <__vector_41+0xfa>
    488e:	81 e0       	ldi	r24, 0x01	; 1
    4890:	01 c0       	rjmp	.+2      	; 0x4894 <__vector_41+0xfc>
    4892:	80 e0       	ldi	r24, 0x00	; 0
    4894:	88 23       	and	r24, r24
    4896:	09 f4       	brne	.+2      	; 0x489a <__vector_41+0x102>
    4898:	69 c0       	rjmp	.+210    	; 0x496c <__vector_41+0x1d4>
    489a:	80 91 1c 42 	lds	r24, 0x421C	; 0x80421c <_ZL15red_blink_count>
    489e:	90 91 1d 42 	lds	r25, 0x421D	; 0x80421d <_ZL15red_blink_count+0x1>
    48a2:	21 e0       	ldi	r18, 0x01	; 1
    48a4:	02 97       	sbiw	r24, 0x02	; 2
    48a6:	0c f4       	brge	.+2      	; 0x48aa <__vector_41+0x112>
    48a8:	20 e0       	ldi	r18, 0x00	; 0
    48aa:	22 23       	and	r18, r18
    48ac:	69 f0       	breq	.+26     	; 0x48c8 <__vector_41+0x130>
    48ae:	81 e0       	ldi	r24, 0x01	; 1
    48b0:	0e 94 94 23 	call	0x4728	; 0x4728 <_ZL17LED_set_RED_levelb>
    48b4:	80 91 1c 42 	lds	r24, 0x421C	; 0x80421c <_ZL15red_blink_count>
    48b8:	90 91 1d 42 	lds	r25, 0x421D	; 0x80421d <_ZL15red_blink_count+0x1>
    48bc:	01 97       	sbiw	r24, 0x01	; 1
    48be:	80 93 1c 42 	sts	0x421C, r24	; 0x80421c <_ZL15red_blink_count>
    48c2:	90 93 1d 42 	sts	0x421D, r25	; 0x80421d <_ZL15red_blink_count+0x1>
    48c6:	17 c0       	rjmp	.+46     	; 0x48f6 <__vector_41+0x15e>
    48c8:	80 91 1c 42 	lds	r24, 0x421C	; 0x80421c <_ZL15red_blink_count>
    48cc:	90 91 1d 42 	lds	r25, 0x421D	; 0x80421d <_ZL15red_blink_count+0x1>
    48d0:	21 e0       	ldi	r18, 0x01	; 1
    48d2:	8f 3f       	cpi	r24, 0xFF	; 255
    48d4:	9f 4f       	sbci	r25, 0xFF	; 255
    48d6:	0c f0       	brlt	.+2      	; 0x48da <__vector_41+0x142>
    48d8:	20 e0       	ldi	r18, 0x00	; 0
    48da:	22 23       	and	r18, r18
    48dc:	61 f0       	breq	.+24     	; 0x48f6 <__vector_41+0x15e>
    48de:	80 e0       	ldi	r24, 0x00	; 0
    48e0:	0e 94 94 23 	call	0x4728	; 0x4728 <_ZL17LED_set_RED_levelb>
    48e4:	80 91 1c 42 	lds	r24, 0x421C	; 0x80421c <_ZL15red_blink_count>
    48e8:	90 91 1d 42 	lds	r25, 0x421D	; 0x80421d <_ZL15red_blink_count+0x1>
    48ec:	01 96       	adiw	r24, 0x01	; 1
    48ee:	80 93 1c 42 	sts	0x421C, r24	; 0x80421c <_ZL15red_blink_count>
    48f2:	90 93 1d 42 	sts	0x421D, r25	; 0x80421d <_ZL15red_blink_count+0x1>
    48f6:	80 91 1c 42 	lds	r24, 0x421C	; 0x80421c <_ZL15red_blink_count>
    48fa:	90 91 1d 42 	lds	r25, 0x421D	; 0x80421d <_ZL15red_blink_count+0x1>
    48fe:	21 e0       	ldi	r18, 0x01	; 1
    4900:	01 97       	sbiw	r24, 0x01	; 1
    4902:	09 f0       	breq	.+2      	; 0x4906 <__vector_41+0x16e>
    4904:	20 e0       	ldi	r18, 0x00	; 0
    4906:	22 23       	and	r18, r18
    4908:	f9 f0       	breq	.+62     	; 0x4948 <__vector_41+0x1b0>
    490a:	80 91 16 42 	lds	r24, 0x4216	; 0x804216 <_ZL20red_blink_off_period>
    490e:	90 91 17 42 	lds	r25, 0x4217	; 0x804217 <_ZL20red_blink_off_period+0x1>
    4912:	21 e0       	ldi	r18, 0x01	; 1
    4914:	89 2b       	or	r24, r25
    4916:	09 f4       	brne	.+2      	; 0x491a <__vector_41+0x182>
    4918:	20 e0       	ldi	r18, 0x00	; 0
    491a:	22 23       	and	r18, r18
    491c:	61 f0       	breq	.+24     	; 0x4936 <__vector_41+0x19e>
    491e:	80 91 16 42 	lds	r24, 0x4216	; 0x804216 <_ZL20red_blink_off_period>
    4922:	90 91 17 42 	lds	r25, 0x4217	; 0x804217 <_ZL20red_blink_off_period+0x1>
    4926:	91 95       	neg	r25
    4928:	81 95       	neg	r24
    492a:	91 09       	sbc	r25, r1
    492c:	80 93 1c 42 	sts	0x421C, r24	; 0x80421c <_ZL15red_blink_count>
    4930:	90 93 1d 42 	sts	0x421D, r25	; 0x80421d <_ZL15red_blink_count+0x1>
    4934:	1b c0       	rjmp	.+54     	; 0x496c <__vector_41+0x1d4>
    4936:	80 91 14 42 	lds	r24, 0x4214	; 0x804214 <_ZL19red_blink_on_period>
    493a:	90 91 15 42 	lds	r25, 0x4215	; 0x804215 <_ZL19red_blink_on_period+0x1>
    493e:	80 93 1c 42 	sts	0x421C, r24	; 0x80421c <_ZL15red_blink_count>
    4942:	90 93 1d 42 	sts	0x421D, r25	; 0x80421d <_ZL15red_blink_count+0x1>
    4946:	12 c0       	rjmp	.+36     	; 0x496c <__vector_41+0x1d4>
    4948:	80 91 1c 42 	lds	r24, 0x421C	; 0x80421c <_ZL15red_blink_count>
    494c:	90 91 1d 42 	lds	r25, 0x421D	; 0x80421d <_ZL15red_blink_count+0x1>
    4950:	21 e0       	ldi	r18, 0x01	; 1
    4952:	01 96       	adiw	r24, 0x01	; 1
    4954:	09 f0       	breq	.+2      	; 0x4958 <__vector_41+0x1c0>
    4956:	20 e0       	ldi	r18, 0x00	; 0
    4958:	22 23       	and	r18, r18
    495a:	41 f0       	breq	.+16     	; 0x496c <__vector_41+0x1d4>
    495c:	80 91 14 42 	lds	r24, 0x4214	; 0x804214 <_ZL19red_blink_on_period>
    4960:	90 91 15 42 	lds	r25, 0x4215	; 0x804215 <_ZL19red_blink_on_period+0x1>
    4964:	80 93 1c 42 	sts	0x421C, r24	; 0x80421c <_ZL15red_blink_count>
    4968:	90 93 1d 42 	sts	0x421D, r25	; 0x80421d <_ZL15red_blink_count+0x1>
    496c:	80 91 1e 42 	lds	r24, 0x421E	; 0x80421e <_ZL17green_blink_count>
    4970:	90 91 1f 42 	lds	r25, 0x421F	; 0x80421f <_ZL17green_blink_count+0x1>
    4974:	89 2b       	or	r24, r25
    4976:	41 f0       	breq	.+16     	; 0x4988 <__vector_41+0x1f0>
    4978:	90 91 0d 42 	lds	r25, 0x420D	; 0x80420d <_ZL25timer_green_blink_inhibit>
    497c:	81 e0       	ldi	r24, 0x01	; 1
    497e:	89 27       	eor	r24, r25
    4980:	88 23       	and	r24, r24
    4982:	11 f0       	breq	.+4      	; 0x4988 <__vector_41+0x1f0>
    4984:	81 e0       	ldi	r24, 0x01	; 1
    4986:	01 c0       	rjmp	.+2      	; 0x498a <__vector_41+0x1f2>
    4988:	80 e0       	ldi	r24, 0x00	; 0
    498a:	88 23       	and	r24, r24
    498c:	09 f4       	brne	.+2      	; 0x4990 <__vector_41+0x1f8>
    498e:	69 c0       	rjmp	.+210    	; 0x4a62 <__vector_41+0x2ca>
    4990:	80 91 1e 42 	lds	r24, 0x421E	; 0x80421e <_ZL17green_blink_count>
    4994:	90 91 1f 42 	lds	r25, 0x421F	; 0x80421f <_ZL17green_blink_count+0x1>
    4998:	21 e0       	ldi	r18, 0x01	; 1
    499a:	02 97       	sbiw	r24, 0x02	; 2
    499c:	0c f4       	brge	.+2      	; 0x49a0 <__vector_41+0x208>
    499e:	20 e0       	ldi	r18, 0x00	; 0
    49a0:	22 23       	and	r18, r18
    49a2:	69 f0       	breq	.+26     	; 0x49be <__vector_41+0x226>
    49a4:	81 e0       	ldi	r24, 0x01	; 1
    49a6:	0e 94 a3 23 	call	0x4746	; 0x4746 <_ZL19LED_set_GREEN_levelb>
    49aa:	80 91 1e 42 	lds	r24, 0x421E	; 0x80421e <_ZL17green_blink_count>
    49ae:	90 91 1f 42 	lds	r25, 0x421F	; 0x80421f <_ZL17green_blink_count+0x1>
    49b2:	01 97       	sbiw	r24, 0x01	; 1
    49b4:	80 93 1e 42 	sts	0x421E, r24	; 0x80421e <_ZL17green_blink_count>
    49b8:	90 93 1f 42 	sts	0x421F, r25	; 0x80421f <_ZL17green_blink_count+0x1>
    49bc:	17 c0       	rjmp	.+46     	; 0x49ec <__vector_41+0x254>
    49be:	80 91 1e 42 	lds	r24, 0x421E	; 0x80421e <_ZL17green_blink_count>
    49c2:	90 91 1f 42 	lds	r25, 0x421F	; 0x80421f <_ZL17green_blink_count+0x1>
    49c6:	21 e0       	ldi	r18, 0x01	; 1
    49c8:	8f 3f       	cpi	r24, 0xFF	; 255
    49ca:	9f 4f       	sbci	r25, 0xFF	; 255
    49cc:	0c f0       	brlt	.+2      	; 0x49d0 <__vector_41+0x238>
    49ce:	20 e0       	ldi	r18, 0x00	; 0
    49d0:	22 23       	and	r18, r18
    49d2:	61 f0       	breq	.+24     	; 0x49ec <__vector_41+0x254>
    49d4:	80 e0       	ldi	r24, 0x00	; 0
    49d6:	0e 94 a3 23 	call	0x4746	; 0x4746 <_ZL19LED_set_GREEN_levelb>
    49da:	80 91 1e 42 	lds	r24, 0x421E	; 0x80421e <_ZL17green_blink_count>
    49de:	90 91 1f 42 	lds	r25, 0x421F	; 0x80421f <_ZL17green_blink_count+0x1>
    49e2:	01 96       	adiw	r24, 0x01	; 1
    49e4:	80 93 1e 42 	sts	0x421E, r24	; 0x80421e <_ZL17green_blink_count>
    49e8:	90 93 1f 42 	sts	0x421F, r25	; 0x80421f <_ZL17green_blink_count+0x1>
    49ec:	80 91 1e 42 	lds	r24, 0x421E	; 0x80421e <_ZL17green_blink_count>
    49f0:	90 91 1f 42 	lds	r25, 0x421F	; 0x80421f <_ZL17green_blink_count+0x1>
    49f4:	21 e0       	ldi	r18, 0x01	; 1
    49f6:	01 97       	sbiw	r24, 0x01	; 1
    49f8:	09 f0       	breq	.+2      	; 0x49fc <__vector_41+0x264>
    49fa:	20 e0       	ldi	r18, 0x00	; 0
    49fc:	22 23       	and	r18, r18
    49fe:	f9 f0       	breq	.+62     	; 0x4a3e <__vector_41+0x2a6>
    4a00:	80 91 1a 42 	lds	r24, 0x421A	; 0x80421a <_ZL22green_blink_off_period>
    4a04:	90 91 1b 42 	lds	r25, 0x421B	; 0x80421b <_ZL22green_blink_off_period+0x1>
    4a08:	21 e0       	ldi	r18, 0x01	; 1
    4a0a:	89 2b       	or	r24, r25
    4a0c:	09 f4       	brne	.+2      	; 0x4a10 <__vector_41+0x278>
    4a0e:	20 e0       	ldi	r18, 0x00	; 0
    4a10:	22 23       	and	r18, r18
    4a12:	61 f0       	breq	.+24     	; 0x4a2c <__vector_41+0x294>
    4a14:	80 91 1a 42 	lds	r24, 0x421A	; 0x80421a <_ZL22green_blink_off_period>
    4a18:	90 91 1b 42 	lds	r25, 0x421B	; 0x80421b <_ZL22green_blink_off_period+0x1>
    4a1c:	91 95       	neg	r25
    4a1e:	81 95       	neg	r24
    4a20:	91 09       	sbc	r25, r1
    4a22:	80 93 1e 42 	sts	0x421E, r24	; 0x80421e <_ZL17green_blink_count>
    4a26:	90 93 1f 42 	sts	0x421F, r25	; 0x80421f <_ZL17green_blink_count+0x1>
    4a2a:	1b c0       	rjmp	.+54     	; 0x4a62 <__vector_41+0x2ca>
    4a2c:	80 91 18 42 	lds	r24, 0x4218	; 0x804218 <_ZL21green_blink_on_period>
    4a30:	90 91 19 42 	lds	r25, 0x4219	; 0x804219 <_ZL21green_blink_on_period+0x1>
    4a34:	80 93 1e 42 	sts	0x421E, r24	; 0x80421e <_ZL17green_blink_count>
    4a38:	90 93 1f 42 	sts	0x421F, r25	; 0x80421f <_ZL17green_blink_count+0x1>
    4a3c:	12 c0       	rjmp	.+36     	; 0x4a62 <__vector_41+0x2ca>
    4a3e:	80 91 1e 42 	lds	r24, 0x421E	; 0x80421e <_ZL17green_blink_count>
    4a42:	90 91 1f 42 	lds	r25, 0x421F	; 0x80421f <_ZL17green_blink_count+0x1>
    4a46:	21 e0       	ldi	r18, 0x01	; 1
    4a48:	01 96       	adiw	r24, 0x01	; 1
    4a4a:	09 f0       	breq	.+2      	; 0x4a4e <__vector_41+0x2b6>
    4a4c:	20 e0       	ldi	r18, 0x00	; 0
    4a4e:	22 23       	and	r18, r18
    4a50:	41 f0       	breq	.+16     	; 0x4a62 <__vector_41+0x2ca>
    4a52:	80 91 18 42 	lds	r24, 0x4218	; 0x804218 <_ZL21green_blink_on_period>
    4a56:	90 91 19 42 	lds	r25, 0x4219	; 0x804219 <_ZL21green_blink_on_period+0x1>
    4a5a:	80 93 1e 42 	sts	0x421E, r24	; 0x80421e <_ZL17green_blink_count>
    4a5e:	90 93 1f 42 	sts	0x421F, r25	; 0x80421f <_ZL17green_blink_count+0x1>
    4a62:	80 e3       	ldi	r24, 0x30	; 48
    4a64:	9b e0       	ldi	r25, 0x0B	; 11
    4a66:	23 e0       	ldi	r18, 0x03	; 3
    4a68:	fc 01       	movw	r30, r24
    4a6a:	26 83       	std	Z+6, r18	; 0x06
    4a6c:	00 00       	nop
    4a6e:	0f 90       	pop	r0
    4a70:	df 91       	pop	r29
    4a72:	cf 91       	pop	r28
    4a74:	ff 91       	pop	r31
    4a76:	ef 91       	pop	r30
    4a78:	bf 91       	pop	r27
    4a7a:	af 91       	pop	r26
    4a7c:	9f 91       	pop	r25
    4a7e:	8f 91       	pop	r24
    4a80:	7f 91       	pop	r23
    4a82:	6f 91       	pop	r22
    4a84:	5f 91       	pop	r21
    4a86:	4f 91       	pop	r20
    4a88:	3f 91       	pop	r19
    4a8a:	2f 91       	pop	r18
    4a8c:	0f 90       	pop	r0
    4a8e:	0b be       	out	0x3b, r0	; 59
    4a90:	0f 90       	pop	r0
    4a92:	0f be       	out	0x3f, r0	; 63
    4a94:	0f 90       	pop	r0
    4a96:	1f 90       	pop	r1
    4a98:	18 95       	reti

00004a9a <_ZN4leds6activeEv>:
    4a9a:	cf 93       	push	r28
    4a9c:	df 93       	push	r29
    4a9e:	00 d0       	rcall	.+0      	; 0x4aa0 <_ZN4leds6activeEv+0x6>
    4aa0:	cd b7       	in	r28, 0x3d	; 61
    4aa2:	de b7       	in	r29, 0x3e	; 62
    4aa4:	89 83       	std	Y+1, r24	; 0x01
    4aa6:	9a 83       	std	Y+2, r25	; 0x02
    4aa8:	80 91 26 40 	lds	r24, 0x4026	; 0x804026 <_ZL17led_timeout_count>
    4aac:	90 91 27 40 	lds	r25, 0x4027	; 0x804027 <_ZL17led_timeout_count+0x1>
    4ab0:	a0 91 28 40 	lds	r26, 0x4028	; 0x804028 <_ZL17led_timeout_count+0x2>
    4ab4:	b0 91 29 40 	lds	r27, 0x4029	; 0x804029 <_ZL17led_timeout_count+0x3>
    4ab8:	89 2b       	or	r24, r25
    4aba:	8a 2b       	or	r24, r26
    4abc:	8b 2b       	or	r24, r27
    4abe:	61 f0       	breq	.+24     	; 0x4ad8 <_ZN4leds6activeEv+0x3e>
    4ac0:	80 e3       	ldi	r24, 0x30	; 48
    4ac2:	9b e0       	ldi	r25, 0x0B	; 11
    4ac4:	fc 01       	movw	r30, r24
    4ac6:	85 81       	ldd	r24, Z+5	; 0x05
    4ac8:	88 2f       	mov	r24, r24
    4aca:	90 e0       	ldi	r25, 0x00	; 0
    4acc:	81 70       	andi	r24, 0x01	; 1
    4ace:	99 27       	eor	r25, r25
    4ad0:	89 2b       	or	r24, r25
    4ad2:	11 f0       	breq	.+4      	; 0x4ad8 <_ZN4leds6activeEv+0x3e>
    4ad4:	81 e0       	ldi	r24, 0x01	; 1
    4ad6:	01 c0       	rjmp	.+2      	; 0x4ada <_ZN4leds6activeEv+0x40>
    4ad8:	80 e0       	ldi	r24, 0x00	; 0
    4ada:	0f 90       	pop	r0
    4adc:	0f 90       	pop	r0
    4ade:	df 91       	pop	r29
    4ae0:	cf 91       	pop	r28
    4ae2:	08 95       	ret

00004ae4 <_ZN4leds10deactivateEv>:
    4ae4:	cf 93       	push	r28
    4ae6:	df 93       	push	r29
    4ae8:	00 d0       	rcall	.+0      	; 0x4aea <_ZN4leds10deactivateEv+0x6>
    4aea:	cd b7       	in	r28, 0x3d	; 61
    4aec:	de b7       	in	r29, 0x3e	; 62
    4aee:	89 83       	std	Y+1, r24	; 0x01
    4af0:	9a 83       	std	Y+2, r25	; 0x02
    4af2:	80 e3       	ldi	r24, 0x30	; 48
    4af4:	9b e0       	ldi	r25, 0x0B	; 11
    4af6:	fc 01       	movw	r30, r24
    4af8:	25 81       	ldd	r18, Z+5	; 0x05
    4afa:	80 e3       	ldi	r24, 0x30	; 48
    4afc:	9b e0       	ldi	r25, 0x0B	; 11
    4afe:	2e 7f       	andi	r18, 0xFE	; 254
    4b00:	fc 01       	movw	r30, r24
    4b02:	25 83       	std	Z+5, r18	; 0x05
    4b04:	80 e0       	ldi	r24, 0x00	; 0
    4b06:	0e 94 94 23 	call	0x4728	; 0x4728 <_ZL17LED_set_RED_levelb>
    4b0a:	80 e0       	ldi	r24, 0x00	; 0
    4b0c:	0e 94 a3 23 	call	0x4746	; 0x4746 <_ZL19LED_set_GREEN_levelb>
    4b10:	8c e8       	ldi	r24, 0x8C	; 140
    4b12:	91 e4       	ldi	r25, 0x41	; 65
    4b14:	0e 94 d4 17 	call	0x2fa8	; 0x2fa8 <_ZN18CircularStringBuff5resetEv>
    4b18:	81 e0       	ldi	r24, 0x01	; 1
    4b1a:	80 93 0d 42 	sts	0x420D, r24	; 0x80420d <_ZL25timer_green_blink_inhibit>
    4b1e:	81 e0       	ldi	r24, 0x01	; 1
    4b20:	80 93 0c 42 	sts	0x420C, r24	; 0x80420c <_ZL23timer_red_blink_inhibit>
    4b24:	10 92 26 40 	sts	0x4026, r1	; 0x804026 <_ZL17led_timeout_count>
    4b28:	10 92 27 40 	sts	0x4027, r1	; 0x804027 <_ZL17led_timeout_count+0x1>
    4b2c:	10 92 28 40 	sts	0x4028, r1	; 0x804028 <_ZL17led_timeout_count+0x2>
    4b30:	10 92 29 40 	sts	0x4029, r1	; 0x804029 <_ZL17led_timeout_count+0x3>
    4b34:	00 00       	nop
    4b36:	0f 90       	pop	r0
    4b38:	0f 90       	pop	r0
    4b3a:	df 91       	pop	r29
    4b3c:	cf 91       	pop	r28
    4b3e:	08 95       	ret

00004b40 <_ZN4leds5resetEv>:
    4b40:	cf 93       	push	r28
    4b42:	df 93       	push	r29
    4b44:	00 d0       	rcall	.+0      	; 0x4b46 <_ZN4leds5resetEv+0x6>
    4b46:	cd b7       	in	r28, 0x3d	; 61
    4b48:	de b7       	in	r29, 0x3e	; 62
    4b4a:	89 83       	std	Y+1, r24	; 0x01
    4b4c:	9a 83       	std	Y+2, r25	; 0x02
    4b4e:	89 81       	ldd	r24, Y+1	; 0x01
    4b50:	9a 81       	ldd	r25, Y+2	; 0x02
    4b52:	60 e0       	ldi	r22, 0x00	; 0
    4b54:	70 e0       	ldi	r23, 0x00	; 0
    4b56:	0e 94 0d 26 	call	0x4c1a	; 0x4c1a <_ZN4leds5blinkE7Blink_t>
    4b5a:	8c e8       	ldi	r24, 0x8C	; 140
    4b5c:	91 e4       	ldi	r25, 0x41	; 65
    4b5e:	0e 94 d4 17 	call	0x2fa8	; 0x2fa8 <_ZN18CircularStringBuff5resetEv>
    4b62:	10 92 0d 42 	sts	0x420D, r1	; 0x80420d <_ZL25timer_green_blink_inhibit>
    4b66:	10 92 0c 42 	sts	0x420C, r1	; 0x80420c <_ZL23timer_red_blink_inhibit>
    4b6a:	80 e6       	ldi	r24, 0x60	; 96
    4b6c:	9a ee       	ldi	r25, 0xEA	; 234
    4b6e:	a0 e0       	ldi	r26, 0x00	; 0
    4b70:	b0 e0       	ldi	r27, 0x00	; 0
    4b72:	80 93 26 40 	sts	0x4026, r24	; 0x804026 <_ZL17led_timeout_count>
    4b76:	90 93 27 40 	sts	0x4027, r25	; 0x804027 <_ZL17led_timeout_count+0x1>
    4b7a:	a0 93 28 40 	sts	0x4028, r26	; 0x804028 <_ZL17led_timeout_count+0x2>
    4b7e:	b0 93 29 40 	sts	0x4029, r27	; 0x804029 <_ZL17led_timeout_count+0x3>
    4b82:	00 00       	nop
    4b84:	0f 90       	pop	r0
    4b86:	0f 90       	pop	r0
    4b88:	df 91       	pop	r29
    4b8a:	cf 91       	pop	r28
    4b8c:	08 95       	ret

00004b8e <_ZN4leds4initEv>:
    4b8e:	cf 93       	push	r28
    4b90:	df 93       	push	r29
    4b92:	00 d0       	rcall	.+0      	; 0x4b94 <_ZN4leds4initEv+0x6>
    4b94:	cd b7       	in	r28, 0x3d	; 61
    4b96:	de b7       	in	r29, 0x3e	; 62
    4b98:	89 83       	std	Y+1, r24	; 0x01
    4b9a:	9a 83       	std	Y+2, r25	; 0x02
    4b9c:	89 81       	ldd	r24, Y+1	; 0x01
    4b9e:	9a 81       	ldd	r25, Y+2	; 0x02
    4ba0:	60 e0       	ldi	r22, 0x00	; 0
    4ba2:	70 e0       	ldi	r23, 0x00	; 0
    4ba4:	0e 94 da 25 	call	0x4bb4	; 0x4bb4 <_ZN4leds4initE7Blink_t>
    4ba8:	00 00       	nop
    4baa:	0f 90       	pop	r0
    4bac:	0f 90       	pop	r0
    4bae:	df 91       	pop	r29
    4bb0:	cf 91       	pop	r28
    4bb2:	08 95       	ret

00004bb4 <_ZN4leds4initE7Blink_t>:
    4bb4:	cf 93       	push	r28
    4bb6:	df 93       	push	r29
    4bb8:	00 d0       	rcall	.+0      	; 0x4bba <_ZN4leds4initE7Blink_t+0x6>
    4bba:	00 d0       	rcall	.+0      	; 0x4bbc <_ZN4leds4initE7Blink_t+0x8>
    4bbc:	cd b7       	in	r28, 0x3d	; 61
    4bbe:	de b7       	in	r29, 0x3e	; 62
    4bc0:	89 83       	std	Y+1, r24	; 0x01
    4bc2:	9a 83       	std	Y+2, r25	; 0x02
    4bc4:	6b 83       	std	Y+3, r22	; 0x03
    4bc6:	7c 83       	std	Y+4, r23	; 0x04
    4bc8:	80 e3       	ldi	r24, 0x30	; 48
    4bca:	9b e0       	ldi	r25, 0x0B	; 11
    4bcc:	fc 01       	movw	r30, r24
    4bce:	25 81       	ldd	r18, Z+5	; 0x05
    4bd0:	80 e3       	ldi	r24, 0x30	; 48
    4bd2:	9b e0       	ldi	r25, 0x0B	; 11
    4bd4:	2e 7f       	andi	r18, 0xFE	; 254
    4bd6:	fc 01       	movw	r30, r24
    4bd8:	25 83       	std	Z+5, r18	; 0x05
    4bda:	89 81       	ldd	r24, Y+1	; 0x01
    4bdc:	9a 81       	ldd	r25, Y+2	; 0x02
    4bde:	0e 94 a0 25 	call	0x4b40	; 0x4b40 <_ZN4leds5resetEv>
    4be2:	80 e3       	ldi	r24, 0x30	; 48
    4be4:	9b e0       	ldi	r25, 0x0B	; 11
    4be6:	fc 01       	movw	r30, r24
    4be8:	25 81       	ldd	r18, Z+5	; 0x05
    4bea:	80 e3       	ldi	r24, 0x30	; 48
    4bec:	9b e0       	ldi	r25, 0x0B	; 11
    4bee:	21 60       	ori	r18, 0x01	; 1
    4bf0:	fc 01       	movw	r30, r24
    4bf2:	25 83       	std	Z+5, r18	; 0x05
    4bf4:	8b 81       	ldd	r24, Y+3	; 0x03
    4bf6:	9c 81       	ldd	r25, Y+4	; 0x04
    4bf8:	89 2b       	or	r24, r25
    4bfa:	41 f0       	breq	.+16     	; 0x4c0c <_ZN4leds4initE7Blink_t+0x58>
    4bfc:	2b 81       	ldd	r18, Y+3	; 0x03
    4bfe:	3c 81       	ldd	r19, Y+4	; 0x04
    4c00:	89 81       	ldd	r24, Y+1	; 0x01
    4c02:	9a 81       	ldd	r25, Y+2	; 0x02
    4c04:	41 e0       	ldi	r20, 0x01	; 1
    4c06:	b9 01       	movw	r22, r18
    4c08:	0e 94 26 26 	call	0x4c4c	; 0x4c4c <_ZN4leds5blinkE7Blink_tb>
    4c0c:	00 00       	nop
    4c0e:	24 96       	adiw	r28, 0x04	; 4
    4c10:	cd bf       	out	0x3d, r28	; 61
    4c12:	de bf       	out	0x3e, r29	; 62
    4c14:	df 91       	pop	r29
    4c16:	cf 91       	pop	r28
    4c18:	08 95       	ret

00004c1a <_ZN4leds5blinkE7Blink_t>:

void leds::blink(Blink_t blinkMode)
{
    4c1a:	cf 93       	push	r28
    4c1c:	df 93       	push	r29
    4c1e:	00 d0       	rcall	.+0      	; 0x4c20 <_ZN4leds5blinkE7Blink_t+0x6>
    4c20:	00 d0       	rcall	.+0      	; 0x4c22 <_ZN4leds5blinkE7Blink_t+0x8>
    4c22:	cd b7       	in	r28, 0x3d	; 61
    4c24:	de b7       	in	r29, 0x3e	; 62
    4c26:	89 83       	std	Y+1, r24	; 0x01
    4c28:	9a 83       	std	Y+2, r25	; 0x02
    4c2a:	6b 83       	std	Y+3, r22	; 0x03
    4c2c:	7c 83       	std	Y+4, r23	; 0x04
	blink(blinkMode, false);
    4c2e:	2b 81       	ldd	r18, Y+3	; 0x03
    4c30:	3c 81       	ldd	r19, Y+4	; 0x04
    4c32:	89 81       	ldd	r24, Y+1	; 0x01
    4c34:	9a 81       	ldd	r25, Y+2	; 0x02
    4c36:	40 e0       	ldi	r20, 0x00	; 0
    4c38:	b9 01       	movw	r22, r18
    4c3a:	0e 94 26 26 	call	0x4c4c	; 0x4c4c <_ZN4leds5blinkE7Blink_tb>
}
    4c3e:	00 00       	nop
    4c40:	24 96       	adiw	r28, 0x04	; 4
    4c42:	cd bf       	out	0x3d, r28	; 61
    4c44:	de bf       	out	0x3e, r29	; 62
    4c46:	df 91       	pop	r29
    4c48:	cf 91       	pop	r28
    4c4a:	08 95       	ret

00004c4c <_ZN4leds5blinkE7Blink_tb>:
	bool isRed;
	bool isGreen;
	bool isBoth;	

void leds::blink(Blink_t blinkMode, bool resetTimeout)
{
    4c4c:	cf 93       	push	r28
    4c4e:	df 93       	push	r29
    4c50:	cd b7       	in	r28, 0x3d	; 61
    4c52:	de b7       	in	r29, 0x3e	; 62
    4c54:	25 97       	sbiw	r28, 0x05	; 5
    4c56:	cd bf       	out	0x3d, r28	; 61
    4c58:	de bf       	out	0x3e, r29	; 62
    4c5a:	89 83       	std	Y+1, r24	; 0x01
    4c5c:	9a 83       	std	Y+2, r25	; 0x02
    4c5e:	6b 83       	std	Y+3, r22	; 0x03
    4c60:	7c 83       	std	Y+4, r23	; 0x04
    4c62:	4d 83       	std	Y+5, r20	; 0x05
	if(resetTimeout)
    4c64:	8d 81       	ldd	r24, Y+5	; 0x05
    4c66:	88 23       	and	r24, r24
    4c68:	61 f0       	breq	.+24     	; 0x4c82 <_ZN4leds5blinkE7Blink_tb+0x36>
	{
		led_timeout_count = LED_TIMEOUT_DELAY;
    4c6a:	80 e6       	ldi	r24, 0x60	; 96
    4c6c:	9a ee       	ldi	r25, 0xEA	; 234
    4c6e:	a0 e0       	ldi	r26, 0x00	; 0
    4c70:	b0 e0       	ldi	r27, 0x00	; 0
    4c72:	80 93 26 40 	sts	0x4026, r24	; 0x804026 <_ZL17led_timeout_count>
    4c76:	90 93 27 40 	sts	0x4027, r25	; 0x804027 <_ZL17led_timeout_count+0x1>
    4c7a:	a0 93 28 40 	sts	0x4028, r26	; 0x804028 <_ZL17led_timeout_count+0x2>
    4c7e:	b0 93 29 40 	sts	0x4029, r27	; 0x804029 <_ZL17led_timeout_count+0x3>
	}
	
	if(!led_timeout_count && (blinkMode != LEDS_OFF)) return;
    4c82:	80 91 26 40 	lds	r24, 0x4026	; 0x804026 <_ZL17led_timeout_count>
    4c86:	90 91 27 40 	lds	r25, 0x4027	; 0x804027 <_ZL17led_timeout_count+0x1>
    4c8a:	a0 91 28 40 	lds	r26, 0x4028	; 0x804028 <_ZL17led_timeout_count+0x2>
    4c8e:	b0 91 29 40 	lds	r27, 0x4029	; 0x804029 <_ZL17led_timeout_count+0x3>
    4c92:	89 2b       	or	r24, r25
    4c94:	8a 2b       	or	r24, r26
    4c96:	8b 2b       	or	r24, r27
    4c98:	31 f4       	brne	.+12     	; 0x4ca6 <_ZN4leds5blinkE7Blink_tb+0x5a>
    4c9a:	8b 81       	ldd	r24, Y+3	; 0x03
    4c9c:	9c 81       	ldd	r25, Y+4	; 0x04
    4c9e:	89 2b       	or	r24, r25
    4ca0:	11 f0       	breq	.+4      	; 0x4ca6 <_ZN4leds5blinkE7Blink_tb+0x5a>
    4ca2:	81 e0       	ldi	r24, 0x01	; 1
    4ca4:	01 c0       	rjmp	.+2      	; 0x4ca8 <_ZN4leds5blinkE7Blink_tb+0x5c>
    4ca6:	80 e0       	ldi	r24, 0x00	; 0
    4ca8:	88 23       	and	r24, r24
    4caa:	09 f0       	breq	.+2      	; 0x4cae <_ZN4leds5blinkE7Blink_tb+0x62>
    4cac:	46 c2       	rjmp	.+1164   	; 0x513a <_ZN4leds5blinkE7Blink_tb+0x4ee>
	
	isRed = ((blinkMode == LEDS_RED_OFF) || (blinkMode == LEDS_RED_BLINK_FAST) || (blinkMode == LEDS_RED_BLINK_SLOW) || (blinkMode == LEDS_RED_ON_CONSTANT));
    4cae:	8b 81       	ldd	r24, Y+3	; 0x03
    4cb0:	9c 81       	ldd	r25, Y+4	; 0x04
    4cb2:	01 97       	sbiw	r24, 0x01	; 1
    4cb4:	61 f0       	breq	.+24     	; 0x4cce <_ZN4leds5blinkE7Blink_tb+0x82>
    4cb6:	8b 81       	ldd	r24, Y+3	; 0x03
    4cb8:	9c 81       	ldd	r25, Y+4	; 0x04
    4cba:	03 97       	sbiw	r24, 0x03	; 3
    4cbc:	41 f0       	breq	.+16     	; 0x4cce <_ZN4leds5blinkE7Blink_tb+0x82>
    4cbe:	8b 81       	ldd	r24, Y+3	; 0x03
    4cc0:	9c 81       	ldd	r25, Y+4	; 0x04
    4cc2:	04 97       	sbiw	r24, 0x04	; 4
    4cc4:	21 f0       	breq	.+8      	; 0x4cce <_ZN4leds5blinkE7Blink_tb+0x82>
    4cc6:	8b 81       	ldd	r24, Y+3	; 0x03
    4cc8:	9c 81       	ldd	r25, Y+4	; 0x04
    4cca:	07 97       	sbiw	r24, 0x07	; 7
    4ccc:	11 f4       	brne	.+4      	; 0x4cd2 <_ZN4leds5blinkE7Blink_tb+0x86>
    4cce:	81 e0       	ldi	r24, 0x01	; 1
    4cd0:	01 c0       	rjmp	.+2      	; 0x4cd4 <_ZN4leds5blinkE7Blink_tb+0x88>
    4cd2:	80 e0       	ldi	r24, 0x00	; 0
    4cd4:	80 93 22 42 	sts	0x4222, r24	; 0x804222 <isRed>
	isGreen = ((blinkMode == LEDS_GREEN_OFF) || (blinkMode == LEDS_GREEN_BLINK_FAST) || (blinkMode == LEDS_GREEN_BLINK_SLOW) || (blinkMode == LEDS_GREEN_ON_CONSTANT));
    4cd8:	8b 81       	ldd	r24, Y+3	; 0x03
    4cda:	9c 81       	ldd	r25, Y+4	; 0x04
    4cdc:	02 97       	sbiw	r24, 0x02	; 2
    4cde:	61 f0       	breq	.+24     	; 0x4cf8 <_ZN4leds5blinkE7Blink_tb+0xac>
    4ce0:	8b 81       	ldd	r24, Y+3	; 0x03
    4ce2:	9c 81       	ldd	r25, Y+4	; 0x04
    4ce4:	05 97       	sbiw	r24, 0x05	; 5
    4ce6:	41 f0       	breq	.+16     	; 0x4cf8 <_ZN4leds5blinkE7Blink_tb+0xac>
    4ce8:	8b 81       	ldd	r24, Y+3	; 0x03
    4cea:	9c 81       	ldd	r25, Y+4	; 0x04
    4cec:	06 97       	sbiw	r24, 0x06	; 6
    4cee:	21 f0       	breq	.+8      	; 0x4cf8 <_ZN4leds5blinkE7Blink_tb+0xac>
    4cf0:	8b 81       	ldd	r24, Y+3	; 0x03
    4cf2:	9c 81       	ldd	r25, Y+4	; 0x04
    4cf4:	08 97       	sbiw	r24, 0x08	; 8
    4cf6:	11 f4       	brne	.+4      	; 0x4cfc <_ZN4leds5blinkE7Blink_tb+0xb0>
    4cf8:	81 e0       	ldi	r24, 0x01	; 1
    4cfa:	01 c0       	rjmp	.+2      	; 0x4cfe <_ZN4leds5blinkE7Blink_tb+0xb2>
    4cfc:	80 e0       	ldi	r24, 0x00	; 0
    4cfe:	80 93 23 42 	sts	0x4223, r24	; 0x804223 <isGreen>
	isBoth = !isRed && !isGreen;	
    4d02:	90 91 22 42 	lds	r25, 0x4222	; 0x804222 <isRed>
    4d06:	81 e0       	ldi	r24, 0x01	; 1
    4d08:	89 27       	eor	r24, r25
    4d0a:	88 23       	and	r24, r24
    4d0c:	41 f0       	breq	.+16     	; 0x4d1e <_ZN4leds5blinkE7Blink_tb+0xd2>
    4d0e:	90 91 23 42 	lds	r25, 0x4223	; 0x804223 <isGreen>
    4d12:	81 e0       	ldi	r24, 0x01	; 1
    4d14:	89 27       	eor	r24, r25
    4d16:	88 23       	and	r24, r24
    4d18:	11 f0       	breq	.+4      	; 0x4d1e <_ZN4leds5blinkE7Blink_tb+0xd2>
    4d1a:	81 e0       	ldi	r24, 0x01	; 1
    4d1c:	01 c0       	rjmp	.+2      	; 0x4d20 <_ZN4leds5blinkE7Blink_tb+0xd4>
    4d1e:	80 e0       	ldi	r24, 0x00	; 0
    4d20:	80 93 24 42 	sts	0x4224, r24	; 0x804224 <isBoth>
		
	if((isRed && (blinkMode != lastRedBlinkSetting)) || (isGreen && (blinkMode != lastGreenBlinkSetting)) || (isBoth && (blinkMode != lastBothBlinkSetting)))
    4d24:	80 91 22 42 	lds	r24, 0x4222	; 0x804222 <isRed>
    4d28:	88 23       	and	r24, r24
    4d2a:	49 f0       	breq	.+18     	; 0x4d3e <_ZN4leds5blinkE7Blink_tb+0xf2>
    4d2c:	80 91 0e 42 	lds	r24, 0x420E	; 0x80420e <_ZL19lastRedBlinkSetting>
    4d30:	90 91 0f 42 	lds	r25, 0x420F	; 0x80420f <_ZL19lastRedBlinkSetting+0x1>
    4d34:	2b 81       	ldd	r18, Y+3	; 0x03
    4d36:	3c 81       	ldd	r19, Y+4	; 0x04
    4d38:	28 17       	cp	r18, r24
    4d3a:	39 07       	cpc	r19, r25
    4d3c:	d1 f4       	brne	.+52     	; 0x4d72 <_ZN4leds5blinkE7Blink_tb+0x126>
    4d3e:	80 91 23 42 	lds	r24, 0x4223	; 0x804223 <isGreen>
    4d42:	88 23       	and	r24, r24
    4d44:	49 f0       	breq	.+18     	; 0x4d58 <_ZN4leds5blinkE7Blink_tb+0x10c>
    4d46:	80 91 10 42 	lds	r24, 0x4210	; 0x804210 <_ZL21lastGreenBlinkSetting>
    4d4a:	90 91 11 42 	lds	r25, 0x4211	; 0x804211 <_ZL21lastGreenBlinkSetting+0x1>
    4d4e:	2b 81       	ldd	r18, Y+3	; 0x03
    4d50:	3c 81       	ldd	r19, Y+4	; 0x04
    4d52:	28 17       	cp	r18, r24
    4d54:	39 07       	cpc	r19, r25
    4d56:	69 f4       	brne	.+26     	; 0x4d72 <_ZN4leds5blinkE7Blink_tb+0x126>
    4d58:	80 91 24 42 	lds	r24, 0x4224	; 0x804224 <isBoth>
    4d5c:	88 23       	and	r24, r24
    4d5e:	59 f0       	breq	.+22     	; 0x4d76 <_ZN4leds5blinkE7Blink_tb+0x12a>
    4d60:	80 91 12 42 	lds	r24, 0x4212	; 0x804212 <_ZL20lastBothBlinkSetting>
    4d64:	90 91 13 42 	lds	r25, 0x4213	; 0x804213 <_ZL20lastBothBlinkSetting+0x1>
    4d68:	2b 81       	ldd	r18, Y+3	; 0x03
    4d6a:	3c 81       	ldd	r19, Y+4	; 0x04
    4d6c:	28 17       	cp	r18, r24
    4d6e:	39 07       	cpc	r19, r25
    4d70:	11 f0       	breq	.+4      	; 0x4d76 <_ZN4leds5blinkE7Blink_tb+0x12a>
    4d72:	81 e0       	ldi	r24, 0x01	; 1
    4d74:	01 c0       	rjmp	.+2      	; 0x4d78 <_ZN4leds5blinkE7Blink_tb+0x12c>
    4d76:	80 e0       	ldi	r24, 0x00	; 0
    4d78:	88 23       	and	r24, r24
    4d7a:	09 f4       	brne	.+2      	; 0x4d7e <_ZN4leds5blinkE7Blink_tb+0x132>
    4d7c:	c1 c1       	rjmp	.+898    	; 0x5100 <_ZN4leds5blinkE7Blink_tb+0x4b4>
	{
		TCB3.INTCTRL &= ~TCB_CAPT_bm;   /* Capture or Timeout: disabled */
    4d7e:	80 e3       	ldi	r24, 0x30	; 48
    4d80:	9b e0       	ldi	r25, 0x0B	; 11
    4d82:	fc 01       	movw	r30, r24
    4d84:	25 81       	ldd	r18, Z+5	; 0x05
    4d86:	80 e3       	ldi	r24, 0x30	; 48
    4d88:	9b e0       	ldi	r25, 0x0B	; 11
    4d8a:	2e 7f       	andi	r18, 0xFE	; 254
    4d8c:	fc 01       	movw	r30, r24
    4d8e:	25 83       	std	Z+5, r18	; 0x05

		switch(blinkMode)
    4d90:	8b 81       	ldd	r24, Y+3	; 0x03
    4d92:	9c 81       	ldd	r25, Y+4	; 0x04
    4d94:	cc 01       	movw	r24, r24
    4d96:	a0 e0       	ldi	r26, 0x00	; 0
    4d98:	b0 e0       	ldi	r27, 0x00	; 0
    4d9a:	8d 30       	cpi	r24, 0x0D	; 13
    4d9c:	91 05       	cpc	r25, r1
    4d9e:	a1 05       	cpc	r26, r1
    4da0:	b1 05       	cpc	r27, r1
    4da2:	08 f0       	brcs	.+2      	; 0x4da6 <_ZN4leds5blinkE7Blink_tb+0x15a>
    4da4:	a3 c1       	rjmp	.+838    	; 0x50ec <_ZN4leds5blinkE7Blink_tb+0x4a0>
    4da6:	88 52       	subi	r24, 0x28	; 40
    4da8:	99 4d       	sbci	r25, 0xD9	; 217
    4daa:	fc 01       	movw	r30, r24
    4dac:	0c 94 0d 3b 	jmp	0x761a	; 0x761a <__tablejump2__>
    4db0:	e5 26       	eor	r14, r21
    4db2:	f8 26       	eor	r15, r24
    4db4:	02 27       	eor	r16, r18
    4db6:	0c 27       	eor	r16, r28
    4db8:	40 27       	eor	r20, r16
    4dba:	26 27       	eor	r18, r22
    4dbc:	5a 27       	eor	r21, r26
    4dbe:	46 28       	or	r4, r6
    4dc0:	5e 28       	or	r5, r14
    4dc2:	13 28       	or	r1, r3
    4dc4:	e0 27       	eor	r30, r16
    4dc6:	aa 27       	eor	r26, r26
    4dc8:	74 27       	eor	r23, r20
		{
			case LEDS_OFF:
			{
				red_blink_count = 0;
    4dca:	10 92 1c 42 	sts	0x421C, r1	; 0x80421c <_ZL15red_blink_count>
    4dce:	10 92 1d 42 	sts	0x421D, r1	; 0x80421d <_ZL15red_blink_count+0x1>
				green_blink_count = 0;
    4dd2:	10 92 1e 42 	sts	0x421E, r1	; 0x80421e <_ZL17green_blink_count>
    4dd6:	10 92 1f 42 	sts	0x421F, r1	; 0x80421f <_ZL17green_blink_count+0x1>
				LED_set_RED_level(OFF);
    4dda:	80 e0       	ldi	r24, 0x00	; 0
    4ddc:	0e 94 94 23 	call	0x4728	; 0x4728 <_ZL17LED_set_RED_levelb>
				LED_set_GREEN_level(OFF);
    4de0:	80 e0       	ldi	r24, 0x00	; 0
    4de2:	0e 94 a3 23 	call	0x4746	; 0x4746 <_ZL19LED_set_GREEN_levelb>
				red_led_configured = false;
    4de6:	10 92 20 42 	sts	0x4220, r1	; 0x804220 <_ZL18red_led_configured>
				green_led_configured = false;
    4dea:	10 92 21 42 	sts	0x4221, r1	; 0x804221 <_ZL20green_led_configured>
			}
			break;
    4dee:	7f c1       	rjmp	.+766    	; 0x50ee <_ZN4leds5blinkE7Blink_tb+0x4a2>
			
			case LEDS_RED_OFF:
			{
				LED_set_RED_level(OFF);
    4df0:	80 e0       	ldi	r24, 0x00	; 0
    4df2:	0e 94 94 23 	call	0x4728	; 0x4728 <_ZL17LED_set_RED_levelb>
				red_blink_count = 0;
    4df6:	10 92 1c 42 	sts	0x421C, r1	; 0x80421c <_ZL15red_blink_count>
    4dfa:	10 92 1d 42 	sts	0x421D, r1	; 0x80421d <_ZL15red_blink_count+0x1>
				red_led_configured = false;
    4dfe:	10 92 20 42 	sts	0x4220, r1	; 0x804220 <_ZL18red_led_configured>
			}
			break;
    4e02:	75 c1       	rjmp	.+746    	; 0x50ee <_ZN4leds5blinkE7Blink_tb+0x4a2>
			
			case LEDS_GREEN_OFF:
			{
				LED_set_GREEN_level(OFF);
    4e04:	80 e0       	ldi	r24, 0x00	; 0
    4e06:	0e 94 a3 23 	call	0x4746	; 0x4746 <_ZL19LED_set_GREEN_levelb>
				green_blink_count = 0;
    4e0a:	10 92 1e 42 	sts	0x421E, r1	; 0x80421e <_ZL17green_blink_count>
    4e0e:	10 92 1f 42 	sts	0x421F, r1	; 0x80421f <_ZL17green_blink_count+0x1>
				green_led_configured = false;
    4e12:	10 92 21 42 	sts	0x4221, r1	; 0x804221 <_ZL20green_led_configured>
			}
			break;
    4e16:	6b c1       	rjmp	.+726    	; 0x50ee <_ZN4leds5blinkE7Blink_tb+0x4a2>
			
			case LEDS_RED_BLINK_FAST:
			{
				red_blink_on_period = BRIEF_ON;
    4e18:	8f e0       	ldi	r24, 0x0F	; 15
    4e1a:	90 e0       	ldi	r25, 0x00	; 0
    4e1c:	80 93 14 42 	sts	0x4214, r24	; 0x804214 <_ZL19red_blink_on_period>
    4e20:	90 93 15 42 	sts	0x4215, r25	; 0x804215 <_ZL19red_blink_on_period+0x1>
				red_blink_off_period = BRIEF_OFF;
    4e24:	82 e3       	ldi	r24, 0x32	; 50
    4e26:	90 e0       	ldi	r25, 0x00	; 0
    4e28:	80 93 16 42 	sts	0x4216, r24	; 0x804216 <_ZL20red_blink_off_period>
    4e2c:	90 93 17 42 	sts	0x4217, r25	; 0x804217 <_ZL20red_blink_off_period+0x1>
				red_blink_count = red_blink_on_period;	
    4e30:	80 91 14 42 	lds	r24, 0x4214	; 0x804214 <_ZL19red_blink_on_period>
    4e34:	90 91 15 42 	lds	r25, 0x4215	; 0x804215 <_ZL19red_blink_on_period+0x1>
    4e38:	80 93 1c 42 	sts	0x421C, r24	; 0x80421c <_ZL15red_blink_count>
    4e3c:	90 93 1d 42 	sts	0x421D, r25	; 0x80421d <_ZL15red_blink_count+0x1>
				red_led_configured = true;			
    4e40:	81 e0       	ldi	r24, 0x01	; 1
    4e42:	80 93 20 42 	sts	0x4220, r24	; 0x804220 <_ZL18red_led_configured>
				timer_red_blink_inhibit = false; /* Enable timer LED control */
    4e46:	10 92 0c 42 	sts	0x420C, r1	; 0x80420c <_ZL23timer_red_blink_inhibit>
			}
			break;
    4e4a:	51 c1       	rjmp	.+674    	; 0x50ee <_ZN4leds5blinkE7Blink_tb+0x4a2>
			
			case LEDS_GREEN_BLINK_FAST:
			{
				green_blink_on_period = BRIEF_ON;
    4e4c:	8f e0       	ldi	r24, 0x0F	; 15
    4e4e:	90 e0       	ldi	r25, 0x00	; 0
    4e50:	80 93 18 42 	sts	0x4218, r24	; 0x804218 <_ZL21green_blink_on_period>
    4e54:	90 93 19 42 	sts	0x4219, r25	; 0x804219 <_ZL21green_blink_on_period+0x1>
				green_blink_off_period = BRIEF_OFF;	
    4e58:	82 e3       	ldi	r24, 0x32	; 50
    4e5a:	90 e0       	ldi	r25, 0x00	; 0
    4e5c:	80 93 1a 42 	sts	0x421A, r24	; 0x80421a <_ZL22green_blink_off_period>
    4e60:	90 93 1b 42 	sts	0x421B, r25	; 0x80421b <_ZL22green_blink_off_period+0x1>
				green_blink_count = green_blink_on_period;			
    4e64:	80 91 18 42 	lds	r24, 0x4218	; 0x804218 <_ZL21green_blink_on_period>
    4e68:	90 91 19 42 	lds	r25, 0x4219	; 0x804219 <_ZL21green_blink_on_period+0x1>
    4e6c:	80 93 1e 42 	sts	0x421E, r24	; 0x80421e <_ZL17green_blink_count>
    4e70:	90 93 1f 42 	sts	0x421F, r25	; 0x80421f <_ZL17green_blink_count+0x1>
				green_led_configured = true;			
    4e74:	81 e0       	ldi	r24, 0x01	; 1
    4e76:	80 93 21 42 	sts	0x4221, r24	; 0x804221 <_ZL20green_led_configured>
				timer_green_blink_inhibit = false; /* Enable timer LED control */
    4e7a:	10 92 0d 42 	sts	0x420D, r1	; 0x80420d <_ZL25timer_green_blink_inhibit>
			}
			break;
    4e7e:	37 c1       	rjmp	.+622    	; 0x50ee <_ZN4leds5blinkE7Blink_tb+0x4a2>
			
			case LEDS_RED_BLINK_SLOW:
			{
				red_blink_on_period = SLOW_ON;
    4e80:	89 e1       	ldi	r24, 0x19	; 25
    4e82:	90 e0       	ldi	r25, 0x00	; 0
    4e84:	80 93 14 42 	sts	0x4214, r24	; 0x804214 <_ZL19red_blink_on_period>
    4e88:	90 93 15 42 	sts	0x4215, r25	; 0x804215 <_ZL19red_blink_on_period+0x1>
				red_blink_off_period = SLOW_OFF;
    4e8c:	84 ef       	ldi	r24, 0xF4	; 244
    4e8e:	91 e0       	ldi	r25, 0x01	; 1
    4e90:	80 93 16 42 	sts	0x4216, r24	; 0x804216 <_ZL20red_blink_off_period>
    4e94:	90 93 17 42 	sts	0x4217, r25	; 0x804217 <_ZL20red_blink_off_period+0x1>
				red_blink_count = red_blink_on_period;				
    4e98:	80 91 14 42 	lds	r24, 0x4214	; 0x804214 <_ZL19red_blink_on_period>
    4e9c:	90 91 15 42 	lds	r25, 0x4215	; 0x804215 <_ZL19red_blink_on_period+0x1>
    4ea0:	80 93 1c 42 	sts	0x421C, r24	; 0x80421c <_ZL15red_blink_count>
    4ea4:	90 93 1d 42 	sts	0x421D, r25	; 0x80421d <_ZL15red_blink_count+0x1>
				red_led_configured = true;			
    4ea8:	81 e0       	ldi	r24, 0x01	; 1
    4eaa:	80 93 20 42 	sts	0x4220, r24	; 0x804220 <_ZL18red_led_configured>
				timer_red_blink_inhibit = false; /* Enable timer LED control */
    4eae:	10 92 0c 42 	sts	0x420C, r1	; 0x80420c <_ZL23timer_red_blink_inhibit>
			}
			break;
    4eb2:	1d c1       	rjmp	.+570    	; 0x50ee <_ZN4leds5blinkE7Blink_tb+0x4a2>
			
			case LEDS_GREEN_BLINK_SLOW:
			{
				green_blink_on_period = SLOW_ON;
    4eb4:	89 e1       	ldi	r24, 0x19	; 25
    4eb6:	90 e0       	ldi	r25, 0x00	; 0
    4eb8:	80 93 18 42 	sts	0x4218, r24	; 0x804218 <_ZL21green_blink_on_period>
    4ebc:	90 93 19 42 	sts	0x4219, r25	; 0x804219 <_ZL21green_blink_on_period+0x1>
				green_blink_off_period = SLOW_OFF;	
    4ec0:	84 ef       	ldi	r24, 0xF4	; 244
    4ec2:	91 e0       	ldi	r25, 0x01	; 1
    4ec4:	80 93 1a 42 	sts	0x421A, r24	; 0x80421a <_ZL22green_blink_off_period>
    4ec8:	90 93 1b 42 	sts	0x421B, r25	; 0x80421b <_ZL22green_blink_off_period+0x1>
				green_blink_count = green_blink_on_period;			
    4ecc:	80 91 18 42 	lds	r24, 0x4218	; 0x804218 <_ZL21green_blink_on_period>
    4ed0:	90 91 19 42 	lds	r25, 0x4219	; 0x804219 <_ZL21green_blink_on_period+0x1>
    4ed4:	80 93 1e 42 	sts	0x421E, r24	; 0x80421e <_ZL17green_blink_count>
    4ed8:	90 93 1f 42 	sts	0x421F, r25	; 0x80421f <_ZL17green_blink_count+0x1>
				green_led_configured = true;			
    4edc:	81 e0       	ldi	r24, 0x01	; 1
    4ede:	80 93 21 42 	sts	0x4221, r24	; 0x804221 <_ZL20green_led_configured>
				timer_green_blink_inhibit = false; /* Enable timer LED control */
    4ee2:	10 92 0d 42 	sts	0x420D, r1	; 0x80420d <_ZL25timer_green_blink_inhibit>
			}
			break;
    4ee6:	03 c1       	rjmp	.+518    	; 0x50ee <_ZN4leds5blinkE7Blink_tb+0x4a2>
			
			case LEDS_RED_THEN_GREEN_BLINK_SLOW:
			{
				green_blink_on_period = SLOW_ON;
    4ee8:	89 e1       	ldi	r24, 0x19	; 25
    4eea:	90 e0       	ldi	r25, 0x00	; 0
    4eec:	80 93 18 42 	sts	0x4218, r24	; 0x804218 <_ZL21green_blink_on_period>
    4ef0:	90 93 19 42 	sts	0x4219, r25	; 0x804219 <_ZL21green_blink_on_period+0x1>
				green_blink_off_period = SLOW_OFF;	
    4ef4:	84 ef       	ldi	r24, 0xF4	; 244
    4ef6:	91 e0       	ldi	r25, 0x01	; 1
    4ef8:	80 93 1a 42 	sts	0x421A, r24	; 0x80421a <_ZL22green_blink_off_period>
    4efc:	90 93 1b 42 	sts	0x421B, r25	; 0x80421b <_ZL22green_blink_off_period+0x1>
				green_blink_count = -green_blink_on_period;			
    4f00:	80 91 18 42 	lds	r24, 0x4218	; 0x804218 <_ZL21green_blink_on_period>
    4f04:	90 91 19 42 	lds	r25, 0x4219	; 0x804219 <_ZL21green_blink_on_period+0x1>
    4f08:	91 95       	neg	r25
    4f0a:	81 95       	neg	r24
    4f0c:	91 09       	sbc	r25, r1
    4f0e:	80 93 1e 42 	sts	0x421E, r24	; 0x80421e <_ZL17green_blink_count>
    4f12:	90 93 1f 42 	sts	0x421F, r25	; 0x80421f <_ZL17green_blink_count+0x1>
				red_blink_on_period = SLOW_ON;
    4f16:	89 e1       	ldi	r24, 0x19	; 25
    4f18:	90 e0       	ldi	r25, 0x00	; 0
    4f1a:	80 93 14 42 	sts	0x4214, r24	; 0x804214 <_ZL19red_blink_on_period>
    4f1e:	90 93 15 42 	sts	0x4215, r25	; 0x804215 <_ZL19red_blink_on_period+0x1>
				red_blink_off_period = SLOW_OFF;
    4f22:	84 ef       	ldi	r24, 0xF4	; 244
    4f24:	91 e0       	ldi	r25, 0x01	; 1
    4f26:	80 93 16 42 	sts	0x4216, r24	; 0x804216 <_ZL20red_blink_off_period>
    4f2a:	90 93 17 42 	sts	0x4217, r25	; 0x804217 <_ZL20red_blink_off_period+0x1>
				red_blink_count = red_blink_on_period;				
    4f2e:	80 91 14 42 	lds	r24, 0x4214	; 0x804214 <_ZL19red_blink_on_period>
    4f32:	90 91 15 42 	lds	r25, 0x4215	; 0x804215 <_ZL19red_blink_on_period+0x1>
    4f36:	80 93 1c 42 	sts	0x421C, r24	; 0x80421c <_ZL15red_blink_count>
    4f3a:	90 93 1d 42 	sts	0x421D, r25	; 0x80421d <_ZL15red_blink_count+0x1>
				red_led_configured = true;			
    4f3e:	81 e0       	ldi	r24, 0x01	; 1
    4f40:	80 93 20 42 	sts	0x4220, r24	; 0x804220 <_ZL18red_led_configured>
				green_led_configured = true;			
    4f44:	81 e0       	ldi	r24, 0x01	; 1
    4f46:	80 93 21 42 	sts	0x4221, r24	; 0x804221 <_ZL20green_led_configured>
				timer_red_blink_inhibit = timer_green_blink_inhibit = false; /* Enable timer LED control */
    4f4a:	10 92 0d 42 	sts	0x420D, r1	; 0x80420d <_ZL25timer_green_blink_inhibit>
    4f4e:	10 92 0c 42 	sts	0x420C, r1	; 0x80420c <_ZL23timer_red_blink_inhibit>
			}
			break;
    4f52:	cd c0       	rjmp	.+410    	; 0x50ee <_ZN4leds5blinkE7Blink_tb+0x4a2>
			
			case LEDS_RED_THEN_GREEN_BLINK_FAST:
			{
				green_blink_on_period = FAST_ON;
    4f54:	89 e1       	ldi	r24, 0x19	; 25
    4f56:	90 e0       	ldi	r25, 0x00	; 0
    4f58:	80 93 18 42 	sts	0x4218, r24	; 0x804218 <_ZL21green_blink_on_period>
    4f5c:	90 93 19 42 	sts	0x4219, r25	; 0x804219 <_ZL21green_blink_on_period+0x1>
				green_blink_off_period = FAST_OFF;	
    4f60:	89 e1       	ldi	r24, 0x19	; 25
    4f62:	90 e0       	ldi	r25, 0x00	; 0
    4f64:	80 93 1a 42 	sts	0x421A, r24	; 0x80421a <_ZL22green_blink_off_period>
    4f68:	90 93 1b 42 	sts	0x421B, r25	; 0x80421b <_ZL22green_blink_off_period+0x1>
				green_blink_count = -green_blink_on_period;			
    4f6c:	80 91 18 42 	lds	r24, 0x4218	; 0x804218 <_ZL21green_blink_on_period>
    4f70:	90 91 19 42 	lds	r25, 0x4219	; 0x804219 <_ZL21green_blink_on_period+0x1>
    4f74:	91 95       	neg	r25
    4f76:	81 95       	neg	r24
    4f78:	91 09       	sbc	r25, r1
    4f7a:	80 93 1e 42 	sts	0x421E, r24	; 0x80421e <_ZL17green_blink_count>
    4f7e:	90 93 1f 42 	sts	0x421F, r25	; 0x80421f <_ZL17green_blink_count+0x1>
				red_blink_on_period = FAST_ON;
    4f82:	89 e1       	ldi	r24, 0x19	; 25
    4f84:	90 e0       	ldi	r25, 0x00	; 0
    4f86:	80 93 14 42 	sts	0x4214, r24	; 0x804214 <_ZL19red_blink_on_period>
    4f8a:	90 93 15 42 	sts	0x4215, r25	; 0x804215 <_ZL19red_blink_on_period+0x1>
				red_blink_off_period = FAST_OFF;
    4f8e:	89 e1       	ldi	r24, 0x19	; 25
    4f90:	90 e0       	ldi	r25, 0x00	; 0
    4f92:	80 93 16 42 	sts	0x4216, r24	; 0x804216 <_ZL20red_blink_off_period>
    4f96:	90 93 17 42 	sts	0x4217, r25	; 0x804217 <_ZL20red_blink_off_period+0x1>
				red_blink_count = red_blink_on_period;				
    4f9a:	80 91 14 42 	lds	r24, 0x4214	; 0x804214 <_ZL19red_blink_on_period>
    4f9e:	90 91 15 42 	lds	r25, 0x4215	; 0x804215 <_ZL19red_blink_on_period+0x1>
    4fa2:	80 93 1c 42 	sts	0x421C, r24	; 0x80421c <_ZL15red_blink_count>
    4fa6:	90 93 1d 42 	sts	0x421D, r25	; 0x80421d <_ZL15red_blink_count+0x1>
				red_led_configured = true;			
    4faa:	81 e0       	ldi	r24, 0x01	; 1
    4fac:	80 93 20 42 	sts	0x4220, r24	; 0x804220 <_ZL18red_led_configured>
				green_led_configured = true;			
    4fb0:	81 e0       	ldi	r24, 0x01	; 1
    4fb2:	80 93 21 42 	sts	0x4221, r24	; 0x804221 <_ZL20green_led_configured>
				timer_red_blink_inhibit = timer_green_blink_inhibit = false; /* Enable timer LED control */
    4fb6:	10 92 0d 42 	sts	0x420D, r1	; 0x80420d <_ZL25timer_green_blink_inhibit>
    4fba:	10 92 0c 42 	sts	0x420C, r1	; 0x80420c <_ZL23timer_red_blink_inhibit>
			}
			break;
    4fbe:	97 c0       	rjmp	.+302    	; 0x50ee <_ZN4leds5blinkE7Blink_tb+0x4a2>
			
			case LEDS_RED_AND_GREEN_BLINK_SLOW:
			{
				green_blink_on_period = SLOW_ON;
    4fc0:	89 e1       	ldi	r24, 0x19	; 25
    4fc2:	90 e0       	ldi	r25, 0x00	; 0
    4fc4:	80 93 18 42 	sts	0x4218, r24	; 0x804218 <_ZL21green_blink_on_period>
    4fc8:	90 93 19 42 	sts	0x4219, r25	; 0x804219 <_ZL21green_blink_on_period+0x1>
				green_blink_off_period = SLOW_OFF;	
    4fcc:	84 ef       	ldi	r24, 0xF4	; 244
    4fce:	91 e0       	ldi	r25, 0x01	; 1
    4fd0:	80 93 1a 42 	sts	0x421A, r24	; 0x80421a <_ZL22green_blink_off_period>
    4fd4:	90 93 1b 42 	sts	0x421B, r25	; 0x80421b <_ZL22green_blink_off_period+0x1>
				green_blink_count = green_blink_on_period;			
    4fd8:	80 91 18 42 	lds	r24, 0x4218	; 0x804218 <_ZL21green_blink_on_period>
    4fdc:	90 91 19 42 	lds	r25, 0x4219	; 0x804219 <_ZL21green_blink_on_period+0x1>
    4fe0:	80 93 1e 42 	sts	0x421E, r24	; 0x80421e <_ZL17green_blink_count>
    4fe4:	90 93 1f 42 	sts	0x421F, r25	; 0x80421f <_ZL17green_blink_count+0x1>
				red_blink_on_period = SLOW_ON;
    4fe8:	89 e1       	ldi	r24, 0x19	; 25
    4fea:	90 e0       	ldi	r25, 0x00	; 0
    4fec:	80 93 14 42 	sts	0x4214, r24	; 0x804214 <_ZL19red_blink_on_period>
    4ff0:	90 93 15 42 	sts	0x4215, r25	; 0x804215 <_ZL19red_blink_on_period+0x1>
				red_blink_off_period = SLOW_OFF;
    4ff4:	84 ef       	ldi	r24, 0xF4	; 244
    4ff6:	91 e0       	ldi	r25, 0x01	; 1
    4ff8:	80 93 16 42 	sts	0x4216, r24	; 0x804216 <_ZL20red_blink_off_period>
    4ffc:	90 93 17 42 	sts	0x4217, r25	; 0x804217 <_ZL20red_blink_off_period+0x1>
				red_blink_count = red_blink_on_period;				
    5000:	80 91 14 42 	lds	r24, 0x4214	; 0x804214 <_ZL19red_blink_on_period>
    5004:	90 91 15 42 	lds	r25, 0x4215	; 0x804215 <_ZL19red_blink_on_period+0x1>
    5008:	80 93 1c 42 	sts	0x421C, r24	; 0x80421c <_ZL15red_blink_count>
    500c:	90 93 1d 42 	sts	0x421D, r25	; 0x80421d <_ZL15red_blink_count+0x1>
				red_led_configured = true;			
    5010:	81 e0       	ldi	r24, 0x01	; 1
    5012:	80 93 20 42 	sts	0x4220, r24	; 0x804220 <_ZL18red_led_configured>
				green_led_configured = true;			
    5016:	81 e0       	ldi	r24, 0x01	; 1
    5018:	80 93 21 42 	sts	0x4221, r24	; 0x804221 <_ZL20green_led_configured>
				timer_red_blink_inhibit = timer_green_blink_inhibit = false; /* Enable timer LED control */
    501c:	10 92 0d 42 	sts	0x420D, r1	; 0x80420d <_ZL25timer_green_blink_inhibit>
    5020:	10 92 0c 42 	sts	0x420C, r1	; 0x80420c <_ZL23timer_red_blink_inhibit>
			}
			break;
    5024:	64 c0       	rjmp	.+200    	; 0x50ee <_ZN4leds5blinkE7Blink_tb+0x4a2>
			
			case LEDS_RED_AND_GREEN_BLINK_FAST:
			{
				green_blink_on_period = FAST_ON;
    5026:	89 e1       	ldi	r24, 0x19	; 25
    5028:	90 e0       	ldi	r25, 0x00	; 0
    502a:	80 93 18 42 	sts	0x4218, r24	; 0x804218 <_ZL21green_blink_on_period>
    502e:	90 93 19 42 	sts	0x4219, r25	; 0x804219 <_ZL21green_blink_on_period+0x1>
				green_blink_off_period = FAST_OFF;	
    5032:	89 e1       	ldi	r24, 0x19	; 25
    5034:	90 e0       	ldi	r25, 0x00	; 0
    5036:	80 93 1a 42 	sts	0x421A, r24	; 0x80421a <_ZL22green_blink_off_period>
    503a:	90 93 1b 42 	sts	0x421B, r25	; 0x80421b <_ZL22green_blink_off_period+0x1>
				green_blink_count = green_blink_on_period;			
    503e:	80 91 18 42 	lds	r24, 0x4218	; 0x804218 <_ZL21green_blink_on_period>
    5042:	90 91 19 42 	lds	r25, 0x4219	; 0x804219 <_ZL21green_blink_on_period+0x1>
    5046:	80 93 1e 42 	sts	0x421E, r24	; 0x80421e <_ZL17green_blink_count>
    504a:	90 93 1f 42 	sts	0x421F, r25	; 0x80421f <_ZL17green_blink_count+0x1>
				red_blink_on_period = FAST_ON;
    504e:	89 e1       	ldi	r24, 0x19	; 25
    5050:	90 e0       	ldi	r25, 0x00	; 0
    5052:	80 93 14 42 	sts	0x4214, r24	; 0x804214 <_ZL19red_blink_on_period>
    5056:	90 93 15 42 	sts	0x4215, r25	; 0x804215 <_ZL19red_blink_on_period+0x1>
				red_blink_off_period = FAST_OFF;
    505a:	89 e1       	ldi	r24, 0x19	; 25
    505c:	90 e0       	ldi	r25, 0x00	; 0
    505e:	80 93 16 42 	sts	0x4216, r24	; 0x804216 <_ZL20red_blink_off_period>
    5062:	90 93 17 42 	sts	0x4217, r25	; 0x804217 <_ZL20red_blink_off_period+0x1>
				red_blink_count = red_blink_on_period;				
    5066:	80 91 14 42 	lds	r24, 0x4214	; 0x804214 <_ZL19red_blink_on_period>
    506a:	90 91 15 42 	lds	r25, 0x4215	; 0x804215 <_ZL19red_blink_on_period+0x1>
    506e:	80 93 1c 42 	sts	0x421C, r24	; 0x80421c <_ZL15red_blink_count>
    5072:	90 93 1d 42 	sts	0x421D, r25	; 0x80421d <_ZL15red_blink_count+0x1>
				red_led_configured = true;			
    5076:	81 e0       	ldi	r24, 0x01	; 1
    5078:	80 93 20 42 	sts	0x4220, r24	; 0x804220 <_ZL18red_led_configured>
				green_led_configured = true;			
    507c:	81 e0       	ldi	r24, 0x01	; 1
    507e:	80 93 21 42 	sts	0x4221, r24	; 0x804221 <_ZL20green_led_configured>
				timer_red_blink_inhibit = timer_green_blink_inhibit = false; /* Enable timer LED control */
    5082:	10 92 0d 42 	sts	0x420D, r1	; 0x80420d <_ZL25timer_green_blink_inhibit>
    5086:	10 92 0c 42 	sts	0x420C, r1	; 0x80420c <_ZL23timer_red_blink_inhibit>
			}
			break;
    508a:	31 c0       	rjmp	.+98     	; 0x50ee <_ZN4leds5blinkE7Blink_tb+0x4a2>
			
			case LEDS_RED_ON_CONSTANT:
			{
				red_blink_on_period = SLOW_ON;
    508c:	89 e1       	ldi	r24, 0x19	; 25
    508e:	90 e0       	ldi	r25, 0x00	; 0
    5090:	80 93 14 42 	sts	0x4214, r24	; 0x804214 <_ZL19red_blink_on_period>
    5094:	90 93 15 42 	sts	0x4215, r25	; 0x804215 <_ZL19red_blink_on_period+0x1>
				red_blink_off_period = 0;
    5098:	10 92 16 42 	sts	0x4216, r1	; 0x804216 <_ZL20red_blink_off_period>
    509c:	10 92 17 42 	sts	0x4217, r1	; 0x804217 <_ZL20red_blink_off_period+0x1>
				red_blink_count = red_blink_on_period;
    50a0:	80 91 14 42 	lds	r24, 0x4214	; 0x804214 <_ZL19red_blink_on_period>
    50a4:	90 91 15 42 	lds	r25, 0x4215	; 0x804215 <_ZL19red_blink_on_period+0x1>
    50a8:	80 93 1c 42 	sts	0x421C, r24	; 0x80421c <_ZL15red_blink_count>
    50ac:	90 93 1d 42 	sts	0x421D, r25	; 0x80421d <_ZL15red_blink_count+0x1>
				red_led_configured = true;			
    50b0:	81 e0       	ldi	r24, 0x01	; 1
    50b2:	80 93 20 42 	sts	0x4220, r24	; 0x804220 <_ZL18red_led_configured>
				timer_red_blink_inhibit = false; /* Enable timer LED control */
    50b6:	10 92 0c 42 	sts	0x420C, r1	; 0x80420c <_ZL23timer_red_blink_inhibit>
			}
			break;
    50ba:	19 c0       	rjmp	.+50     	; 0x50ee <_ZN4leds5blinkE7Blink_tb+0x4a2>
			
			case LEDS_GREEN_ON_CONSTANT:
			{
				green_blink_on_period = SLOW_ON;
    50bc:	89 e1       	ldi	r24, 0x19	; 25
    50be:	90 e0       	ldi	r25, 0x00	; 0
    50c0:	80 93 18 42 	sts	0x4218, r24	; 0x804218 <_ZL21green_blink_on_period>
    50c4:	90 93 19 42 	sts	0x4219, r25	; 0x804219 <_ZL21green_blink_on_period+0x1>
				green_blink_off_period = 0;
    50c8:	10 92 1a 42 	sts	0x421A, r1	; 0x80421a <_ZL22green_blink_off_period>
    50cc:	10 92 1b 42 	sts	0x421B, r1	; 0x80421b <_ZL22green_blink_off_period+0x1>
				green_blink_count = green_blink_on_period;
    50d0:	80 91 18 42 	lds	r24, 0x4218	; 0x804218 <_ZL21green_blink_on_period>
    50d4:	90 91 19 42 	lds	r25, 0x4219	; 0x804219 <_ZL21green_blink_on_period+0x1>
    50d8:	80 93 1e 42 	sts	0x421E, r24	; 0x80421e <_ZL17green_blink_count>
    50dc:	90 93 1f 42 	sts	0x421F, r25	; 0x80421f <_ZL17green_blink_count+0x1>
				green_led_configured = true;			
    50e0:	81 e0       	ldi	r24, 0x01	; 1
    50e2:	80 93 21 42 	sts	0x4221, r24	; 0x804221 <_ZL20green_led_configured>
				timer_green_blink_inhibit = false; /* Enable timer LED control */
    50e6:	10 92 0d 42 	sts	0x420D, r1	; 0x80420d <_ZL25timer_green_blink_inhibit>
			}
			break;
    50ea:	01 c0       	rjmp	.+2      	; 0x50ee <_ZN4leds5blinkE7Blink_tb+0x4a2>
			
			default:
			{
				
			}
			break;
    50ec:	00 00       	nop
		}
		
		TCB3.INTCTRL |= TCB_CAPT_bm;   /* Capture or Timeout: enabled */
    50ee:	80 e3       	ldi	r24, 0x30	; 48
    50f0:	9b e0       	ldi	r25, 0x0B	; 11
    50f2:	fc 01       	movw	r30, r24
    50f4:	25 81       	ldd	r18, Z+5	; 0x05
    50f6:	80 e3       	ldi	r24, 0x30	; 48
    50f8:	9b e0       	ldi	r25, 0x0B	; 11
    50fa:	21 60       	ori	r18, 0x01	; 1
    50fc:	fc 01       	movw	r30, r24
    50fe:	25 83       	std	Z+5, r18	; 0x05
	}
	
	if(isRed)
    5100:	80 91 22 42 	lds	r24, 0x4222	; 0x804222 <isRed>
    5104:	88 23       	and	r24, r24
    5106:	39 f0       	breq	.+14     	; 0x5116 <_ZN4leds5blinkE7Blink_tb+0x4ca>
	{
		lastRedBlinkSetting = blinkMode;
    5108:	8b 81       	ldd	r24, Y+3	; 0x03
    510a:	9c 81       	ldd	r25, Y+4	; 0x04
    510c:	80 93 0e 42 	sts	0x420E, r24	; 0x80420e <_ZL19lastRedBlinkSetting>
    5110:	90 93 0f 42 	sts	0x420F, r25	; 0x80420f <_ZL19lastRedBlinkSetting+0x1>
    5114:	13 c0       	rjmp	.+38     	; 0x513c <_ZN4leds5blinkE7Blink_tb+0x4f0>
	}
	else if(isGreen)
    5116:	80 91 23 42 	lds	r24, 0x4223	; 0x804223 <isGreen>
    511a:	88 23       	and	r24, r24
    511c:	39 f0       	breq	.+14     	; 0x512c <_ZN4leds5blinkE7Blink_tb+0x4e0>
	{
		lastGreenBlinkSetting = blinkMode;
    511e:	8b 81       	ldd	r24, Y+3	; 0x03
    5120:	9c 81       	ldd	r25, Y+4	; 0x04
    5122:	80 93 10 42 	sts	0x4210, r24	; 0x804210 <_ZL21lastGreenBlinkSetting>
    5126:	90 93 11 42 	sts	0x4211, r25	; 0x804211 <_ZL21lastGreenBlinkSetting+0x1>
    512a:	08 c0       	rjmp	.+16     	; 0x513c <_ZN4leds5blinkE7Blink_tb+0x4f0>
	}
	else
	{
		lastBothBlinkSetting = blinkMode;
    512c:	8b 81       	ldd	r24, Y+3	; 0x03
    512e:	9c 81       	ldd	r25, Y+4	; 0x04
    5130:	80 93 12 42 	sts	0x4212, r24	; 0x804212 <_ZL20lastBothBlinkSetting>
    5134:	90 93 13 42 	sts	0x4213, r25	; 0x804213 <_ZL20lastBothBlinkSetting+0x1>
    5138:	01 c0       	rjmp	.+2      	; 0x513c <_ZN4leds5blinkE7Blink_tb+0x4f0>
	if(resetTimeout)
	{
		led_timeout_count = LED_TIMEOUT_DELAY;
	}
	
	if(!led_timeout_count && (blinkMode != LEDS_OFF)) return;
    513a:	00 00       	nop
	}
	else
	{
		lastBothBlinkSetting = blinkMode;
	}
}
    513c:	25 96       	adiw	r28, 0x05	; 5
    513e:	cd bf       	out	0x3d, r28	; 61
    5140:	de bf       	out	0x3e, r29	; 62
    5142:	df 91       	pop	r29
    5144:	cf 91       	pop	r28
    5146:	08 95       	ret

00005148 <protected_write_io>:
	PUBLIC_FUNCTION(protected_write_io)

#if defined(__GNUC__)
  
#ifdef RAMPZ
	out     _SFR_IO_ADDR(RAMPZ), r1         // Clear bits 23:16 of Z
    5148:	1b be       	out	0x3b, r1	; 59
#endif
	movw    r30, r24                // Load addr into Z
    514a:	fc 01       	movw	r30, r24
	out     CCP, r22                // Start CCP handshake
    514c:	64 bf       	out	0x34, r22	; 52
	st      Z, r20                  // Write value to I/O register
    514e:	40 83       	st	Z, r20
	ret                             // Return to caller
    5150:	08 95       	ret

00005152 <ccp_write_io>:
}

uint16_t RTC_get_cal(void)
{
	return RTC.PER;
}
    5152:	cf 93       	push	r28
    5154:	df 93       	push	r29
    5156:	00 d0       	rcall	.+0      	; 0x5158 <ccp_write_io+0x6>
    5158:	1f 92       	push	r1
    515a:	cd b7       	in	r28, 0x3d	; 61
    515c:	de b7       	in	r29, 0x3e	; 62
    515e:	89 83       	std	Y+1, r24	; 0x01
    5160:	9a 83       	std	Y+2, r25	; 0x02
    5162:	6b 83       	std	Y+3, r22	; 0x03
    5164:	89 81       	ldd	r24, Y+1	; 0x01
    5166:	9a 81       	ldd	r25, Y+2	; 0x02
    5168:	4b 81       	ldd	r20, Y+3	; 0x03
    516a:	68 ed       	ldi	r22, 0xD8	; 216
    516c:	0e 94 a4 28 	call	0x5148	; 0x5148 <protected_write_io>
    5170:	00 00       	nop
    5172:	23 96       	adiw	r28, 0x03	; 3
    5174:	cd bf       	out	0x3d, r28	; 61
    5176:	de bf       	out	0x3e, r29	; 62
    5178:	df 91       	pop	r29
    517a:	cf 91       	pop	r28
    517c:	08 95       	ret

0000517e <_Z8RTC_initj>:
    517e:	cf 93       	push	r28
    5180:	df 93       	push	r29
    5182:	cd b7       	in	r28, 0x3d	; 61
    5184:	de b7       	in	r29, 0x3e	; 62
    5186:	28 97       	sbiw	r28, 0x08	; 8
    5188:	cd bf       	out	0x3d, r28	; 61
    518a:	de bf       	out	0x3e, r29	; 62
    518c:	8f 83       	std	Y+7, r24	; 0x07
    518e:	98 87       	std	Y+8, r25	; 0x08
    5190:	8f 81       	ldd	r24, Y+7	; 0x07
    5192:	98 85       	ldd	r25, Y+8	; 0x08
    5194:	80 93 2a 40 	sts	0x402A, r24	; 0x80402a <g_clock_calibration>
    5198:	90 93 2b 40 	sts	0x402B, r25	; 0x80402b <g_clock_calibration+0x1>
    519c:	60 e0       	ldi	r22, 0x00	; 0
    519e:	70 e0       	ldi	r23, 0x00	; 0
    51a0:	cb 01       	movw	r24, r22
    51a2:	0e 94 a9 34 	call	0x6952	; 0x6952 <util_delay_ms>
    51a6:	80 e4       	ldi	r24, 0x40	; 64
    51a8:	91 e0       	ldi	r25, 0x01	; 1
    51aa:	fc 01       	movw	r30, r24
    51ac:	81 81       	ldd	r24, Z+1	; 0x01
    51ae:	88 23       	and	r24, r24
    51b0:	51 f0       	breq	.+20     	; 0x51c6 <_Z8RTC_initj+0x48>
    51b2:	64 ef       	ldi	r22, 0xF4	; 244
    51b4:	71 e0       	ldi	r23, 0x01	; 1
    51b6:	80 e0       	ldi	r24, 0x00	; 0
    51b8:	90 e0       	ldi	r25, 0x00	; 0
    51ba:	0e 94 a9 34 	call	0x6952	; 0x6952 <util_delay_ms>
    51be:	88 23       	and	r24, r24
    51c0:	11 f0       	breq	.+4      	; 0x51c6 <_Z8RTC_initj+0x48>
    51c2:	81 e0       	ldi	r24, 0x01	; 1
    51c4:	01 c0       	rjmp	.+2      	; 0x51c8 <_Z8RTC_initj+0x4a>
    51c6:	80 e0       	ldi	r24, 0x00	; 0
    51c8:	88 23       	and	r24, r24
    51ca:	09 f0       	breq	.+2      	; 0x51ce <_Z8RTC_initj+0x50>
    51cc:	ec cf       	rjmp	.-40     	; 0x51a6 <_Z8RTC_initj+0x28>
    51ce:	80 e4       	ldi	r24, 0x40	; 64
    51d0:	91 e0       	ldi	r25, 0x01	; 1
    51d2:	fc 01       	movw	r30, r24
    51d4:	14 86       	std	Z+12, r1	; 0x0c
    51d6:	15 86       	std	Z+13, r1	; 0x0d
    51d8:	80 e4       	ldi	r24, 0x40	; 64
    51da:	91 e0       	ldi	r25, 0x01	; 1
    51dc:	fc 01       	movw	r30, r24
    51de:	10 86       	std	Z+8, r1	; 0x08
    51e0:	11 86       	std	Z+9, r1	; 0x09
    51e2:	20 e4       	ldi	r18, 0x40	; 64
    51e4:	31 e0       	ldi	r19, 0x01	; 1
    51e6:	8f 81       	ldd	r24, Y+7	; 0x07
    51e8:	98 85       	ldd	r25, Y+8	; 0x08
    51ea:	89 83       	std	Y+1, r24	; 0x01
    51ec:	9a 83       	std	Y+2, r25	; 0x02
    51ee:	85 ef       	ldi	r24, 0xF5	; 245
    51f0:	9f e7       	ldi	r25, 0x7F	; 127
    51f2:	8b 83       	std	Y+3, r24	; 0x03
    51f4:	9c 83       	std	Y+4, r25	; 0x04
    51f6:	89 e0       	ldi	r24, 0x09	; 9
    51f8:	90 e8       	ldi	r25, 0x80	; 128
    51fa:	8d 83       	std	Y+5, r24	; 0x05
    51fc:	9e 83       	std	Y+6, r25	; 0x06
    51fe:	49 81       	ldd	r20, Y+1	; 0x01
    5200:	5a 81       	ldd	r21, Y+2	; 0x02
    5202:	8d 81       	ldd	r24, Y+5	; 0x05
    5204:	9e 81       	ldd	r25, Y+6	; 0x06
    5206:	84 17       	cp	r24, r20
    5208:	95 07       	cpc	r25, r21
    520a:	68 f0       	brcs	.+26     	; 0x5226 <_Z8RTC_initj+0xa8>
    520c:	49 81       	ldd	r20, Y+1	; 0x01
    520e:	5a 81       	ldd	r21, Y+2	; 0x02
    5210:	8b 81       	ldd	r24, Y+3	; 0x03
    5212:	9c 81       	ldd	r25, Y+4	; 0x04
    5214:	48 17       	cp	r20, r24
    5216:	59 07       	cpc	r21, r25
    5218:	18 f4       	brcc	.+6      	; 0x5220 <_Z8RTC_initj+0xa2>
    521a:	8b 81       	ldd	r24, Y+3	; 0x03
    521c:	9c 81       	ldd	r25, Y+4	; 0x04
    521e:	05 c0       	rjmp	.+10     	; 0x522a <_Z8RTC_initj+0xac>
    5220:	89 81       	ldd	r24, Y+1	; 0x01
    5222:	9a 81       	ldd	r25, Y+2	; 0x02
    5224:	02 c0       	rjmp	.+4      	; 0x522a <_Z8RTC_initj+0xac>
    5226:	8d 81       	ldd	r24, Y+5	; 0x05
    5228:	9e 81       	ldd	r25, Y+6	; 0x06
    522a:	f9 01       	movw	r30, r18
    522c:	82 87       	std	Z+10, r24	; 0x0a
    522e:	93 87       	std	Z+11, r25	; 0x0b
    5230:	80 e4       	ldi	r24, 0x40	; 64
    5232:	91 e0       	ldi	r25, 0x01	; 1
    5234:	22 e0       	ldi	r18, 0x02	; 2
    5236:	fc 01       	movw	r30, r24
    5238:	27 83       	std	Z+7, r18	; 0x07
    523a:	80 e4       	ldi	r24, 0x40	; 64
    523c:	91 e0       	ldi	r25, 0x01	; 1
    523e:	21 e0       	ldi	r18, 0x01	; 1
    5240:	fc 01       	movw	r30, r24
    5242:	22 83       	std	Z+2, r18	; 0x02
    5244:	80 e4       	ldi	r24, 0x40	; 64
    5246:	91 e0       	ldi	r25, 0x01	; 1
    5248:	21 e8       	ldi	r18, 0x81	; 129
    524a:	fc 01       	movw	r30, r24
    524c:	20 83       	st	Z, r18
    524e:	80 e4       	ldi	r24, 0x40	; 64
    5250:	91 e0       	ldi	r25, 0x01	; 1
    5252:	21 e0       	ldi	r18, 0x01	; 1
    5254:	fc 01       	movw	r30, r24
    5256:	25 83       	std	Z+5, r18	; 0x05
    5258:	60 e0       	ldi	r22, 0x00	; 0
    525a:	70 e0       	ldi	r23, 0x00	; 0
    525c:	cb 01       	movw	r24, r22
    525e:	0e 94 a9 34 	call	0x6952	; 0x6952 <util_delay_ms>
    5262:	80 e4       	ldi	r24, 0x40	; 64
    5264:	91 e0       	ldi	r25, 0x01	; 1
    5266:	fc 01       	movw	r30, r24
    5268:	80 89       	ldd	r24, Z+16	; 0x10
    526a:	88 23       	and	r24, r24
    526c:	51 f0       	breq	.+20     	; 0x5282 <_Z8RTC_initj+0x104>
    526e:	64 ef       	ldi	r22, 0xF4	; 244
    5270:	71 e0       	ldi	r23, 0x01	; 1
    5272:	80 e0       	ldi	r24, 0x00	; 0
    5274:	90 e0       	ldi	r25, 0x00	; 0
    5276:	0e 94 a9 34 	call	0x6952	; 0x6952 <util_delay_ms>
    527a:	88 23       	and	r24, r24
    527c:	11 f0       	breq	.+4      	; 0x5282 <_Z8RTC_initj+0x104>
    527e:	81 e0       	ldi	r24, 0x01	; 1
    5280:	01 c0       	rjmp	.+2      	; 0x5284 <_Z8RTC_initj+0x106>
    5282:	80 e0       	ldi	r24, 0x00	; 0
    5284:	88 23       	and	r24, r24
    5286:	09 f0       	breq	.+2      	; 0x528a <_Z8RTC_initj+0x10c>
    5288:	ec cf       	rjmp	.-40     	; 0x5262 <_Z8RTC_initj+0xe4>
    528a:	80 e4       	ldi	r24, 0x40	; 64
    528c:	91 e0       	ldi	r25, 0x01	; 1
    528e:	fc 01       	movw	r30, r24
    5290:	12 8a       	std	Z+18, r1	; 0x12
    5292:	00 00       	nop
    5294:	28 96       	adiw	r28, 0x08	; 8
    5296:	cd bf       	out	0x3d, r28	; 61
    5298:	de bf       	out	0x3e, r29	; 62
    529a:	df 91       	pop	r29
    529c:	cf 91       	pop	r28
    529e:	08 95       	ret

000052a0 <_Z15RTC_init_backupv>:

void RTC_init_backup(void)
{
    52a0:	cf 93       	push	r28
    52a2:	df 93       	push	r29
    52a4:	cd b7       	in	r28, 0x3d	; 61
    52a6:	de b7       	in	r29, 0x3e	; 62
	RTC_init_backup(EEPROM_CLOCK_CALIBRATION_DEFAULT);
    52a8:	8f ef       	ldi	r24, 0xFF	; 255
    52aa:	9f e7       	ldi	r25, 0x7F	; 127
    52ac:	0e 94 5c 29 	call	0x52b8	; 0x52b8 <_Z15RTC_init_backupj>
}
    52b0:	00 00       	nop
    52b2:	df 91       	pop	r29
    52b4:	cf 91       	pop	r28
    52b6:	08 95       	ret

000052b8 <_Z15RTC_init_backupj>:

void RTC_init_backup(uint16_t cal)
{
    52b8:	cf 93       	push	r28
    52ba:	df 93       	push	r29
    52bc:	cd b7       	in	r28, 0x3d	; 61
    52be:	de b7       	in	r29, 0x3e	; 62
    52c0:	28 97       	sbiw	r28, 0x08	; 8
    52c2:	cd bf       	out	0x3d, r28	; 61
    52c4:	de bf       	out	0x3e, r29	; 62
    52c6:	8f 83       	std	Y+7, r24	; 0x07
    52c8:	98 87       	std	Y+8, r25	; 0x08
	g_clock_calibration = cal;
    52ca:	8f 81       	ldd	r24, Y+7	; 0x07
    52cc:	98 85       	ldd	r25, Y+8	; 0x08
    52ce:	80 93 2a 40 	sts	0x402A, r24	; 0x80402a <g_clock_calibration>
    52d2:	90 93 2b 40 	sts	0x402B, r25	; 0x80402b <g_clock_calibration+0x1>
	use_backup_clock = true;
    52d6:	81 e0       	ldi	r24, 0x01	; 1
    52d8:	80 93 25 42 	sts	0x4225, r24	; 0x804225 <_ZL16use_backup_clock>
	
	ccp_write_io((void *)&(CLKCTRL.OSC32KCTRLA),
    52dc:	60 e8       	ldi	r22, 0x80	; 128
    52de:	88 e7       	ldi	r24, 0x78	; 120
    52e0:	90 e0       	ldi	r25, 0x00	; 0
    52e2:	0e 94 a9 28 	call	0x5152	; 0x5152 <ccp_write_io>
	 		1 << CLKCTRL_RUNSTDBY_bp /* Run standby: enabled */);
	
	util_delay_ms(0);
    52e6:	60 e0       	ldi	r22, 0x00	; 0
    52e8:	70 e0       	ldi	r23, 0x00	; 0
    52ea:	cb 01       	movw	r24, r22
    52ec:	0e 94 a9 34 	call	0x6952	; 0x6952 <util_delay_ms>
    while ((RTC.STATUS > 0) && util_delay_ms(500)) { /* Wait for all registers to be synchronized */
    52f0:	80 e4       	ldi	r24, 0x40	; 64
    52f2:	91 e0       	ldi	r25, 0x01	; 1
    52f4:	fc 01       	movw	r30, r24
    52f6:	81 81       	ldd	r24, Z+1	; 0x01
    52f8:	88 23       	and	r24, r24
    52fa:	51 f0       	breq	.+20     	; 0x5310 <_Z15RTC_init_backupj+0x58>
    52fc:	64 ef       	ldi	r22, 0xF4	; 244
    52fe:	71 e0       	ldi	r23, 0x01	; 1
    5300:	80 e0       	ldi	r24, 0x00	; 0
    5302:	90 e0       	ldi	r25, 0x00	; 0
    5304:	0e 94 a9 34 	call	0x6952	; 0x6952 <util_delay_ms>
    5308:	88 23       	and	r24, r24
    530a:	11 f0       	breq	.+4      	; 0x5310 <_Z15RTC_init_backupj+0x58>
    530c:	81 e0       	ldi	r24, 0x01	; 1
    530e:	01 c0       	rjmp	.+2      	; 0x5312 <_Z15RTC_init_backupj+0x5a>
    5310:	80 e0       	ldi	r24, 0x00	; 0
    5312:	88 23       	and	r24, r24
    5314:	09 f0       	breq	.+2      	; 0x5318 <_Z15RTC_init_backupj+0x60>
    5316:	ec cf       	rjmp	.-40     	; 0x52f0 <_Z15RTC_init_backupj+0x38>
    }
    //Compare 
    RTC.CMP = 0x00;
    5318:	80 e4       	ldi	r24, 0x40	; 64
    531a:	91 e0       	ldi	r25, 0x01	; 1
    531c:	fc 01       	movw	r30, r24
    531e:	14 86       	std	Z+12, r1	; 0x0c
    5320:	15 86       	std	Z+13, r1	; 0x0d

    //Count
    RTC.CNT = 0x00;
    5322:	80 e4       	ldi	r24, 0x40	; 64
    5324:	91 e0       	ldi	r25, 0x01	; 1
    5326:	fc 01       	movw	r30, r24
    5328:	10 86       	std	Z+8, r1	; 0x08
    532a:	11 86       	std	Z+9, r1	; 0x09

    //Period
    RTC.PER = CLAMP(32757u, cal, 32777u);
    532c:	20 e4       	ldi	r18, 0x40	; 64
    532e:	31 e0       	ldi	r19, 0x01	; 1
    5330:	8f 81       	ldd	r24, Y+7	; 0x07
    5332:	98 85       	ldd	r25, Y+8	; 0x08
    5334:	89 83       	std	Y+1, r24	; 0x01
    5336:	9a 83       	std	Y+2, r25	; 0x02
    5338:	85 ef       	ldi	r24, 0xF5	; 245
    533a:	9f e7       	ldi	r25, 0x7F	; 127
    533c:	8b 83       	std	Y+3, r24	; 0x03
    533e:	9c 83       	std	Y+4, r25	; 0x04
    5340:	89 e0       	ldi	r24, 0x09	; 9
    5342:	90 e8       	ldi	r25, 0x80	; 128
    5344:	8d 83       	std	Y+5, r24	; 0x05
    5346:	9e 83       	std	Y+6, r25	; 0x06
    5348:	49 81       	ldd	r20, Y+1	; 0x01
    534a:	5a 81       	ldd	r21, Y+2	; 0x02
    534c:	8d 81       	ldd	r24, Y+5	; 0x05
    534e:	9e 81       	ldd	r25, Y+6	; 0x06
    5350:	84 17       	cp	r24, r20
    5352:	95 07       	cpc	r25, r21
    5354:	68 f0       	brcs	.+26     	; 0x5370 <_Z15RTC_init_backupj+0xb8>
    5356:	49 81       	ldd	r20, Y+1	; 0x01
    5358:	5a 81       	ldd	r21, Y+2	; 0x02
    535a:	8b 81       	ldd	r24, Y+3	; 0x03
    535c:	9c 81       	ldd	r25, Y+4	; 0x04
    535e:	48 17       	cp	r20, r24
    5360:	59 07       	cpc	r21, r25
    5362:	18 f4       	brcc	.+6      	; 0x536a <_Z15RTC_init_backupj+0xb2>
    5364:	8b 81       	ldd	r24, Y+3	; 0x03
    5366:	9c 81       	ldd	r25, Y+4	; 0x04
    5368:	05 c0       	rjmp	.+10     	; 0x5374 <_Z15RTC_init_backupj+0xbc>
    536a:	89 81       	ldd	r24, Y+1	; 0x01
    536c:	9a 81       	ldd	r25, Y+2	; 0x02
    536e:	02 c0       	rjmp	.+4      	; 0x5374 <_Z15RTC_init_backupj+0xbc>
    5370:	8d 81       	ldd	r24, Y+5	; 0x05
    5372:	9e 81       	ldd	r25, Y+6	; 0x06
    5374:	f9 01       	movw	r30, r18
    5376:	82 87       	std	Z+10, r24	; 0x0a
    5378:	93 87       	std	Z+11, r25	; 0x0b

    //Clock selection: OSC32K
    RTC.CLKSEL = 0x00;
    537a:	80 e4       	ldi	r24, 0x40	; 64
    537c:	91 e0       	ldi	r25, 0x01	; 1
    537e:	fc 01       	movw	r30, r24
    5380:	17 82       	std	Z+7, r1	; 0x07

    //CMP disabled; OVF enabled; 
    RTC.INTCTRL = 0x01;
    5382:	80 e4       	ldi	r24, 0x40	; 64
    5384:	91 e0       	ldi	r25, 0x01	; 1
    5386:	21 e0       	ldi	r18, 0x01	; 1
    5388:	fc 01       	movw	r30, r24
    538a:	22 83       	std	Z+2, r18	; 0x02

    //RUNSTDBY disabled; PRESCALER DIV1; CORREN disabled; RTCEN enabled; 
    RTC.CTRLA = 0x81;
    538c:	80 e4       	ldi	r24, 0x40	; 64
    538e:	91 e0       	ldi	r25, 0x01	; 1
    5390:	21 e8       	ldi	r18, 0x81	; 129
    5392:	fc 01       	movw	r30, r24
    5394:	20 83       	st	Z, r18
	RTC.DBGCTRL = 0x01; /* Run in debug mode */
    5396:	80 e4       	ldi	r24, 0x40	; 64
    5398:	91 e0       	ldi	r25, 0x01	; 1
    539a:	21 e0       	ldi	r18, 0x01	; 1
    539c:	fc 01       	movw	r30, r24
    539e:	25 83       	std	Z+5, r18	; 0x05
    
	util_delay_ms(0);
    53a0:	60 e0       	ldi	r22, 0x00	; 0
    53a2:	70 e0       	ldi	r23, 0x00	; 0
    53a4:	cb 01       	movw	r24, r22
    53a6:	0e 94 a9 34 	call	0x6952	; 0x6952 <util_delay_ms>
    while ((RTC.PITCTRLA > 0) && util_delay_ms(500)) { /* Wait for all registers to be synchronized */
    53aa:	80 e4       	ldi	r24, 0x40	; 64
    53ac:	91 e0       	ldi	r25, 0x01	; 1
    53ae:	fc 01       	movw	r30, r24
    53b0:	80 89       	ldd	r24, Z+16	; 0x10
    53b2:	88 23       	and	r24, r24
    53b4:	51 f0       	breq	.+20     	; 0x53ca <_Z15RTC_init_backupj+0x112>
    53b6:	64 ef       	ldi	r22, 0xF4	; 244
    53b8:	71 e0       	ldi	r23, 0x01	; 1
    53ba:	80 e0       	ldi	r24, 0x00	; 0
    53bc:	90 e0       	ldi	r25, 0x00	; 0
    53be:	0e 94 a9 34 	call	0x6952	; 0x6952 <util_delay_ms>
    53c2:	88 23       	and	r24, r24
    53c4:	11 f0       	breq	.+4      	; 0x53ca <_Z15RTC_init_backupj+0x112>
    53c6:	81 e0       	ldi	r24, 0x01	; 1
    53c8:	01 c0       	rjmp	.+2      	; 0x53cc <_Z15RTC_init_backupj+0x114>
    53ca:	80 e0       	ldi	r24, 0x00	; 0
    53cc:	88 23       	and	r24, r24
    53ce:	09 f0       	breq	.+2      	; 0x53d2 <_Z15RTC_init_backupj+0x11a>
    53d0:	ec cf       	rjmp	.-40     	; 0x53aa <_Z15RTC_init_backupj+0xf2>
    }
    //PI disabled; 
    RTC.PITINTCTRL = 0x00;    
    53d2:	80 e4       	ldi	r24, 0x40	; 64
    53d4:	91 e0       	ldi	r25, 0x01	; 1
    53d6:	fc 01       	movw	r30, r24
    53d8:	12 8a       	std	Z+18, r1	; 0x12
}
    53da:	00 00       	nop
    53dc:	28 96       	adiw	r28, 0x08	; 8
    53de:	cd bf       	out	0x3d, r28	; 61
    53e0:	de bf       	out	0x3e, r29	; 62
    53e2:	df 91       	pop	r29
    53e4:	cf 91       	pop	r28
    53e6:	08 95       	ret

000053e8 <_Z19RTC_set_calibrationj>:

void RTC_set_calibration(uint16_t cal)
{
    53e8:	cf 93       	push	r28
    53ea:	df 93       	push	r29
    53ec:	00 d0       	rcall	.+0      	; 0x53ee <_Z19RTC_set_calibrationj+0x6>
    53ee:	cd b7       	in	r28, 0x3d	; 61
    53f0:	de b7       	in	r29, 0x3e	; 62
    53f2:	89 83       	std	Y+1, r24	; 0x01
    53f4:	9a 83       	std	Y+2, r25	; 0x02
	if(use_backup_clock)
    53f6:	80 91 25 42 	lds	r24, 0x4225	; 0x804225 <_ZL16use_backup_clock>
    53fa:	88 23       	and	r24, r24
    53fc:	29 f0       	breq	.+10     	; 0x5408 <_Z19RTC_set_calibrationj+0x20>
	{
		RTC_init_backup(cal);
    53fe:	89 81       	ldd	r24, Y+1	; 0x01
    5400:	9a 81       	ldd	r25, Y+2	; 0x02
    5402:	0e 94 5c 29 	call	0x52b8	; 0x52b8 <_Z15RTC_init_backupj>
    5406:	04 c0       	rjmp	.+8      	; 0x5410 <_Z19RTC_set_calibrationj+0x28>
	}
	else
	{
		RTC_init(cal);
    5408:	89 81       	ldd	r24, Y+1	; 0x01
    540a:	9a 81       	ldd	r25, Y+2	; 0x02
    540c:	0e 94 bf 28 	call	0x517e	; 0x517e <_Z8RTC_initj>
	}
	
	g_clock_calibration = cal;
    5410:	89 81       	ldd	r24, Y+1	; 0x01
    5412:	9a 81       	ldd	r25, Y+2	; 0x02
    5414:	80 93 2a 40 	sts	0x402A, r24	; 0x80402a <g_clock_calibration>
    5418:	90 93 2b 40 	sts	0x402B, r25	; 0x80402b <g_clock_calibration+0x1>
	g_ee_mgr.updateEEPROMVar(Clock_calibration, (void*)&g_clock_calibration);
    541c:	4a e2       	ldi	r20, 0x2A	; 42
    541e:	50 e4       	ldi	r21, 0x40	; 64
    5420:	65 e0       	ldi	r22, 0x05	; 5
    5422:	71 e0       	ldi	r23, 0x01	; 1
    5424:	86 e9       	ldi	r24, 0x96	; 150
    5426:	91 e4       	ldi	r25, 0x41	; 65
    5428:	0e 94 55 1e 	call	0x3caa	; 0x3caa <_ZN13EepromManager15updateEEPROMVarE8EE_var_tPv>
}
    542c:	00 00       	nop
    542e:	0f 90       	pop	r0
    5430:	0f 90       	pop	r0
    5432:	df 91       	pop	r29
    5434:	cf 91       	pop	r28
    5436:	08 95       	ret

00005438 <si5351_init_for_quad>:

		reg_val |= (r_div << SI5351_OUTPUT_CLK_DIV_SHIFT);

		data[0] = reg_val;
		return(si5351_write_bulk(reg_addr, data, 1));
	}
    5438:	cf 93       	push	r28
    543a:	df 93       	push	r29
    543c:	cd b7       	in	r28, 0x3d	; 61
    543e:	de b7       	in	r29, 0x3e	; 62
    5440:	e8 97       	sbiw	r28, 0x38	; 56
    5442:	cd bf       	out	0x3d, r28	; 61
    5444:	de bf       	out	0x3e, r29	; 62
    5446:	6d ab       	std	Y+53, r22	; 0x35
    5448:	7e ab       	std	Y+54, r23	; 0x36
    544a:	8f ab       	std	Y+55, r24	; 0x37
    544c:	98 af       	std	Y+56, r25	; 0x38
    544e:	19 82       	std	Y+1, r1	; 0x01
    5450:	1a 82       	std	Y+2, r1	; 0x02
    5452:	1b 82       	std	Y+3, r1	; 0x03
    5454:	1c 82       	std	Y+4, r1	; 0x04
    5456:	81 e0       	ldi	r24, 0x01	; 1
    5458:	90 e0       	ldi	r25, 0x00	; 0
    545a:	8d 83       	std	Y+5, r24	; 0x05
    545c:	9e 83       	std	Y+6, r25	; 0x06
    545e:	90 91 37 42 	lds	r25, 0x4237	; 0x804237 <g_si5351_initialized>
    5462:	81 e0       	ldi	r24, 0x01	; 1
    5464:	89 27       	eor	r24, r25
    5466:	88 23       	and	r24, r24
    5468:	19 f0       	breq	.+6      	; 0x5470 <si5351_init_for_quad+0x38>
    546a:	80 e0       	ldi	r24, 0x00	; 0
    546c:	90 e0       	ldi	r25, 0x00	; 0
    546e:	56 c3       	rjmp	.+1708   	; 0x5b1c <si5351_init_for_quad+0x6e4>
    5470:	8f ef       	ldi	r24, 0xFF	; 255
    5472:	8b ab       	std	Y+51, r24	; 0x33
    5474:	ce 01       	movw	r24, r28
    5476:	c3 96       	adiw	r24, 0x33	; 51
    5478:	41 e0       	ldi	r20, 0x01	; 1
    547a:	bc 01       	movw	r22, r24
    547c:	83 e0       	ldi	r24, 0x03	; 3
    547e:	0e 94 d2 31 	call	0x63a4	; 0x63a4 <_Z17si5351_write_bulkhPhh>
    5482:	8d a9       	ldd	r24, Y+53	; 0x35
    5484:	9e a9       	ldd	r25, Y+54	; 0x36
    5486:	af a9       	ldd	r26, Y+55	; 0x37
    5488:	b8 ad       	ldd	r27, Y+56	; 0x38
    548a:	80 93 2b 42 	sts	0x422B, r24	; 0x80422b <_ZL9clock_out>
    548e:	90 93 2c 42 	sts	0x422C, r25	; 0x80422c <_ZL9clock_out+0x1>
    5492:	a0 93 2d 42 	sts	0x422D, r26	; 0x80422d <_ZL9clock_out+0x2>
    5496:	b0 93 2e 42 	sts	0x422E, r27	; 0x80422e <_ZL9clock_out+0x3>
    549a:	8d a9       	ldd	r24, Y+53	; 0x35
    549c:	9e a9       	ldd	r25, Y+54	; 0x36
    549e:	af a9       	ldd	r26, Y+55	; 0x37
    54a0:	b8 ad       	ldd	r27, Y+56	; 0x38
    54a2:	80 93 2f 42 	sts	0x422F, r24	; 0x80422f <_ZL9clock_out+0x4>
    54a6:	90 93 30 42 	sts	0x4230, r25	; 0x804230 <_ZL9clock_out+0x5>
    54aa:	a0 93 31 42 	sts	0x4231, r26	; 0x804231 <_ZL9clock_out+0x6>
    54ae:	b0 93 32 42 	sts	0x4232, r27	; 0x804232 <_ZL9clock_out+0x7>
    54b2:	8c e8       	ldi	r24, 0x8C	; 140
    54b4:	8b ab       	std	Y+51, r24	; 0x33
    54b6:	ce 01       	movw	r24, r28
    54b8:	c3 96       	adiw	r24, 0x33	; 51
    54ba:	41 e0       	ldi	r20, 0x01	; 1
    54bc:	bc 01       	movw	r22, r24
    54be:	80 e1       	ldi	r24, 0x10	; 16
    54c0:	0e 94 d2 31 	call	0x63a4	; 0x63a4 <_Z17si5351_write_bulkhPhh>
    54c4:	ce 01       	movw	r24, r28
    54c6:	c3 96       	adiw	r24, 0x33	; 51
    54c8:	41 e0       	ldi	r20, 0x01	; 1
    54ca:	bc 01       	movw	r22, r24
    54cc:	81 e1       	ldi	r24, 0x11	; 17
    54ce:	0e 94 d2 31 	call	0x63a4	; 0x63a4 <_Z17si5351_write_bulkhPhh>
    54d2:	ce 01       	movw	r24, r28
    54d4:	c3 96       	adiw	r24, 0x33	; 51
    54d6:	41 e0       	ldi	r20, 0x01	; 1
    54d8:	bc 01       	movw	r22, r24
    54da:	82 e1       	ldi	r24, 0x12	; 18
    54dc:	0e 94 d2 31 	call	0x63a4	; 0x63a4 <_Z17si5351_write_bulkhPhh>
    54e0:	ce 01       	movw	r24, r28
    54e2:	c3 96       	adiw	r24, 0x33	; 51
    54e4:	41 e0       	ldi	r20, 0x01	; 1
    54e6:	bc 01       	movw	r22, r24
    54e8:	83 e1       	ldi	r24, 0x13	; 19
    54ea:	0e 94 d2 31 	call	0x63a4	; 0x63a4 <_Z17si5351_write_bulkhPhh>
    54ee:	ce 01       	movw	r24, r28
    54f0:	c3 96       	adiw	r24, 0x33	; 51
    54f2:	41 e0       	ldi	r20, 0x01	; 1
    54f4:	bc 01       	movw	r22, r24
    54f6:	84 e1       	ldi	r24, 0x14	; 20
    54f8:	0e 94 d2 31 	call	0x63a4	; 0x63a4 <_Z17si5351_write_bulkhPhh>
    54fc:	ce 01       	movw	r24, r28
    54fe:	c3 96       	adiw	r24, 0x33	; 51
    5500:	41 e0       	ldi	r20, 0x01	; 1
    5502:	bc 01       	movw	r22, r24
    5504:	85 e1       	ldi	r24, 0x15	; 21
    5506:	0e 94 d2 31 	call	0x63a4	; 0x63a4 <_Z17si5351_write_bulkhPhh>
    550a:	ce 01       	movw	r24, r28
    550c:	c3 96       	adiw	r24, 0x33	; 51
    550e:	41 e0       	ldi	r20, 0x01	; 1
    5510:	bc 01       	movw	r22, r24
    5512:	86 e1       	ldi	r24, 0x16	; 22
    5514:	0e 94 d2 31 	call	0x63a4	; 0x63a4 <_Z17si5351_write_bulkhPhh>
    5518:	ce 01       	movw	r24, r28
    551a:	c3 96       	adiw	r24, 0x33	; 51
    551c:	41 e0       	ldi	r20, 0x01	; 1
    551e:	bc 01       	movw	r22, r24
    5520:	87 e1       	ldi	r24, 0x17	; 23
    5522:	0e 94 d2 31 	call	0x63a4	; 0x63a4 <_Z17si5351_write_bulkhPhh>
    5526:	2d a9       	ldd	r18, Y+53	; 0x35
    5528:	3e a9       	ldd	r19, Y+54	; 0x36
    552a:	4f a9       	ldd	r20, Y+55	; 0x37
    552c:	58 ad       	ldd	r21, Y+56	; 0x38
    552e:	8e e7       	ldi	r24, 0x7E	; 126
    5530:	90 e0       	ldi	r25, 0x00	; 0
    5532:	dc 01       	movw	r26, r24
    5534:	0e 94 25 3b 	call	0x764a	; 0x764a <__muluhisi3>
    5538:	dc 01       	movw	r26, r24
    553a:	cb 01       	movw	r24, r22
    553c:	89 83       	std	Y+1, r24	; 0x01
    553e:	9a 83       	std	Y+2, r25	; 0x02
    5540:	ab 83       	std	Y+3, r26	; 0x03
    5542:	bc 83       	std	Y+4, r27	; 0x04
    5544:	8d 81       	ldd	r24, Y+5	; 0x05
    5546:	9e 81       	ldd	r25, Y+6	; 0x06
    5548:	bc 01       	movw	r22, r24
    554a:	80 e0       	ldi	r24, 0x00	; 0
    554c:	90 e0       	ldi	r25, 0x00	; 0
    554e:	0e 94 36 32 	call	0x646c	; 0x646c <_Z31set_multisynth_registers_source12si5351_clock10si5351_pll>
    5552:	88 23       	and	r24, r24
    5554:	19 f0       	breq	.+6      	; 0x555c <si5351_init_for_quad+0x124>
    5556:	8b ef       	ldi	r24, 0xFB	; 251
    5558:	90 e0       	ldi	r25, 0x00	; 0
    555a:	e0 c2       	rjmp	.+1472   	; 0x5b1c <si5351_init_for_quad+0x6e4>
    555c:	8d 81       	ldd	r24, Y+5	; 0x05
    555e:	9e 81       	ldd	r25, Y+6	; 0x06
    5560:	bc 01       	movw	r22, r24
    5562:	81 e0       	ldi	r24, 0x01	; 1
    5564:	90 e0       	ldi	r25, 0x00	; 0
    5566:	0e 94 36 32 	call	0x646c	; 0x646c <_Z31set_multisynth_registers_source12si5351_clock10si5351_pll>
    556a:	88 23       	and	r24, r24
    556c:	19 f0       	breq	.+6      	; 0x5574 <si5351_init_for_quad+0x13c>
    556e:	8b ef       	ldi	r24, 0xFB	; 251
    5570:	90 e0       	ldi	r25, 0x00	; 0
    5572:	d4 c2       	rjmp	.+1448   	; 0x5b1c <si5351_init_for_quad+0x6e4>
    5574:	8e e7       	ldi	r24, 0x7E	; 126
    5576:	90 e0       	ldi	r25, 0x00	; 0
    5578:	a0 e0       	ldi	r26, 0x00	; 0
    557a:	b0 e0       	ldi	r27, 0x00	; 0
    557c:	8f 83       	std	Y+7, r24	; 0x07
    557e:	98 87       	std	Y+8, r25	; 0x08
    5580:	a9 87       	std	Y+9, r26	; 0x09
    5582:	ba 87       	std	Y+10, r27	; 0x0a
    5584:	19 a2       	std	Y+33, r1	; 0x21
    5586:	1a a2       	std	Y+34, r1	; 0x22
    5588:	1b a2       	std	Y+35, r1	; 0x23
    558a:	1c a2       	std	Y+36, r1	; 0x24
    558c:	1d a2       	std	Y+37, r1	; 0x25
    558e:	1e a2       	std	Y+38, r1	; 0x26
    5590:	1f a2       	std	Y+39, r1	; 0x27
    5592:	18 a6       	std	Y+40, r1	; 0x28
    5594:	89 a1       	ldd	r24, Y+33	; 0x21
    5596:	9a a1       	ldd	r25, Y+34	; 0x22
    5598:	ab a1       	ldd	r26, Y+35	; 0x23
    559a:	bc a1       	ldd	r27, Y+36	; 0x24
    559c:	88 0f       	add	r24, r24
    559e:	99 1f       	adc	r25, r25
    55a0:	aa 1f       	adc	r26, r26
    55a2:	bb 1f       	adc	r27, r27
    55a4:	88 0f       	add	r24, r24
    55a6:	99 1f       	adc	r25, r25
    55a8:	aa 1f       	adc	r26, r26
    55aa:	bb 1f       	adc	r27, r27
    55ac:	88 0f       	add	r24, r24
    55ae:	99 1f       	adc	r25, r25
    55b0:	aa 1f       	adc	r26, r26
    55b2:	bb 1f       	adc	r27, r27
    55b4:	88 0f       	add	r24, r24
    55b6:	99 1f       	adc	r25, r25
    55b8:	aa 1f       	adc	r26, r26
    55ba:	bb 1f       	adc	r27, r27
    55bc:	88 0f       	add	r24, r24
    55be:	99 1f       	adc	r25, r25
    55c0:	aa 1f       	adc	r26, r26
    55c2:	bb 1f       	adc	r27, r27
    55c4:	88 0f       	add	r24, r24
    55c6:	99 1f       	adc	r25, r25
    55c8:	aa 1f       	adc	r26, r26
    55ca:	bb 1f       	adc	r27, r27
    55cc:	88 0f       	add	r24, r24
    55ce:	99 1f       	adc	r25, r25
    55d0:	aa 1f       	adc	r26, r26
    55d2:	bb 1f       	adc	r27, r27
    55d4:	8b 87       	std	Y+11, r24	; 0x0b
    55d6:	9c 87       	std	Y+12, r25	; 0x0c
    55d8:	ad 87       	std	Y+13, r26	; 0x0d
    55da:	be 87       	std	Y+14, r27	; 0x0e
    55dc:	1f 86       	std	Y+15, r1	; 0x0f
    55de:	18 8a       	std	Y+16, r1	; 0x10
    55e0:	19 8a       	std	Y+17, r1	; 0x11
    55e2:	1a 8a       	std	Y+18, r1	; 0x12
    55e4:	8f 81       	ldd	r24, Y+7	; 0x07
    55e6:	98 85       	ldd	r25, Y+8	; 0x08
    55e8:	a9 85       	ldd	r26, Y+9	; 0x09
    55ea:	ba 85       	ldd	r27, Y+10	; 0x0a
    55ec:	88 0f       	add	r24, r24
    55ee:	99 1f       	adc	r25, r25
    55f0:	aa 1f       	adc	r26, r26
    55f2:	bb 1f       	adc	r27, r27
    55f4:	88 0f       	add	r24, r24
    55f6:	99 1f       	adc	r25, r25
    55f8:	aa 1f       	adc	r26, r26
    55fa:	bb 1f       	adc	r27, r27
    55fc:	88 0f       	add	r24, r24
    55fe:	99 1f       	adc	r25, r25
    5600:	aa 1f       	adc	r26, r26
    5602:	bb 1f       	adc	r27, r27
    5604:	88 0f       	add	r24, r24
    5606:	99 1f       	adc	r25, r25
    5608:	aa 1f       	adc	r26, r26
    560a:	bb 1f       	adc	r27, r27
    560c:	88 0f       	add	r24, r24
    560e:	99 1f       	adc	r25, r25
    5610:	aa 1f       	adc	r26, r26
    5612:	bb 1f       	adc	r27, r27
    5614:	88 0f       	add	r24, r24
    5616:	99 1f       	adc	r25, r25
    5618:	aa 1f       	adc	r26, r26
    561a:	bb 1f       	adc	r27, r27
    561c:	88 0f       	add	r24, r24
    561e:	99 1f       	adc	r25, r25
    5620:	aa 1f       	adc	r26, r26
    5622:	bb 1f       	adc	r27, r27
    5624:	9c 01       	movw	r18, r24
    5626:	ad 01       	movw	r20, r26
    5628:	8f 85       	ldd	r24, Y+15	; 0x0f
    562a:	98 89       	ldd	r25, Y+16	; 0x10
    562c:	a9 89       	ldd	r26, Y+17	; 0x11
    562e:	ba 89       	ldd	r27, Y+18	; 0x12
    5630:	82 0f       	add	r24, r18
    5632:	93 1f       	adc	r25, r19
    5634:	a4 1f       	adc	r26, r20
    5636:	b5 1f       	adc	r27, r21
    5638:	92 50       	subi	r25, 0x02	; 2
    563a:	a1 09       	sbc	r26, r1
    563c:	b1 09       	sbc	r27, r1
    563e:	8d 8b       	std	Y+21, r24	; 0x15
    5640:	9e 8b       	std	Y+22, r25	; 0x16
    5642:	af 8b       	std	Y+23, r26	; 0x17
    5644:	b8 8f       	std	Y+24, r27	; 0x18
    5646:	2d a1       	ldd	r18, Y+37	; 0x25
    5648:	3e a1       	ldd	r19, Y+38	; 0x26
    564a:	4f a1       	ldd	r20, Y+39	; 0x27
    564c:	58 a5       	ldd	r21, Y+40	; 0x28
    564e:	8f 85       	ldd	r24, Y+15	; 0x0f
    5650:	98 89       	ldd	r25, Y+16	; 0x10
    5652:	a9 89       	ldd	r26, Y+17	; 0x11
    5654:	ba 89       	ldd	r27, Y+18	; 0x12
    5656:	bc 01       	movw	r22, r24
    5658:	cd 01       	movw	r24, r26
    565a:	0e 94 c7 3a 	call	0x758e	; 0x758e <__mulsi3>
    565e:	9b 01       	movw	r18, r22
    5660:	ac 01       	movw	r20, r24
    5662:	8b 85       	ldd	r24, Y+11	; 0x0b
    5664:	9c 85       	ldd	r25, Y+12	; 0x0c
    5666:	ad 85       	ldd	r26, Y+13	; 0x0d
    5668:	be 85       	ldd	r27, Y+14	; 0x0e
    566a:	82 1b       	sub	r24, r18
    566c:	93 0b       	sbc	r25, r19
    566e:	a4 0b       	sbc	r26, r20
    5670:	b5 0b       	sbc	r27, r21
    5672:	89 8f       	std	Y+25, r24	; 0x19
    5674:	9a 8f       	std	Y+26, r25	; 0x1a
    5676:	ab 8f       	std	Y+27, r26	; 0x1b
    5678:	bc 8f       	std	Y+28, r27	; 0x1c
    567a:	8d a1       	ldd	r24, Y+37	; 0x25
    567c:	9e a1       	ldd	r25, Y+38	; 0x26
    567e:	af a1       	ldd	r26, Y+39	; 0x27
    5680:	b8 a5       	ldd	r27, Y+40	; 0x28
    5682:	8d 8f       	std	Y+29, r24	; 0x1d
    5684:	9e 8f       	std	Y+30, r25	; 0x1e
    5686:	af 8f       	std	Y+31, r26	; 0x1f
    5688:	b8 a3       	std	Y+32, r27	; 0x20
    568a:	1b 8a       	std	Y+19, r1	; 0x13
    568c:	8b 89       	ldd	r24, Y+19	; 0x13
    568e:	91 e0       	ldi	r25, 0x01	; 1
    5690:	98 0f       	add	r25, r24
    5692:	9b 8b       	std	Y+19, r25	; 0x13
    5694:	88 2f       	mov	r24, r24
    5696:	90 e0       	ldi	r25, 0x00	; 0
    5698:	4e 8d       	ldd	r20, Y+30	; 0x1e
    569a:	9e 01       	movw	r18, r28
    569c:	27 5d       	subi	r18, 0xD7	; 215
    569e:	3f 4f       	sbci	r19, 0xFF	; 255
    56a0:	82 0f       	add	r24, r18
    56a2:	93 1f       	adc	r25, r19
    56a4:	fc 01       	movw	r30, r24
    56a6:	40 83       	st	Z, r20
    56a8:	8b 89       	ldd	r24, Y+19	; 0x13
    56aa:	91 e0       	ldi	r25, 0x01	; 1
    56ac:	98 0f       	add	r25, r24
    56ae:	9b 8b       	std	Y+19, r25	; 0x13
    56b0:	88 2f       	mov	r24, r24
    56b2:	90 e0       	ldi	r25, 0x00	; 0
    56b4:	4d 8d       	ldd	r20, Y+29	; 0x1d
    56b6:	9e 01       	movw	r18, r28
    56b8:	27 5d       	subi	r18, 0xD7	; 215
    56ba:	3f 4f       	sbci	r19, 0xFF	; 255
    56bc:	82 0f       	add	r24, r18
    56be:	93 1f       	adc	r25, r19
    56c0:	fc 01       	movw	r30, r24
    56c2:	40 83       	st	Z, r20
    56c4:	2f 89       	ldd	r18, Y+23	; 0x17
    56c6:	8b 89       	ldd	r24, Y+19	; 0x13
    56c8:	91 e0       	ldi	r25, 0x01	; 1
    56ca:	98 0f       	add	r25, r24
    56cc:	9b 8b       	std	Y+19, r25	; 0x13
    56ce:	88 2f       	mov	r24, r24
    56d0:	90 e0       	ldi	r25, 0x00	; 0
    56d2:	42 2f       	mov	r20, r18
    56d4:	43 70       	andi	r20, 0x03	; 3
    56d6:	9e 01       	movw	r18, r28
    56d8:	27 5d       	subi	r18, 0xD7	; 215
    56da:	3f 4f       	sbci	r19, 0xFF	; 255
    56dc:	82 0f       	add	r24, r18
    56de:	93 1f       	adc	r25, r19
    56e0:	fc 01       	movw	r30, r24
    56e2:	40 83       	st	Z, r20
    56e4:	8b 89       	ldd	r24, Y+19	; 0x13
    56e6:	91 e0       	ldi	r25, 0x01	; 1
    56e8:	98 0f       	add	r25, r24
    56ea:	9b 8b       	std	Y+19, r25	; 0x13
    56ec:	88 2f       	mov	r24, r24
    56ee:	90 e0       	ldi	r25, 0x00	; 0
    56f0:	4e 89       	ldd	r20, Y+22	; 0x16
    56f2:	9e 01       	movw	r18, r28
    56f4:	27 5d       	subi	r18, 0xD7	; 215
    56f6:	3f 4f       	sbci	r19, 0xFF	; 255
    56f8:	82 0f       	add	r24, r18
    56fa:	93 1f       	adc	r25, r19
    56fc:	fc 01       	movw	r30, r24
    56fe:	40 83       	st	Z, r20
    5700:	8b 89       	ldd	r24, Y+19	; 0x13
    5702:	91 e0       	ldi	r25, 0x01	; 1
    5704:	98 0f       	add	r25, r24
    5706:	9b 8b       	std	Y+19, r25	; 0x13
    5708:	88 2f       	mov	r24, r24
    570a:	90 e0       	ldi	r25, 0x00	; 0
    570c:	4d 89       	ldd	r20, Y+21	; 0x15
    570e:	9e 01       	movw	r18, r28
    5710:	27 5d       	subi	r18, 0xD7	; 215
    5712:	3f 4f       	sbci	r19, 0xFF	; 255
    5714:	82 0f       	add	r24, r18
    5716:	93 1f       	adc	r25, r19
    5718:	fc 01       	movw	r30, r24
    571a:	40 83       	st	Z, r20
    571c:	2f 8d       	ldd	r18, Y+31	; 0x1f
    571e:	8b 89       	ldd	r24, Y+19	; 0x13
    5720:	88 2f       	mov	r24, r24
    5722:	90 e0       	ldi	r25, 0x00	; 0
    5724:	42 2f       	mov	r20, r18
    5726:	42 95       	swap	r20
    5728:	40 7f       	andi	r20, 0xF0	; 240
    572a:	9e 01       	movw	r18, r28
    572c:	27 5d       	subi	r18, 0xD7	; 215
    572e:	3f 4f       	sbci	r19, 0xFF	; 255
    5730:	82 0f       	add	r24, r18
    5732:	93 1f       	adc	r25, r19
    5734:	fc 01       	movw	r30, r24
    5736:	40 83       	st	Z, r20
    5738:	4b 89       	ldd	r20, Y+19	; 0x13
    573a:	81 e0       	ldi	r24, 0x01	; 1
    573c:	84 0f       	add	r24, r20
    573e:	8b 8b       	std	Y+19, r24	; 0x13
    5740:	84 2f       	mov	r24, r20
    5742:	90 e0       	ldi	r25, 0x00	; 0
    5744:	9e 01       	movw	r18, r28
    5746:	27 5d       	subi	r18, 0xD7	; 215
    5748:	3f 4f       	sbci	r19, 0xFF	; 255
    574a:	82 0f       	add	r24, r18
    574c:	93 1f       	adc	r25, r19
    574e:	fc 01       	movw	r30, r24
    5750:	30 81       	ld	r19, Z
    5752:	8b 8d       	ldd	r24, Y+27	; 0x1b
    5754:	28 2f       	mov	r18, r24
    5756:	2f 70       	andi	r18, 0x0F	; 15
    5758:	84 2f       	mov	r24, r20
    575a:	90 e0       	ldi	r25, 0x00	; 0
    575c:	43 2f       	mov	r20, r19
    575e:	42 0f       	add	r20, r18
    5760:	9e 01       	movw	r18, r28
    5762:	27 5d       	subi	r18, 0xD7	; 215
    5764:	3f 4f       	sbci	r19, 0xFF	; 255
    5766:	82 0f       	add	r24, r18
    5768:	93 1f       	adc	r25, r19
    576a:	fc 01       	movw	r30, r24
    576c:	40 83       	st	Z, r20
    576e:	8b 89       	ldd	r24, Y+19	; 0x13
    5770:	91 e0       	ldi	r25, 0x01	; 1
    5772:	98 0f       	add	r25, r24
    5774:	9b 8b       	std	Y+19, r25	; 0x13
    5776:	88 2f       	mov	r24, r24
    5778:	90 e0       	ldi	r25, 0x00	; 0
    577a:	4a 8d       	ldd	r20, Y+26	; 0x1a
    577c:	9e 01       	movw	r18, r28
    577e:	27 5d       	subi	r18, 0xD7	; 215
    5780:	3f 4f       	sbci	r19, 0xFF	; 255
    5782:	82 0f       	add	r24, r18
    5784:	93 1f       	adc	r25, r19
    5786:	fc 01       	movw	r30, r24
    5788:	40 83       	st	Z, r20
    578a:	8b 89       	ldd	r24, Y+19	; 0x13
    578c:	91 e0       	ldi	r25, 0x01	; 1
    578e:	98 0f       	add	r25, r24
    5790:	9b 8b       	std	Y+19, r25	; 0x13
    5792:	88 2f       	mov	r24, r24
    5794:	90 e0       	ldi	r25, 0x00	; 0
    5796:	49 8d       	ldd	r20, Y+25	; 0x19
    5798:	9e 01       	movw	r18, r28
    579a:	27 5d       	subi	r18, 0xD7	; 215
    579c:	3f 4f       	sbci	r19, 0xFF	; 255
    579e:	82 0f       	add	r24, r18
    57a0:	93 1f       	adc	r25, r19
    57a2:	fc 01       	movw	r30, r24
    57a4:	40 83       	st	Z, r20
    57a6:	ce 01       	movw	r24, r28
    57a8:	89 96       	adiw	r24, 0x29	; 41
    57aa:	4b 89       	ldd	r20, Y+19	; 0x13
    57ac:	bc 01       	movw	r22, r24
    57ae:	8a e2       	ldi	r24, 0x2A	; 42
    57b0:	0e 94 d2 31 	call	0x63a4	; 0x63a4 <_Z17si5351_write_bulkhPhh>
    57b4:	88 23       	and	r24, r24
    57b6:	19 f0       	breq	.+6      	; 0x57be <si5351_init_for_quad+0x386>
    57b8:	8b ef       	ldi	r24, 0xFB	; 251
    57ba:	90 e0       	ldi	r25, 0x00	; 0
    57bc:	af c1       	rjmp	.+862    	; 0x5b1c <si5351_init_for_quad+0x6e4>
    57be:	ce 01       	movw	r24, r28
    57c0:	89 96       	adiw	r24, 0x29	; 41
    57c2:	4b 89       	ldd	r20, Y+19	; 0x13
    57c4:	bc 01       	movw	r22, r24
    57c6:	82 e3       	ldi	r24, 0x32	; 50
    57c8:	0e 94 d2 31 	call	0x63a4	; 0x63a4 <_Z17si5351_write_bulkhPhh>
    57cc:	88 23       	and	r24, r24
    57ce:	19 f0       	breq	.+6      	; 0x57d6 <si5351_init_for_quad+0x39e>
    57d0:	8b ef       	ldi	r24, 0xFB	; 251
    57d2:	90 e0       	ldi	r25, 0x00	; 0
    57d4:	a3 c1       	rjmp	.+838    	; 0x5b1c <si5351_init_for_quad+0x6e4>
    57d6:	20 91 2c 40 	lds	r18, 0x402C	; 0x80402c <_ZL11g_xtal_freq>
    57da:	30 91 2d 40 	lds	r19, 0x402D	; 0x80402d <_ZL11g_xtal_freq+0x1>
    57de:	40 91 2e 40 	lds	r20, 0x402E	; 0x80402e <_ZL11g_xtal_freq+0x2>
    57e2:	50 91 2f 40 	lds	r21, 0x402F	; 0x80402f <_ZL11g_xtal_freq+0x3>
    57e6:	89 81       	ldd	r24, Y+1	; 0x01
    57e8:	9a 81       	ldd	r25, Y+2	; 0x02
    57ea:	ab 81       	ldd	r26, Y+3	; 0x03
    57ec:	bc 81       	ldd	r27, Y+4	; 0x04
    57ee:	bc 01       	movw	r22, r24
    57f0:	cd 01       	movw	r24, r26
    57f2:	0e 94 eb 3a 	call	0x75d6	; 0x75d6 <__udivmodsi4>
    57f6:	da 01       	movw	r26, r20
    57f8:	c9 01       	movw	r24, r18
    57fa:	8f 83       	std	Y+7, r24	; 0x07
    57fc:	98 87       	std	Y+8, r25	; 0x08
    57fe:	a9 87       	std	Y+9, r26	; 0x09
    5800:	ba 87       	std	Y+10, r27	; 0x0a
    5802:	20 91 2c 40 	lds	r18, 0x402C	; 0x80402c <_ZL11g_xtal_freq>
    5806:	30 91 2d 40 	lds	r19, 0x402D	; 0x80402d <_ZL11g_xtal_freq+0x1>
    580a:	40 91 2e 40 	lds	r20, 0x402E	; 0x80402e <_ZL11g_xtal_freq+0x2>
    580e:	50 91 2f 40 	lds	r21, 0x402F	; 0x80402f <_ZL11g_xtal_freq+0x3>
    5812:	89 81       	ldd	r24, Y+1	; 0x01
    5814:	9a 81       	ldd	r25, Y+2	; 0x02
    5816:	ab 81       	ldd	r26, Y+3	; 0x03
    5818:	bc 81       	ldd	r27, Y+4	; 0x04
    581a:	bc 01       	movw	r22, r24
    581c:	cd 01       	movw	r24, r26
    581e:	0e 94 eb 3a 	call	0x75d6	; 0x75d6 <__udivmodsi4>
    5822:	dc 01       	movw	r26, r24
    5824:	cb 01       	movw	r24, r22
    5826:	89 a3       	std	Y+33, r24	; 0x21
    5828:	9a a3       	std	Y+34, r25	; 0x22
    582a:	ab a3       	std	Y+35, r26	; 0x23
    582c:	bc a3       	std	Y+36, r27	; 0x24
    582e:	80 91 2c 40 	lds	r24, 0x402C	; 0x80402c <_ZL11g_xtal_freq>
    5832:	90 91 2d 40 	lds	r25, 0x402D	; 0x80402d <_ZL11g_xtal_freq+0x1>
    5836:	a0 91 2e 40 	lds	r26, 0x402E	; 0x80402e <_ZL11g_xtal_freq+0x2>
    583a:	b0 91 2f 40 	lds	r27, 0x402F	; 0x80402f <_ZL11g_xtal_freq+0x3>
    583e:	8d a3       	std	Y+37, r24	; 0x25
    5840:	9e a3       	std	Y+38, r25	; 0x26
    5842:	af a3       	std	Y+39, r26	; 0x27
    5844:	b8 a7       	std	Y+40, r27	; 0x28
    5846:	9e 01       	movw	r18, r28
    5848:	2b 5d       	subi	r18, 0xDB	; 219
    584a:	3f 4f       	sbci	r19, 0xFF	; 255
    584c:	ce 01       	movw	r24, r28
    584e:	81 96       	adiw	r24, 0x21	; 33
    5850:	b9 01       	movw	r22, r18
    5852:	0e 94 1f 31 	call	0x623e	; 0x623e <_Z13reduce_by_gcdPmS_>
    5856:	89 a1       	ldd	r24, Y+33	; 0x21
    5858:	9a a1       	ldd	r25, Y+34	; 0x22
    585a:	ab a1       	ldd	r26, Y+35	; 0x23
    585c:	bc a1       	ldd	r27, Y+36	; 0x24
    585e:	88 0f       	add	r24, r24
    5860:	99 1f       	adc	r25, r25
    5862:	aa 1f       	adc	r26, r26
    5864:	bb 1f       	adc	r27, r27
    5866:	88 0f       	add	r24, r24
    5868:	99 1f       	adc	r25, r25
    586a:	aa 1f       	adc	r26, r26
    586c:	bb 1f       	adc	r27, r27
    586e:	88 0f       	add	r24, r24
    5870:	99 1f       	adc	r25, r25
    5872:	aa 1f       	adc	r26, r26
    5874:	bb 1f       	adc	r27, r27
    5876:	88 0f       	add	r24, r24
    5878:	99 1f       	adc	r25, r25
    587a:	aa 1f       	adc	r26, r26
    587c:	bb 1f       	adc	r27, r27
    587e:	88 0f       	add	r24, r24
    5880:	99 1f       	adc	r25, r25
    5882:	aa 1f       	adc	r26, r26
    5884:	bb 1f       	adc	r27, r27
    5886:	88 0f       	add	r24, r24
    5888:	99 1f       	adc	r25, r25
    588a:	aa 1f       	adc	r26, r26
    588c:	bb 1f       	adc	r27, r27
    588e:	88 0f       	add	r24, r24
    5890:	99 1f       	adc	r25, r25
    5892:	aa 1f       	adc	r26, r26
    5894:	bb 1f       	adc	r27, r27
    5896:	8b 87       	std	Y+11, r24	; 0x0b
    5898:	9c 87       	std	Y+12, r25	; 0x0c
    589a:	ad 87       	std	Y+13, r26	; 0x0d
    589c:	be 87       	std	Y+14, r27	; 0x0e
    589e:	2d a1       	ldd	r18, Y+37	; 0x25
    58a0:	3e a1       	ldd	r19, Y+38	; 0x26
    58a2:	4f a1       	ldd	r20, Y+39	; 0x27
    58a4:	58 a5       	ldd	r21, Y+40	; 0x28
    58a6:	8b 85       	ldd	r24, Y+11	; 0x0b
    58a8:	9c 85       	ldd	r25, Y+12	; 0x0c
    58aa:	ad 85       	ldd	r26, Y+13	; 0x0d
    58ac:	be 85       	ldd	r27, Y+14	; 0x0e
    58ae:	bc 01       	movw	r22, r24
    58b0:	cd 01       	movw	r24, r26
    58b2:	0e 94 eb 3a 	call	0x75d6	; 0x75d6 <__udivmodsi4>
    58b6:	da 01       	movw	r26, r20
    58b8:	c9 01       	movw	r24, r18
    58ba:	8f 87       	std	Y+15, r24	; 0x0f
    58bc:	98 8b       	std	Y+16, r25	; 0x10
    58be:	a9 8b       	std	Y+17, r26	; 0x11
    58c0:	ba 8b       	std	Y+18, r27	; 0x12
    58c2:	8f 81       	ldd	r24, Y+7	; 0x07
    58c4:	98 85       	ldd	r25, Y+8	; 0x08
    58c6:	a9 85       	ldd	r26, Y+9	; 0x09
    58c8:	ba 85       	ldd	r27, Y+10	; 0x0a
    58ca:	88 0f       	add	r24, r24
    58cc:	99 1f       	adc	r25, r25
    58ce:	aa 1f       	adc	r26, r26
    58d0:	bb 1f       	adc	r27, r27
    58d2:	88 0f       	add	r24, r24
    58d4:	99 1f       	adc	r25, r25
    58d6:	aa 1f       	adc	r26, r26
    58d8:	bb 1f       	adc	r27, r27
    58da:	88 0f       	add	r24, r24
    58dc:	99 1f       	adc	r25, r25
    58de:	aa 1f       	adc	r26, r26
    58e0:	bb 1f       	adc	r27, r27
    58e2:	88 0f       	add	r24, r24
    58e4:	99 1f       	adc	r25, r25
    58e6:	aa 1f       	adc	r26, r26
    58e8:	bb 1f       	adc	r27, r27
    58ea:	88 0f       	add	r24, r24
    58ec:	99 1f       	adc	r25, r25
    58ee:	aa 1f       	adc	r26, r26
    58f0:	bb 1f       	adc	r27, r27
    58f2:	88 0f       	add	r24, r24
    58f4:	99 1f       	adc	r25, r25
    58f6:	aa 1f       	adc	r26, r26
    58f8:	bb 1f       	adc	r27, r27
    58fa:	88 0f       	add	r24, r24
    58fc:	99 1f       	adc	r25, r25
    58fe:	aa 1f       	adc	r26, r26
    5900:	bb 1f       	adc	r27, r27
    5902:	9c 01       	movw	r18, r24
    5904:	ad 01       	movw	r20, r26
    5906:	8f 85       	ldd	r24, Y+15	; 0x0f
    5908:	98 89       	ldd	r25, Y+16	; 0x10
    590a:	a9 89       	ldd	r26, Y+17	; 0x11
    590c:	ba 89       	ldd	r27, Y+18	; 0x12
    590e:	82 0f       	add	r24, r18
    5910:	93 1f       	adc	r25, r19
    5912:	a4 1f       	adc	r26, r20
    5914:	b5 1f       	adc	r27, r21
    5916:	92 50       	subi	r25, 0x02	; 2
    5918:	a1 09       	sbc	r26, r1
    591a:	b1 09       	sbc	r27, r1
    591c:	8d 8b       	std	Y+21, r24	; 0x15
    591e:	9e 8b       	std	Y+22, r25	; 0x16
    5920:	af 8b       	std	Y+23, r26	; 0x17
    5922:	b8 8f       	std	Y+24, r27	; 0x18
    5924:	2d a1       	ldd	r18, Y+37	; 0x25
    5926:	3e a1       	ldd	r19, Y+38	; 0x26
    5928:	4f a1       	ldd	r20, Y+39	; 0x27
    592a:	58 a5       	ldd	r21, Y+40	; 0x28
    592c:	8f 85       	ldd	r24, Y+15	; 0x0f
    592e:	98 89       	ldd	r25, Y+16	; 0x10
    5930:	a9 89       	ldd	r26, Y+17	; 0x11
    5932:	ba 89       	ldd	r27, Y+18	; 0x12
    5934:	bc 01       	movw	r22, r24
    5936:	cd 01       	movw	r24, r26
    5938:	0e 94 c7 3a 	call	0x758e	; 0x758e <__mulsi3>
    593c:	9b 01       	movw	r18, r22
    593e:	ac 01       	movw	r20, r24
    5940:	8b 85       	ldd	r24, Y+11	; 0x0b
    5942:	9c 85       	ldd	r25, Y+12	; 0x0c
    5944:	ad 85       	ldd	r26, Y+13	; 0x0d
    5946:	be 85       	ldd	r27, Y+14	; 0x0e
    5948:	82 1b       	sub	r24, r18
    594a:	93 0b       	sbc	r25, r19
    594c:	a4 0b       	sbc	r26, r20
    594e:	b5 0b       	sbc	r27, r21
    5950:	89 8f       	std	Y+25, r24	; 0x19
    5952:	9a 8f       	std	Y+26, r25	; 0x1a
    5954:	ab 8f       	std	Y+27, r26	; 0x1b
    5956:	bc 8f       	std	Y+28, r27	; 0x1c
    5958:	8d a1       	ldd	r24, Y+37	; 0x25
    595a:	9e a1       	ldd	r25, Y+38	; 0x26
    595c:	af a1       	ldd	r26, Y+39	; 0x27
    595e:	b8 a5       	ldd	r27, Y+40	; 0x28
    5960:	8d 8f       	std	Y+29, r24	; 0x1d
    5962:	9e 8f       	std	Y+30, r25	; 0x1e
    5964:	af 8f       	std	Y+31, r26	; 0x1f
    5966:	b8 a3       	std	Y+32, r27	; 0x20
    5968:	1b 8a       	std	Y+19, r1	; 0x13
    596a:	8b 89       	ldd	r24, Y+19	; 0x13
    596c:	91 e0       	ldi	r25, 0x01	; 1
    596e:	98 0f       	add	r25, r24
    5970:	9b 8b       	std	Y+19, r25	; 0x13
    5972:	88 2f       	mov	r24, r24
    5974:	90 e0       	ldi	r25, 0x00	; 0
    5976:	4e 8d       	ldd	r20, Y+30	; 0x1e
    5978:	9e 01       	movw	r18, r28
    597a:	27 5d       	subi	r18, 0xD7	; 215
    597c:	3f 4f       	sbci	r19, 0xFF	; 255
    597e:	82 0f       	add	r24, r18
    5980:	93 1f       	adc	r25, r19
    5982:	fc 01       	movw	r30, r24
    5984:	40 83       	st	Z, r20
    5986:	8b 89       	ldd	r24, Y+19	; 0x13
    5988:	91 e0       	ldi	r25, 0x01	; 1
    598a:	98 0f       	add	r25, r24
    598c:	9b 8b       	std	Y+19, r25	; 0x13
    598e:	88 2f       	mov	r24, r24
    5990:	90 e0       	ldi	r25, 0x00	; 0
    5992:	4d 8d       	ldd	r20, Y+29	; 0x1d
    5994:	9e 01       	movw	r18, r28
    5996:	27 5d       	subi	r18, 0xD7	; 215
    5998:	3f 4f       	sbci	r19, 0xFF	; 255
    599a:	82 0f       	add	r24, r18
    599c:	93 1f       	adc	r25, r19
    599e:	fc 01       	movw	r30, r24
    59a0:	40 83       	st	Z, r20
    59a2:	2f 89       	ldd	r18, Y+23	; 0x17
    59a4:	8b 89       	ldd	r24, Y+19	; 0x13
    59a6:	91 e0       	ldi	r25, 0x01	; 1
    59a8:	98 0f       	add	r25, r24
    59aa:	9b 8b       	std	Y+19, r25	; 0x13
    59ac:	88 2f       	mov	r24, r24
    59ae:	90 e0       	ldi	r25, 0x00	; 0
    59b0:	42 2f       	mov	r20, r18
    59b2:	43 70       	andi	r20, 0x03	; 3
    59b4:	9e 01       	movw	r18, r28
    59b6:	27 5d       	subi	r18, 0xD7	; 215
    59b8:	3f 4f       	sbci	r19, 0xFF	; 255
    59ba:	82 0f       	add	r24, r18
    59bc:	93 1f       	adc	r25, r19
    59be:	fc 01       	movw	r30, r24
    59c0:	40 83       	st	Z, r20
    59c2:	8b 89       	ldd	r24, Y+19	; 0x13
    59c4:	91 e0       	ldi	r25, 0x01	; 1
    59c6:	98 0f       	add	r25, r24
    59c8:	9b 8b       	std	Y+19, r25	; 0x13
    59ca:	88 2f       	mov	r24, r24
    59cc:	90 e0       	ldi	r25, 0x00	; 0
    59ce:	4e 89       	ldd	r20, Y+22	; 0x16
    59d0:	9e 01       	movw	r18, r28
    59d2:	27 5d       	subi	r18, 0xD7	; 215
    59d4:	3f 4f       	sbci	r19, 0xFF	; 255
    59d6:	82 0f       	add	r24, r18
    59d8:	93 1f       	adc	r25, r19
    59da:	fc 01       	movw	r30, r24
    59dc:	40 83       	st	Z, r20
    59de:	8b 89       	ldd	r24, Y+19	; 0x13
    59e0:	91 e0       	ldi	r25, 0x01	; 1
    59e2:	98 0f       	add	r25, r24
    59e4:	9b 8b       	std	Y+19, r25	; 0x13
    59e6:	88 2f       	mov	r24, r24
    59e8:	90 e0       	ldi	r25, 0x00	; 0
    59ea:	4d 89       	ldd	r20, Y+21	; 0x15
    59ec:	9e 01       	movw	r18, r28
    59ee:	27 5d       	subi	r18, 0xD7	; 215
    59f0:	3f 4f       	sbci	r19, 0xFF	; 255
    59f2:	82 0f       	add	r24, r18
    59f4:	93 1f       	adc	r25, r19
    59f6:	fc 01       	movw	r30, r24
    59f8:	40 83       	st	Z, r20
    59fa:	2f 8d       	ldd	r18, Y+31	; 0x1f
    59fc:	8b 89       	ldd	r24, Y+19	; 0x13
    59fe:	88 2f       	mov	r24, r24
    5a00:	90 e0       	ldi	r25, 0x00	; 0
    5a02:	42 2f       	mov	r20, r18
    5a04:	42 95       	swap	r20
    5a06:	40 7f       	andi	r20, 0xF0	; 240
    5a08:	9e 01       	movw	r18, r28
    5a0a:	27 5d       	subi	r18, 0xD7	; 215
    5a0c:	3f 4f       	sbci	r19, 0xFF	; 255
    5a0e:	82 0f       	add	r24, r18
    5a10:	93 1f       	adc	r25, r19
    5a12:	fc 01       	movw	r30, r24
    5a14:	40 83       	st	Z, r20
    5a16:	4b 89       	ldd	r20, Y+19	; 0x13
    5a18:	81 e0       	ldi	r24, 0x01	; 1
    5a1a:	84 0f       	add	r24, r20
    5a1c:	8b 8b       	std	Y+19, r24	; 0x13
    5a1e:	84 2f       	mov	r24, r20
    5a20:	90 e0       	ldi	r25, 0x00	; 0
    5a22:	9e 01       	movw	r18, r28
    5a24:	27 5d       	subi	r18, 0xD7	; 215
    5a26:	3f 4f       	sbci	r19, 0xFF	; 255
    5a28:	82 0f       	add	r24, r18
    5a2a:	93 1f       	adc	r25, r19
    5a2c:	fc 01       	movw	r30, r24
    5a2e:	30 81       	ld	r19, Z
    5a30:	8b 8d       	ldd	r24, Y+27	; 0x1b
    5a32:	28 2f       	mov	r18, r24
    5a34:	2f 70       	andi	r18, 0x0F	; 15
    5a36:	84 2f       	mov	r24, r20
    5a38:	90 e0       	ldi	r25, 0x00	; 0
    5a3a:	43 2f       	mov	r20, r19
    5a3c:	42 0f       	add	r20, r18
    5a3e:	9e 01       	movw	r18, r28
    5a40:	27 5d       	subi	r18, 0xD7	; 215
    5a42:	3f 4f       	sbci	r19, 0xFF	; 255
    5a44:	82 0f       	add	r24, r18
    5a46:	93 1f       	adc	r25, r19
    5a48:	fc 01       	movw	r30, r24
    5a4a:	40 83       	st	Z, r20
    5a4c:	8b 89       	ldd	r24, Y+19	; 0x13
    5a4e:	91 e0       	ldi	r25, 0x01	; 1
    5a50:	98 0f       	add	r25, r24
    5a52:	9b 8b       	std	Y+19, r25	; 0x13
    5a54:	88 2f       	mov	r24, r24
    5a56:	90 e0       	ldi	r25, 0x00	; 0
    5a58:	4a 8d       	ldd	r20, Y+26	; 0x1a
    5a5a:	9e 01       	movw	r18, r28
    5a5c:	27 5d       	subi	r18, 0xD7	; 215
    5a5e:	3f 4f       	sbci	r19, 0xFF	; 255
    5a60:	82 0f       	add	r24, r18
    5a62:	93 1f       	adc	r25, r19
    5a64:	fc 01       	movw	r30, r24
    5a66:	40 83       	st	Z, r20
    5a68:	8b 89       	ldd	r24, Y+19	; 0x13
    5a6a:	91 e0       	ldi	r25, 0x01	; 1
    5a6c:	98 0f       	add	r25, r24
    5a6e:	9b 8b       	std	Y+19, r25	; 0x13
    5a70:	88 2f       	mov	r24, r24
    5a72:	90 e0       	ldi	r25, 0x00	; 0
    5a74:	49 8d       	ldd	r20, Y+25	; 0x19
    5a76:	9e 01       	movw	r18, r28
    5a78:	27 5d       	subi	r18, 0xD7	; 215
    5a7a:	3f 4f       	sbci	r19, 0xFF	; 255
    5a7c:	82 0f       	add	r24, r18
    5a7e:	93 1f       	adc	r25, r19
    5a80:	fc 01       	movw	r30, r24
    5a82:	40 83       	st	Z, r20
    5a84:	ce 01       	movw	r24, r28
    5a86:	89 96       	adiw	r24, 0x29	; 41
    5a88:	4b 89       	ldd	r20, Y+19	; 0x13
    5a8a:	bc 01       	movw	r22, r24
    5a8c:	8a e1       	ldi	r24, 0x1A	; 26
    5a8e:	0e 94 d2 31 	call	0x63a4	; 0x63a4 <_Z17si5351_write_bulkhPhh>
    5a92:	88 23       	and	r24, r24
    5a94:	19 f0       	breq	.+6      	; 0x5a9c <si5351_init_for_quad+0x664>
    5a96:	8b ef       	ldi	r24, 0xFB	; 251
    5a98:	90 e0       	ldi	r25, 0x00	; 0
    5a9a:	40 c0       	rjmp	.+128    	; 0x5b1c <si5351_init_for_quad+0x6e4>
    5a9c:	60 e0       	ldi	r22, 0x00	; 0
    5a9e:	80 e0       	ldi	r24, 0x00	; 0
    5aa0:	90 e0       	ldi	r25, 0x00	; 0
    5aa2:	0e 94 77 32 	call	0x64ee	; 0x64ee <_Z16set_integer_mode12si5351_clockb>
    5aa6:	60 e0       	ldi	r22, 0x00	; 0
    5aa8:	81 e0       	ldi	r24, 0x01	; 1
    5aaa:	90 e0       	ldi	r25, 0x00	; 0
    5aac:	0e 94 77 32 	call	0x64ee	; 0x64ee <_Z16set_integer_mode12si5351_clockb>
    5ab0:	8e e7       	ldi	r24, 0x7E	; 126
    5ab2:	0e 94 ad 32 	call	0x655a	; 0x655a <_Z21si5351_set_CLK1_phaseh>
    5ab6:	83 e0       	ldi	r24, 0x03	; 3
    5ab8:	8c 8b       	std	Y+20, r24	; 0x14
    5aba:	8c 89       	ldd	r24, Y+20	; 0x14
    5abc:	80 95       	com	r24
    5abe:	8b ab       	std	Y+51, r24	; 0x33
    5ac0:	ce 01       	movw	r24, r28
    5ac2:	c3 96       	adiw	r24, 0x33	; 51
    5ac4:	41 e0       	ldi	r20, 0x01	; 1
    5ac6:	bc 01       	movw	r22, r24
    5ac8:	83 e0       	ldi	r24, 0x03	; 3
    5aca:	0e 94 d2 31 	call	0x63a4	; 0x63a4 <_Z17si5351_write_bulkhPhh>
    5ace:	88 23       	and	r24, r24
    5ad0:	19 f0       	breq	.+6      	; 0x5ad8 <si5351_init_for_quad+0x6a0>
    5ad2:	8b ef       	ldi	r24, 0xFB	; 251
    5ad4:	90 e0       	ldi	r25, 0x00	; 0
    5ad6:	22 c0       	rjmp	.+68     	; 0x5b1c <si5351_init_for_quad+0x6e4>
    5ad8:	8c e0       	ldi	r24, 0x0C	; 12
    5ada:	8b ab       	std	Y+51, r24	; 0x33
    5adc:	ce 01       	movw	r24, r28
    5ade:	c3 96       	adiw	r24, 0x33	; 51
    5ae0:	41 e0       	ldi	r20, 0x01	; 1
    5ae2:	bc 01       	movw	r22, r24
    5ae4:	80 e1       	ldi	r24, 0x10	; 16
    5ae6:	0e 94 d2 31 	call	0x63a4	; 0x63a4 <_Z17si5351_write_bulkhPhh>
    5aea:	88 23       	and	r24, r24
    5aec:	19 f0       	breq	.+6      	; 0x5af4 <si5351_init_for_quad+0x6bc>
    5aee:	8b ef       	ldi	r24, 0xFB	; 251
    5af0:	90 e0       	ldi	r25, 0x00	; 0
    5af2:	14 c0       	rjmp	.+40     	; 0x5b1c <si5351_init_for_quad+0x6e4>
    5af4:	8c e0       	ldi	r24, 0x0C	; 12
    5af6:	8b ab       	std	Y+51, r24	; 0x33
    5af8:	ce 01       	movw	r24, r28
    5afa:	c3 96       	adiw	r24, 0x33	; 51
    5afc:	41 e0       	ldi	r20, 0x01	; 1
    5afe:	bc 01       	movw	r22, r24
    5b00:	81 e1       	ldi	r24, 0x11	; 17
    5b02:	0e 94 d2 31 	call	0x63a4	; 0x63a4 <_Z17si5351_write_bulkhPhh>
    5b06:	88 23       	and	r24, r24
    5b08:	19 f0       	breq	.+6      	; 0x5b10 <si5351_init_for_quad+0x6d8>
    5b0a:	8b ef       	ldi	r24, 0xFB	; 251
    5b0c:	90 e0       	ldi	r25, 0x00	; 0
    5b0e:	06 c0       	rjmp	.+12     	; 0x5b1c <si5351_init_for_quad+0x6e4>
    5b10:	81 e0       	ldi	r24, 0x01	; 1
    5b12:	90 e0       	ldi	r25, 0x00	; 0
    5b14:	0e 94 30 30 	call	0x6060	; 0x6060 <_Z16si5351_pll_reset10si5351_pll>
    5b18:	80 e0       	ldi	r24, 0x00	; 0
    5b1a:	90 e0       	ldi	r25, 0x00	; 0
    5b1c:	e8 96       	adiw	r28, 0x38	; 56
    5b1e:	cd bf       	out	0x3d, r28	; 61
    5b20:	de bf       	out	0x3e, r29	; 62
    5b22:	df 91       	pop	r29
    5b24:	cf 91       	pop	r28
    5b26:	08 95       	ret

00005b28 <si5351_set_quad_frequency>:
    5b28:	cf 93       	push	r28
    5b2a:	df 93       	push	r29
    5b2c:	cd b7       	in	r28, 0x3d	; 61
    5b2e:	de b7       	in	r29, 0x3e	; 62
    5b30:	e7 97       	sbiw	r28, 0x37	; 55
    5b32:	cd bf       	out	0x3d, r28	; 61
    5b34:	de bf       	out	0x3e, r29	; 62
    5b36:	6c ab       	std	Y+52, r22	; 0x34
    5b38:	7d ab       	std	Y+53, r23	; 0x35
    5b3a:	8e ab       	std	Y+54, r24	; 0x36
    5b3c:	9f ab       	std	Y+55, r25	; 0x37
    5b3e:	19 82       	std	Y+1, r1	; 0x01
    5b40:	1a 82       	std	Y+2, r1	; 0x02
    5b42:	1b 82       	std	Y+3, r1	; 0x03
    5b44:	1c 82       	std	Y+4, r1	; 0x04
    5b46:	1d 82       	std	Y+5, r1	; 0x05
    5b48:	90 91 37 42 	lds	r25, 0x4237	; 0x804237 <g_si5351_initialized>
    5b4c:	81 e0       	ldi	r24, 0x01	; 1
    5b4e:	89 27       	eor	r24, r25
    5b50:	88 23       	and	r24, r24
    5b52:	19 f0       	breq	.+6      	; 0x5b5a <si5351_set_quad_frequency+0x32>
    5b54:	80 e0       	ldi	r24, 0x00	; 0
    5b56:	90 e0       	ldi	r25, 0x00	; 0
    5b58:	93 c1       	rjmp	.+806    	; 0x5e80 <si5351_set_quad_frequency+0x358>
    5b5a:	8c a9       	ldd	r24, Y+52	; 0x34
    5b5c:	9d a9       	ldd	r25, Y+53	; 0x35
    5b5e:	ae a9       	ldd	r26, Y+54	; 0x36
    5b60:	bf a9       	ldd	r27, Y+55	; 0x37
    5b62:	8e 83       	std	Y+6, r24	; 0x06
    5b64:	9f 83       	std	Y+7, r25	; 0x07
    5b66:	a8 87       	std	Y+8, r26	; 0x08
    5b68:	b9 87       	std	Y+9, r27	; 0x09
    5b6a:	8c a9       	ldd	r24, Y+52	; 0x34
    5b6c:	9d a9       	ldd	r25, Y+53	; 0x35
    5b6e:	ae a9       	ldd	r26, Y+54	; 0x36
    5b70:	bf a9       	ldd	r27, Y+55	; 0x37
    5b72:	80 93 2b 42 	sts	0x422B, r24	; 0x80422b <_ZL9clock_out>
    5b76:	90 93 2c 42 	sts	0x422C, r25	; 0x80422c <_ZL9clock_out+0x1>
    5b7a:	a0 93 2d 42 	sts	0x422D, r26	; 0x80422d <_ZL9clock_out+0x2>
    5b7e:	b0 93 2e 42 	sts	0x422E, r27	; 0x80422e <_ZL9clock_out+0x3>
    5b82:	8c a9       	ldd	r24, Y+52	; 0x34
    5b84:	9d a9       	ldd	r25, Y+53	; 0x35
    5b86:	ae a9       	ldd	r26, Y+54	; 0x36
    5b88:	bf a9       	ldd	r27, Y+55	; 0x37
    5b8a:	80 93 2f 42 	sts	0x422F, r24	; 0x80422f <_ZL9clock_out+0x4>
    5b8e:	90 93 30 42 	sts	0x4230, r25	; 0x804230 <_ZL9clock_out+0x5>
    5b92:	a0 93 31 42 	sts	0x4231, r26	; 0x804231 <_ZL9clock_out+0x6>
    5b96:	b0 93 32 42 	sts	0x4232, r27	; 0x804232 <_ZL9clock_out+0x7>
    5b9a:	2e 81       	ldd	r18, Y+6	; 0x06
    5b9c:	3f 81       	ldd	r19, Y+7	; 0x07
    5b9e:	48 85       	ldd	r20, Y+8	; 0x08
    5ba0:	59 85       	ldd	r21, Y+9	; 0x09
    5ba2:	8e e7       	ldi	r24, 0x7E	; 126
    5ba4:	90 e0       	ldi	r25, 0x00	; 0
    5ba6:	dc 01       	movw	r26, r24
    5ba8:	0e 94 25 3b 	call	0x764a	; 0x764a <__muluhisi3>
    5bac:	dc 01       	movw	r26, r24
    5bae:	cb 01       	movw	r24, r22
    5bb0:	8a 83       	std	Y+2, r24	; 0x02
    5bb2:	9b 83       	std	Y+3, r25	; 0x03
    5bb4:	ac 83       	std	Y+4, r26	; 0x04
    5bb6:	bd 83       	std	Y+5, r27	; 0x05
    5bb8:	20 91 2c 40 	lds	r18, 0x402C	; 0x80402c <_ZL11g_xtal_freq>
    5bbc:	30 91 2d 40 	lds	r19, 0x402D	; 0x80402d <_ZL11g_xtal_freq+0x1>
    5bc0:	40 91 2e 40 	lds	r20, 0x402E	; 0x80402e <_ZL11g_xtal_freq+0x2>
    5bc4:	50 91 2f 40 	lds	r21, 0x402F	; 0x80402f <_ZL11g_xtal_freq+0x3>
    5bc8:	8a 81       	ldd	r24, Y+2	; 0x02
    5bca:	9b 81       	ldd	r25, Y+3	; 0x03
    5bcc:	ac 81       	ldd	r26, Y+4	; 0x04
    5bce:	bd 81       	ldd	r27, Y+5	; 0x05
    5bd0:	bc 01       	movw	r22, r24
    5bd2:	cd 01       	movw	r24, r26
    5bd4:	0e 94 eb 3a 	call	0x75d6	; 0x75d6 <__udivmodsi4>
    5bd8:	da 01       	movw	r26, r20
    5bda:	c9 01       	movw	r24, r18
    5bdc:	8a 87       	std	Y+10, r24	; 0x0a
    5bde:	9b 87       	std	Y+11, r25	; 0x0b
    5be0:	ac 87       	std	Y+12, r26	; 0x0c
    5be2:	bd 87       	std	Y+13, r27	; 0x0d
    5be4:	20 91 2c 40 	lds	r18, 0x402C	; 0x80402c <_ZL11g_xtal_freq>
    5be8:	30 91 2d 40 	lds	r19, 0x402D	; 0x80402d <_ZL11g_xtal_freq+0x1>
    5bec:	40 91 2e 40 	lds	r20, 0x402E	; 0x80402e <_ZL11g_xtal_freq+0x2>
    5bf0:	50 91 2f 40 	lds	r21, 0x402F	; 0x80402f <_ZL11g_xtal_freq+0x3>
    5bf4:	8a 81       	ldd	r24, Y+2	; 0x02
    5bf6:	9b 81       	ldd	r25, Y+3	; 0x03
    5bf8:	ac 81       	ldd	r26, Y+4	; 0x04
    5bfa:	bd 81       	ldd	r27, Y+5	; 0x05
    5bfc:	bc 01       	movw	r22, r24
    5bfe:	cd 01       	movw	r24, r26
    5c00:	0e 94 eb 3a 	call	0x75d6	; 0x75d6 <__udivmodsi4>
    5c04:	dc 01       	movw	r26, r24
    5c06:	cb 01       	movw	r24, r22
    5c08:	8e 8b       	std	Y+22, r24	; 0x16
    5c0a:	9f 8b       	std	Y+23, r25	; 0x17
    5c0c:	a8 8f       	std	Y+24, r26	; 0x18
    5c0e:	b9 8f       	std	Y+25, r27	; 0x19
    5c10:	80 91 2c 40 	lds	r24, 0x402C	; 0x80402c <_ZL11g_xtal_freq>
    5c14:	90 91 2d 40 	lds	r25, 0x402D	; 0x80402d <_ZL11g_xtal_freq+0x1>
    5c18:	a0 91 2e 40 	lds	r26, 0x402E	; 0x80402e <_ZL11g_xtal_freq+0x2>
    5c1c:	b0 91 2f 40 	lds	r27, 0x402F	; 0x80402f <_ZL11g_xtal_freq+0x3>
    5c20:	8a 8f       	std	Y+26, r24	; 0x1a
    5c22:	9b 8f       	std	Y+27, r25	; 0x1b
    5c24:	ac 8f       	std	Y+28, r26	; 0x1c
    5c26:	bd 8f       	std	Y+29, r27	; 0x1d
    5c28:	9e 01       	movw	r18, r28
    5c2a:	26 5e       	subi	r18, 0xE6	; 230
    5c2c:	3f 4f       	sbci	r19, 0xFF	; 255
    5c2e:	ce 01       	movw	r24, r28
    5c30:	46 96       	adiw	r24, 0x16	; 22
    5c32:	b9 01       	movw	r22, r18
    5c34:	0e 94 1f 31 	call	0x623e	; 0x623e <_Z13reduce_by_gcdPmS_>
    5c38:	8e 89       	ldd	r24, Y+22	; 0x16
    5c3a:	9f 89       	ldd	r25, Y+23	; 0x17
    5c3c:	a8 8d       	ldd	r26, Y+24	; 0x18
    5c3e:	b9 8d       	ldd	r27, Y+25	; 0x19
    5c40:	88 0f       	add	r24, r24
    5c42:	99 1f       	adc	r25, r25
    5c44:	aa 1f       	adc	r26, r26
    5c46:	bb 1f       	adc	r27, r27
    5c48:	88 0f       	add	r24, r24
    5c4a:	99 1f       	adc	r25, r25
    5c4c:	aa 1f       	adc	r26, r26
    5c4e:	bb 1f       	adc	r27, r27
    5c50:	88 0f       	add	r24, r24
    5c52:	99 1f       	adc	r25, r25
    5c54:	aa 1f       	adc	r26, r26
    5c56:	bb 1f       	adc	r27, r27
    5c58:	88 0f       	add	r24, r24
    5c5a:	99 1f       	adc	r25, r25
    5c5c:	aa 1f       	adc	r26, r26
    5c5e:	bb 1f       	adc	r27, r27
    5c60:	88 0f       	add	r24, r24
    5c62:	99 1f       	adc	r25, r25
    5c64:	aa 1f       	adc	r26, r26
    5c66:	bb 1f       	adc	r27, r27
    5c68:	88 0f       	add	r24, r24
    5c6a:	99 1f       	adc	r25, r25
    5c6c:	aa 1f       	adc	r26, r26
    5c6e:	bb 1f       	adc	r27, r27
    5c70:	88 0f       	add	r24, r24
    5c72:	99 1f       	adc	r25, r25
    5c74:	aa 1f       	adc	r26, r26
    5c76:	bb 1f       	adc	r27, r27
    5c78:	8e 87       	std	Y+14, r24	; 0x0e
    5c7a:	9f 87       	std	Y+15, r25	; 0x0f
    5c7c:	a8 8b       	std	Y+16, r26	; 0x10
    5c7e:	b9 8b       	std	Y+17, r27	; 0x11
    5c80:	2a 8d       	ldd	r18, Y+26	; 0x1a
    5c82:	3b 8d       	ldd	r19, Y+27	; 0x1b
    5c84:	4c 8d       	ldd	r20, Y+28	; 0x1c
    5c86:	5d 8d       	ldd	r21, Y+29	; 0x1d
    5c88:	8e 85       	ldd	r24, Y+14	; 0x0e
    5c8a:	9f 85       	ldd	r25, Y+15	; 0x0f
    5c8c:	a8 89       	ldd	r26, Y+16	; 0x10
    5c8e:	b9 89       	ldd	r27, Y+17	; 0x11
    5c90:	bc 01       	movw	r22, r24
    5c92:	cd 01       	movw	r24, r26
    5c94:	0e 94 eb 3a 	call	0x75d6	; 0x75d6 <__udivmodsi4>
    5c98:	da 01       	movw	r26, r20
    5c9a:	c9 01       	movw	r24, r18
    5c9c:	8a 8b       	std	Y+18, r24	; 0x12
    5c9e:	9b 8b       	std	Y+19, r25	; 0x13
    5ca0:	ac 8b       	std	Y+20, r26	; 0x14
    5ca2:	bd 8b       	std	Y+21, r27	; 0x15
    5ca4:	8a 85       	ldd	r24, Y+10	; 0x0a
    5ca6:	9b 85       	ldd	r25, Y+11	; 0x0b
    5ca8:	ac 85       	ldd	r26, Y+12	; 0x0c
    5caa:	bd 85       	ldd	r27, Y+13	; 0x0d
    5cac:	88 0f       	add	r24, r24
    5cae:	99 1f       	adc	r25, r25
    5cb0:	aa 1f       	adc	r26, r26
    5cb2:	bb 1f       	adc	r27, r27
    5cb4:	88 0f       	add	r24, r24
    5cb6:	99 1f       	adc	r25, r25
    5cb8:	aa 1f       	adc	r26, r26
    5cba:	bb 1f       	adc	r27, r27
    5cbc:	88 0f       	add	r24, r24
    5cbe:	99 1f       	adc	r25, r25
    5cc0:	aa 1f       	adc	r26, r26
    5cc2:	bb 1f       	adc	r27, r27
    5cc4:	88 0f       	add	r24, r24
    5cc6:	99 1f       	adc	r25, r25
    5cc8:	aa 1f       	adc	r26, r26
    5cca:	bb 1f       	adc	r27, r27
    5ccc:	88 0f       	add	r24, r24
    5cce:	99 1f       	adc	r25, r25
    5cd0:	aa 1f       	adc	r26, r26
    5cd2:	bb 1f       	adc	r27, r27
    5cd4:	88 0f       	add	r24, r24
    5cd6:	99 1f       	adc	r25, r25
    5cd8:	aa 1f       	adc	r26, r26
    5cda:	bb 1f       	adc	r27, r27
    5cdc:	88 0f       	add	r24, r24
    5cde:	99 1f       	adc	r25, r25
    5ce0:	aa 1f       	adc	r26, r26
    5ce2:	bb 1f       	adc	r27, r27
    5ce4:	9c 01       	movw	r18, r24
    5ce6:	ad 01       	movw	r20, r26
    5ce8:	8a 89       	ldd	r24, Y+18	; 0x12
    5cea:	9b 89       	ldd	r25, Y+19	; 0x13
    5cec:	ac 89       	ldd	r26, Y+20	; 0x14
    5cee:	bd 89       	ldd	r27, Y+21	; 0x15
    5cf0:	82 0f       	add	r24, r18
    5cf2:	93 1f       	adc	r25, r19
    5cf4:	a4 1f       	adc	r26, r20
    5cf6:	b5 1f       	adc	r27, r21
    5cf8:	92 50       	subi	r25, 0x02	; 2
    5cfa:	a1 09       	sbc	r26, r1
    5cfc:	b1 09       	sbc	r27, r1
    5cfe:	88 a7       	std	Y+40, r24	; 0x28
    5d00:	99 a7       	std	Y+41, r25	; 0x29
    5d02:	aa a7       	std	Y+42, r26	; 0x2a
    5d04:	bb a7       	std	Y+43, r27	; 0x2b
    5d06:	2a 8d       	ldd	r18, Y+26	; 0x1a
    5d08:	3b 8d       	ldd	r19, Y+27	; 0x1b
    5d0a:	4c 8d       	ldd	r20, Y+28	; 0x1c
    5d0c:	5d 8d       	ldd	r21, Y+29	; 0x1d
    5d0e:	8a 89       	ldd	r24, Y+18	; 0x12
    5d10:	9b 89       	ldd	r25, Y+19	; 0x13
    5d12:	ac 89       	ldd	r26, Y+20	; 0x14
    5d14:	bd 89       	ldd	r27, Y+21	; 0x15
    5d16:	bc 01       	movw	r22, r24
    5d18:	cd 01       	movw	r24, r26
    5d1a:	0e 94 c7 3a 	call	0x758e	; 0x758e <__mulsi3>
    5d1e:	9b 01       	movw	r18, r22
    5d20:	ac 01       	movw	r20, r24
    5d22:	8e 85       	ldd	r24, Y+14	; 0x0e
    5d24:	9f 85       	ldd	r25, Y+15	; 0x0f
    5d26:	a8 89       	ldd	r26, Y+16	; 0x10
    5d28:	b9 89       	ldd	r27, Y+17	; 0x11
    5d2a:	82 1b       	sub	r24, r18
    5d2c:	93 0b       	sbc	r25, r19
    5d2e:	a4 0b       	sbc	r26, r20
    5d30:	b5 0b       	sbc	r27, r21
    5d32:	8c a7       	std	Y+44, r24	; 0x2c
    5d34:	9d a7       	std	Y+45, r25	; 0x2d
    5d36:	ae a7       	std	Y+46, r26	; 0x2e
    5d38:	bf a7       	std	Y+47, r27	; 0x2f
    5d3a:	8a 8d       	ldd	r24, Y+26	; 0x1a
    5d3c:	9b 8d       	ldd	r25, Y+27	; 0x1b
    5d3e:	ac 8d       	ldd	r26, Y+28	; 0x1c
    5d40:	bd 8d       	ldd	r27, Y+29	; 0x1d
    5d42:	88 ab       	std	Y+48, r24	; 0x30
    5d44:	99 ab       	std	Y+49, r25	; 0x31
    5d46:	aa ab       	std	Y+50, r26	; 0x32
    5d48:	bb ab       	std	Y+51, r27	; 0x33
    5d4a:	89 81       	ldd	r24, Y+1	; 0x01
    5d4c:	91 e0       	ldi	r25, 0x01	; 1
    5d4e:	98 0f       	add	r25, r24
    5d50:	99 83       	std	Y+1, r25	; 0x01
    5d52:	88 2f       	mov	r24, r24
    5d54:	90 e0       	ldi	r25, 0x00	; 0
    5d56:	49 a9       	ldd	r20, Y+49	; 0x31
    5d58:	9e 01       	movw	r18, r28
    5d5a:	22 5e       	subi	r18, 0xE2	; 226
    5d5c:	3f 4f       	sbci	r19, 0xFF	; 255
    5d5e:	82 0f       	add	r24, r18
    5d60:	93 1f       	adc	r25, r19
    5d62:	fc 01       	movw	r30, r24
    5d64:	40 83       	st	Z, r20
    5d66:	89 81       	ldd	r24, Y+1	; 0x01
    5d68:	91 e0       	ldi	r25, 0x01	; 1
    5d6a:	98 0f       	add	r25, r24
    5d6c:	99 83       	std	Y+1, r25	; 0x01
    5d6e:	88 2f       	mov	r24, r24
    5d70:	90 e0       	ldi	r25, 0x00	; 0
    5d72:	48 a9       	ldd	r20, Y+48	; 0x30
    5d74:	9e 01       	movw	r18, r28
    5d76:	22 5e       	subi	r18, 0xE2	; 226
    5d78:	3f 4f       	sbci	r19, 0xFF	; 255
    5d7a:	82 0f       	add	r24, r18
    5d7c:	93 1f       	adc	r25, r19
    5d7e:	fc 01       	movw	r30, r24
    5d80:	40 83       	st	Z, r20
    5d82:	2a a5       	ldd	r18, Y+42	; 0x2a
    5d84:	89 81       	ldd	r24, Y+1	; 0x01
    5d86:	91 e0       	ldi	r25, 0x01	; 1
    5d88:	98 0f       	add	r25, r24
    5d8a:	99 83       	std	Y+1, r25	; 0x01
    5d8c:	88 2f       	mov	r24, r24
    5d8e:	90 e0       	ldi	r25, 0x00	; 0
    5d90:	42 2f       	mov	r20, r18
    5d92:	43 70       	andi	r20, 0x03	; 3
    5d94:	9e 01       	movw	r18, r28
    5d96:	22 5e       	subi	r18, 0xE2	; 226
    5d98:	3f 4f       	sbci	r19, 0xFF	; 255
    5d9a:	82 0f       	add	r24, r18
    5d9c:	93 1f       	adc	r25, r19
    5d9e:	fc 01       	movw	r30, r24
    5da0:	40 83       	st	Z, r20
    5da2:	89 81       	ldd	r24, Y+1	; 0x01
    5da4:	91 e0       	ldi	r25, 0x01	; 1
    5da6:	98 0f       	add	r25, r24
    5da8:	99 83       	std	Y+1, r25	; 0x01
    5daa:	88 2f       	mov	r24, r24
    5dac:	90 e0       	ldi	r25, 0x00	; 0
    5dae:	49 a5       	ldd	r20, Y+41	; 0x29
    5db0:	9e 01       	movw	r18, r28
    5db2:	22 5e       	subi	r18, 0xE2	; 226
    5db4:	3f 4f       	sbci	r19, 0xFF	; 255
    5db6:	82 0f       	add	r24, r18
    5db8:	93 1f       	adc	r25, r19
    5dba:	fc 01       	movw	r30, r24
    5dbc:	40 83       	st	Z, r20
    5dbe:	89 81       	ldd	r24, Y+1	; 0x01
    5dc0:	91 e0       	ldi	r25, 0x01	; 1
    5dc2:	98 0f       	add	r25, r24
    5dc4:	99 83       	std	Y+1, r25	; 0x01
    5dc6:	88 2f       	mov	r24, r24
    5dc8:	90 e0       	ldi	r25, 0x00	; 0
    5dca:	48 a5       	ldd	r20, Y+40	; 0x28
    5dcc:	9e 01       	movw	r18, r28
    5dce:	22 5e       	subi	r18, 0xE2	; 226
    5dd0:	3f 4f       	sbci	r19, 0xFF	; 255
    5dd2:	82 0f       	add	r24, r18
    5dd4:	93 1f       	adc	r25, r19
    5dd6:	fc 01       	movw	r30, r24
    5dd8:	40 83       	st	Z, r20
    5dda:	2a a9       	ldd	r18, Y+50	; 0x32
    5ddc:	89 81       	ldd	r24, Y+1	; 0x01
    5dde:	88 2f       	mov	r24, r24
    5de0:	90 e0       	ldi	r25, 0x00	; 0
    5de2:	42 2f       	mov	r20, r18
    5de4:	42 95       	swap	r20
    5de6:	40 7f       	andi	r20, 0xF0	; 240
    5de8:	9e 01       	movw	r18, r28
    5dea:	22 5e       	subi	r18, 0xE2	; 226
    5dec:	3f 4f       	sbci	r19, 0xFF	; 255
    5dee:	82 0f       	add	r24, r18
    5df0:	93 1f       	adc	r25, r19
    5df2:	fc 01       	movw	r30, r24
    5df4:	40 83       	st	Z, r20
    5df6:	49 81       	ldd	r20, Y+1	; 0x01
    5df8:	81 e0       	ldi	r24, 0x01	; 1
    5dfa:	84 0f       	add	r24, r20
    5dfc:	89 83       	std	Y+1, r24	; 0x01
    5dfe:	84 2f       	mov	r24, r20
    5e00:	90 e0       	ldi	r25, 0x00	; 0
    5e02:	9e 01       	movw	r18, r28
    5e04:	22 5e       	subi	r18, 0xE2	; 226
    5e06:	3f 4f       	sbci	r19, 0xFF	; 255
    5e08:	82 0f       	add	r24, r18
    5e0a:	93 1f       	adc	r25, r19
    5e0c:	fc 01       	movw	r30, r24
    5e0e:	30 81       	ld	r19, Z
    5e10:	8e a5       	ldd	r24, Y+46	; 0x2e
    5e12:	28 2f       	mov	r18, r24
    5e14:	2f 70       	andi	r18, 0x0F	; 15
    5e16:	84 2f       	mov	r24, r20
    5e18:	90 e0       	ldi	r25, 0x00	; 0
    5e1a:	43 2f       	mov	r20, r19
    5e1c:	42 0f       	add	r20, r18
    5e1e:	9e 01       	movw	r18, r28
    5e20:	22 5e       	subi	r18, 0xE2	; 226
    5e22:	3f 4f       	sbci	r19, 0xFF	; 255
    5e24:	82 0f       	add	r24, r18
    5e26:	93 1f       	adc	r25, r19
    5e28:	fc 01       	movw	r30, r24
    5e2a:	40 83       	st	Z, r20
    5e2c:	89 81       	ldd	r24, Y+1	; 0x01
    5e2e:	91 e0       	ldi	r25, 0x01	; 1
    5e30:	98 0f       	add	r25, r24
    5e32:	99 83       	std	Y+1, r25	; 0x01
    5e34:	88 2f       	mov	r24, r24
    5e36:	90 e0       	ldi	r25, 0x00	; 0
    5e38:	4d a5       	ldd	r20, Y+45	; 0x2d
    5e3a:	9e 01       	movw	r18, r28
    5e3c:	22 5e       	subi	r18, 0xE2	; 226
    5e3e:	3f 4f       	sbci	r19, 0xFF	; 255
    5e40:	82 0f       	add	r24, r18
    5e42:	93 1f       	adc	r25, r19
    5e44:	fc 01       	movw	r30, r24
    5e46:	40 83       	st	Z, r20
    5e48:	89 81       	ldd	r24, Y+1	; 0x01
    5e4a:	91 e0       	ldi	r25, 0x01	; 1
    5e4c:	98 0f       	add	r25, r24
    5e4e:	99 83       	std	Y+1, r25	; 0x01
    5e50:	88 2f       	mov	r24, r24
    5e52:	90 e0       	ldi	r25, 0x00	; 0
    5e54:	4c a5       	ldd	r20, Y+44	; 0x2c
    5e56:	9e 01       	movw	r18, r28
    5e58:	22 5e       	subi	r18, 0xE2	; 226
    5e5a:	3f 4f       	sbci	r19, 0xFF	; 255
    5e5c:	82 0f       	add	r24, r18
    5e5e:	93 1f       	adc	r25, r19
    5e60:	fc 01       	movw	r30, r24
    5e62:	40 83       	st	Z, r20
    5e64:	ce 01       	movw	r24, r28
    5e66:	4e 96       	adiw	r24, 0x1e	; 30
    5e68:	49 81       	ldd	r20, Y+1	; 0x01
    5e6a:	bc 01       	movw	r22, r24
    5e6c:	8a e1       	ldi	r24, 0x1A	; 26
    5e6e:	0e 94 d2 31 	call	0x63a4	; 0x63a4 <_Z17si5351_write_bulkhPhh>
    5e72:	88 23       	and	r24, r24
    5e74:	19 f0       	breq	.+6      	; 0x5e7c <si5351_set_quad_frequency+0x354>
    5e76:	8b ef       	ldi	r24, 0xFB	; 251
    5e78:	90 e0       	ldi	r25, 0x00	; 0
    5e7a:	02 c0       	rjmp	.+4      	; 0x5e80 <si5351_set_quad_frequency+0x358>
    5e7c:	80 e0       	ldi	r24, 0x00	; 0
    5e7e:	90 e0       	ldi	r25, 0x00	; 0
    5e80:	e7 96       	adiw	r28, 0x37	; 55
    5e82:	cd bf       	out	0x3d, r28	; 61
    5e84:	de bf       	out	0x3e, r29	; 62
    5e86:	df 91       	pop	r29
    5e88:	cf 91       	pop	r28
    5e8a:	08 95       	ret

00005e8c <si5351_init>:
    5e8c:	cf 93       	push	r28
    5e8e:	df 93       	push	r29
    5e90:	cd b7       	in	r28, 0x3d	; 61
    5e92:	de b7       	in	r29, 0x3e	; 62
    5e94:	29 97       	sbiw	r28, 0x09	; 9
    5e96:	cd bf       	out	0x3d, r28	; 61
    5e98:	de bf       	out	0x3e, r29	; 62
    5e9a:	8c 83       	std	Y+4, r24	; 0x04
    5e9c:	9d 83       	std	Y+5, r25	; 0x05
    5e9e:	4e 83       	std	Y+6, r20	; 0x06
    5ea0:	5f 83       	std	Y+7, r21	; 0x07
    5ea2:	68 87       	std	Y+8, r22	; 0x08
    5ea4:	79 87       	std	Y+9, r23	; 0x09
    5ea6:	0e 94 95 21 	call	0x432a	; 0x432a <I2C_0_Init>
    5eaa:	10 92 26 42 	sts	0x4226, r1	; 0x804226 <_ZL8freqVCOB>
    5eae:	10 92 27 42 	sts	0x4227, r1	; 0x804227 <_ZL8freqVCOB+0x1>
    5eb2:	10 92 28 42 	sts	0x4228, r1	; 0x804228 <_ZL8freqVCOB+0x2>
    5eb6:	10 92 29 42 	sts	0x4229, r1	; 0x804229 <_ZL8freqVCOB+0x3>
    5eba:	80 e4       	ldi	r24, 0x40	; 64
    5ebc:	98 e7       	ldi	r25, 0x78	; 120
    5ebe:	ad e7       	ldi	r26, 0x7D	; 125
    5ec0:	b1 e0       	ldi	r27, 0x01	; 1
    5ec2:	80 93 2c 40 	sts	0x402C, r24	; 0x80402c <_ZL11g_xtal_freq>
    5ec6:	90 93 2d 40 	sts	0x402D, r25	; 0x80402d <_ZL11g_xtal_freq+0x1>
    5eca:	a0 93 2e 40 	sts	0x402E, r26	; 0x80402e <_ZL11g_xtal_freq+0x2>
    5ece:	b0 93 2f 40 	sts	0x402F, r27	; 0x80402f <_ZL11g_xtal_freq+0x3>
    5ed2:	10 92 2a 42 	sts	0x422A, r1	; 0x80422a <_ZL17enabledClocksMask>
    5ed6:	8f ef       	ldi	r24, 0xFF	; 255
    5ed8:	8a 83       	std	Y+2, r24	; 0x02
    5eda:	ce 01       	movw	r24, r28
    5edc:	02 96       	adiw	r24, 0x02	; 2
    5ede:	41 e0       	ldi	r20, 0x01	; 1
    5ee0:	bc 01       	movw	r22, r24
    5ee2:	83 e0       	ldi	r24, 0x03	; 3
    5ee4:	0e 94 d2 31 	call	0x63a4	; 0x63a4 <_Z17si5351_write_bulkhPhh>
    5ee8:	80 93 38 42 	sts	0x4238, r24	; 0x804238 <_ZZ11si5351_initE3err>
    5eec:	80 91 38 42 	lds	r24, 0x4238	; 0x804238 <_ZZ11si5351_initE3err>
    5ef0:	88 23       	and	r24, r24
    5ef2:	19 f0       	breq	.+6      	; 0x5efa <si5351_init+0x6e>
    5ef4:	80 91 38 42 	lds	r24, 0x4238	; 0x804238 <_ZZ11si5351_initE3err>
    5ef8:	92 c0       	rjmp	.+292    	; 0x601e <si5351_init+0x192>
    5efa:	8c ec       	ldi	r24, 0xCC	; 204
    5efc:	8a 83       	std	Y+2, r24	; 0x02
    5efe:	ce 01       	movw	r24, r28
    5f00:	02 96       	adiw	r24, 0x02	; 2
    5f02:	41 e0       	ldi	r20, 0x01	; 1
    5f04:	bc 01       	movw	r22, r24
    5f06:	80 e1       	ldi	r24, 0x10	; 16
    5f08:	0e 94 d2 31 	call	0x63a4	; 0x63a4 <_Z17si5351_write_bulkhPhh>
    5f0c:	98 2f       	mov	r25, r24
    5f0e:	80 91 38 42 	lds	r24, 0x4238	; 0x804238 <_ZZ11si5351_initE3err>
    5f12:	89 2b       	or	r24, r25
    5f14:	80 93 38 42 	sts	0x4238, r24	; 0x804238 <_ZZ11si5351_initE3err>
    5f18:	ce 01       	movw	r24, r28
    5f1a:	02 96       	adiw	r24, 0x02	; 2
    5f1c:	41 e0       	ldi	r20, 0x01	; 1
    5f1e:	bc 01       	movw	r22, r24
    5f20:	81 e1       	ldi	r24, 0x11	; 17
    5f22:	0e 94 d2 31 	call	0x63a4	; 0x63a4 <_Z17si5351_write_bulkhPhh>
    5f26:	98 2f       	mov	r25, r24
    5f28:	80 91 38 42 	lds	r24, 0x4238	; 0x804238 <_ZZ11si5351_initE3err>
    5f2c:	89 2b       	or	r24, r25
    5f2e:	80 93 38 42 	sts	0x4238, r24	; 0x804238 <_ZZ11si5351_initE3err>
    5f32:	ce 01       	movw	r24, r28
    5f34:	02 96       	adiw	r24, 0x02	; 2
    5f36:	41 e0       	ldi	r20, 0x01	; 1
    5f38:	bc 01       	movw	r22, r24
    5f3a:	82 e1       	ldi	r24, 0x12	; 18
    5f3c:	0e 94 d2 31 	call	0x63a4	; 0x63a4 <_Z17si5351_write_bulkhPhh>
    5f40:	98 2f       	mov	r25, r24
    5f42:	80 91 38 42 	lds	r24, 0x4238	; 0x804238 <_ZZ11si5351_initE3err>
    5f46:	89 2b       	or	r24, r25
    5f48:	80 93 38 42 	sts	0x4238, r24	; 0x804238 <_ZZ11si5351_initE3err>
    5f4c:	82 e1       	ldi	r24, 0x12	; 18
    5f4e:	89 83       	std	Y+1, r24	; 0x01
    5f50:	9c 81       	ldd	r25, Y+4	; 0x04
    5f52:	89 81       	ldd	r24, Y+1	; 0x01
    5f54:	89 2b       	or	r24, r25
    5f56:	89 83       	std	Y+1, r24	; 0x01
    5f58:	89 81       	ldd	r24, Y+1	; 0x01
    5f5a:	8a 83       	std	Y+2, r24	; 0x02
    5f5c:	ce 01       	movw	r24, r28
    5f5e:	02 96       	adiw	r24, 0x02	; 2
    5f60:	41 e0       	ldi	r20, 0x01	; 1
    5f62:	bc 01       	movw	r22, r24
    5f64:	87 eb       	ldi	r24, 0xB7	; 183
    5f66:	0e 94 d2 31 	call	0x63a4	; 0x63a4 <_Z17si5351_write_bulkhPhh>
    5f6a:	98 2f       	mov	r25, r24
    5f6c:	80 91 38 42 	lds	r24, 0x4238	; 0x804238 <_ZZ11si5351_initE3err>
    5f70:	89 2b       	or	r24, r25
    5f72:	80 93 38 42 	sts	0x4238, r24	; 0x804238 <_ZZ11si5351_initE3err>
    5f76:	8e 81       	ldd	r24, Y+6	; 0x06
    5f78:	9f 81       	ldd	r25, Y+7	; 0x07
    5f7a:	a8 85       	ldd	r26, Y+8	; 0x08
    5f7c:	b9 85       	ldd	r27, Y+9	; 0x09
    5f7e:	89 2b       	or	r24, r25
    5f80:	8a 2b       	or	r24, r26
    5f82:	8b 2b       	or	r24, r27
    5f84:	41 f4       	brne	.+16     	; 0x5f96 <si5351_init+0x10a>
    5f86:	80 e4       	ldi	r24, 0x40	; 64
    5f88:	98 e7       	ldi	r25, 0x78	; 120
    5f8a:	ad e7       	ldi	r26, 0x7D	; 125
    5f8c:	b1 e0       	ldi	r27, 0x01	; 1
    5f8e:	8e 83       	std	Y+6, r24	; 0x06
    5f90:	9f 83       	std	Y+7, r25	; 0x07
    5f92:	a8 87       	std	Y+8, r26	; 0x08
    5f94:	b9 87       	std	Y+9, r27	; 0x09
    5f96:	80 91 2c 40 	lds	r24, 0x402C	; 0x80402c <_ZL11g_xtal_freq>
    5f9a:	90 91 2d 40 	lds	r25, 0x402D	; 0x80402d <_ZL11g_xtal_freq+0x1>
    5f9e:	a0 91 2e 40 	lds	r26, 0x402E	; 0x80402e <_ZL11g_xtal_freq+0x2>
    5fa2:	b0 91 2f 40 	lds	r27, 0x402F	; 0x80402f <_ZL11g_xtal_freq+0x3>
    5fa6:	2e 81       	ldd	r18, Y+6	; 0x06
    5fa8:	3f 81       	ldd	r19, Y+7	; 0x07
    5faa:	48 85       	ldd	r20, Y+8	; 0x08
    5fac:	59 85       	ldd	r21, Y+9	; 0x09
    5fae:	28 17       	cp	r18, r24
    5fb0:	39 07       	cpc	r19, r25
    5fb2:	4a 07       	cpc	r20, r26
    5fb4:	5b 07       	cpc	r21, r27
    5fb6:	59 f1       	breq	.+86     	; 0x600e <si5351_init+0x182>
    5fb8:	ce 01       	movw	r24, r28
    5fba:	02 96       	adiw	r24, 0x02	; 2
    5fbc:	41 e0       	ldi	r20, 0x01	; 1
    5fbe:	bc 01       	movw	r22, r24
    5fc0:	8f e0       	ldi	r24, 0x0F	; 15
    5fc2:	0e 94 04 32 	call	0x6408	; 0x6408 <_Z16si5351_read_bulkhPhh>
    5fc6:	88 23       	and	r24, r24
    5fc8:	11 f0       	breq	.+4      	; 0x5fce <si5351_init+0x142>
    5fca:	81 e0       	ldi	r24, 0x01	; 1
    5fcc:	28 c0       	rjmp	.+80     	; 0x601e <si5351_init+0x192>
    5fce:	8a 81       	ldd	r24, Y+2	; 0x02
    5fd0:	89 83       	std	Y+1, r24	; 0x01
    5fd2:	89 81       	ldd	r24, Y+1	; 0x01
    5fd4:	8f 73       	andi	r24, 0x3F	; 63
    5fd6:	89 83       	std	Y+1, r24	; 0x01
    5fd8:	8e 81       	ldd	r24, Y+6	; 0x06
    5fda:	9f 81       	ldd	r25, Y+7	; 0x07
    5fdc:	a8 85       	ldd	r26, Y+8	; 0x08
    5fde:	b9 85       	ldd	r27, Y+9	; 0x09
    5fe0:	80 93 2c 40 	sts	0x402C, r24	; 0x80402c <_ZL11g_xtal_freq>
    5fe4:	90 93 2d 40 	sts	0x402D, r25	; 0x80402d <_ZL11g_xtal_freq+0x1>
    5fe8:	a0 93 2e 40 	sts	0x402E, r26	; 0x80402e <_ZL11g_xtal_freq+0x2>
    5fec:	b0 93 2f 40 	sts	0x402F, r27	; 0x80402f <_ZL11g_xtal_freq+0x3>
    5ff0:	89 81       	ldd	r24, Y+1	; 0x01
    5ff2:	8a 83       	std	Y+2, r24	; 0x02
    5ff4:	ce 01       	movw	r24, r28
    5ff6:	02 96       	adiw	r24, 0x02	; 2
    5ff8:	41 e0       	ldi	r20, 0x01	; 1
    5ffa:	bc 01       	movw	r22, r24
    5ffc:	8f e0       	ldi	r24, 0x0F	; 15
    5ffe:	0e 94 d2 31 	call	0x63a4	; 0x63a4 <_Z17si5351_write_bulkhPhh>
    6002:	98 2f       	mov	r25, r24
    6004:	80 91 38 42 	lds	r24, 0x4238	; 0x804238 <_ZZ11si5351_initE3err>
    6008:	89 2b       	or	r24, r25
    600a:	80 93 38 42 	sts	0x4238, r24	; 0x804238 <_ZZ11si5351_initE3err>
    600e:	90 91 38 42 	lds	r25, 0x4238	; 0x804238 <_ZZ11si5351_initE3err>
    6012:	81 e0       	ldi	r24, 0x01	; 1
    6014:	89 27       	eor	r24, r25
    6016:	80 93 37 42 	sts	0x4237, r24	; 0x804237 <g_si5351_initialized>
    601a:	80 91 38 42 	lds	r24, 0x4238	; 0x804238 <_ZZ11si5351_initE3err>
    601e:	29 96       	adiw	r28, 0x09	; 9
    6020:	cd bf       	out	0x3d, r28	; 61
    6022:	de bf       	out	0x3e, r29	; 62
    6024:	df 91       	pop	r29
    6026:	cf 91       	pop	r28
    6028:	08 95       	ret

0000602a <si5351_get_frequency>:
    602a:	cf 93       	push	r28
    602c:	df 93       	push	r29
    602e:	00 d0       	rcall	.+0      	; 0x6030 <si5351_get_frequency+0x6>
    6030:	cd b7       	in	r28, 0x3d	; 61
    6032:	de b7       	in	r29, 0x3e	; 62
    6034:	89 83       	std	Y+1, r24	; 0x01
    6036:	9a 83       	std	Y+2, r25	; 0x02
    6038:	89 81       	ldd	r24, Y+1	; 0x01
    603a:	9a 81       	ldd	r25, Y+2	; 0x02
    603c:	88 0f       	add	r24, r24
    603e:	99 1f       	adc	r25, r25
    6040:	88 0f       	add	r24, r24
    6042:	99 1f       	adc	r25, r25
    6044:	85 5d       	subi	r24, 0xD5	; 213
    6046:	9d 4b       	sbci	r25, 0xBD	; 189
    6048:	fc 01       	movw	r30, r24
    604a:	80 81       	ld	r24, Z
    604c:	91 81       	ldd	r25, Z+1	; 0x01
    604e:	a2 81       	ldd	r26, Z+2	; 0x02
    6050:	b3 81       	ldd	r27, Z+3	; 0x03
    6052:	bc 01       	movw	r22, r24
    6054:	cd 01       	movw	r24, r26
    6056:	0f 90       	pop	r0
    6058:	0f 90       	pop	r0
    605a:	df 91       	pop	r29
    605c:	cf 91       	pop	r28
    605e:	08 95       	ret

00006060 <_Z16si5351_pll_reset10si5351_pll>:
    6060:	cf 93       	push	r28
    6062:	df 93       	push	r29
    6064:	cd b7       	in	r28, 0x3d	; 61
    6066:	de b7       	in	r29, 0x3e	; 62
    6068:	25 97       	sbiw	r28, 0x05	; 5
    606a:	cd bf       	out	0x3d, r28	; 61
    606c:	de bf       	out	0x3e, r29	; 62
    606e:	8c 83       	std	Y+4, r24	; 0x04
    6070:	9d 83       	std	Y+5, r25	; 0x05
    6072:	ce 01       	movw	r24, r28
    6074:	02 96       	adiw	r24, 0x02	; 2
    6076:	41 e0       	ldi	r20, 0x01	; 1
    6078:	bc 01       	movw	r22, r24
    607a:	81 eb       	ldi	r24, 0xB1	; 177
    607c:	0e 94 04 32 	call	0x6408	; 0x6408 <_Z16si5351_read_bulkhPhh>
    6080:	88 23       	and	r24, r24
    6082:	19 f0       	breq	.+6      	; 0x608a <_Z16si5351_pll_reset10si5351_pll+0x2a>
    6084:	8c ef       	ldi	r24, 0xFC	; 252
    6086:	90 e0       	ldi	r25, 0x00	; 0
    6088:	24 c0       	rjmp	.+72     	; 0x60d2 <_Z16si5351_pll_reset10si5351_pll+0x72>
    608a:	8a 81       	ldd	r24, Y+2	; 0x02
    608c:	89 83       	std	Y+1, r24	; 0x01
    608e:	8c 81       	ldd	r24, Y+4	; 0x04
    6090:	9d 81       	ldd	r25, Y+5	; 0x05
    6092:	81 70       	andi	r24, 0x01	; 1
    6094:	99 27       	eor	r25, r25
    6096:	89 2b       	or	r24, r25
    6098:	19 f0       	breq	.+6      	; 0x60a0 <_Z16si5351_pll_reset10si5351_pll+0x40>
    609a:	89 81       	ldd	r24, Y+1	; 0x01
    609c:	80 62       	ori	r24, 0x20	; 32
    609e:	89 83       	std	Y+1, r24	; 0x01
    60a0:	8c 81       	ldd	r24, Y+4	; 0x04
    60a2:	9d 81       	ldd	r25, Y+5	; 0x05
    60a4:	82 70       	andi	r24, 0x02	; 2
    60a6:	99 27       	eor	r25, r25
    60a8:	89 2b       	or	r24, r25
    60aa:	19 f0       	breq	.+6      	; 0x60b2 <_Z16si5351_pll_reset10si5351_pll+0x52>
    60ac:	89 81       	ldd	r24, Y+1	; 0x01
    60ae:	80 68       	ori	r24, 0x80	; 128
    60b0:	89 83       	std	Y+1, r24	; 0x01
    60b2:	89 81       	ldd	r24, Y+1	; 0x01
    60b4:	8a 83       	std	Y+2, r24	; 0x02
    60b6:	ce 01       	movw	r24, r28
    60b8:	02 96       	adiw	r24, 0x02	; 2
    60ba:	41 e0       	ldi	r20, 0x01	; 1
    60bc:	bc 01       	movw	r22, r24
    60be:	81 eb       	ldi	r24, 0xB1	; 177
    60c0:	0e 94 d2 31 	call	0x63a4	; 0x63a4 <_Z17si5351_write_bulkhPhh>
    60c4:	88 23       	and	r24, r24
    60c6:	19 f0       	breq	.+6      	; 0x60ce <_Z16si5351_pll_reset10si5351_pll+0x6e>
    60c8:	8c ef       	ldi	r24, 0xFC	; 252
    60ca:	90 e0       	ldi	r25, 0x00	; 0
    60cc:	02 c0       	rjmp	.+4      	; 0x60d2 <_Z16si5351_pll_reset10si5351_pll+0x72>
    60ce:	80 e0       	ldi	r24, 0x00	; 0
    60d0:	90 e0       	ldi	r25, 0x00	; 0
    60d2:	25 96       	adiw	r28, 0x05	; 5
    60d4:	cd bf       	out	0x3d, r28	; 61
    60d6:	de bf       	out	0x3e, r29	; 62
    60d8:	df 91       	pop	r29
    60da:	cf 91       	pop	r28
    60dc:	08 95       	ret

000060de <si5351_clock_enable>:
    60de:	cf 93       	push	r28
    60e0:	df 93       	push	r29
    60e2:	cd b7       	in	r28, 0x3d	; 61
    60e4:	de b7       	in	r29, 0x3e	; 62
    60e6:	26 97       	sbiw	r28, 0x06	; 6
    60e8:	cd bf       	out	0x3d, r28	; 61
    60ea:	de bf       	out	0x3e, r29	; 62
    60ec:	8c 83       	std	Y+4, r24	; 0x04
    60ee:	9d 83       	std	Y+5, r25	; 0x05
    60f0:	6e 83       	std	Y+6, r22	; 0x06
    60f2:	ce 01       	movw	r24, r28
    60f4:	02 96       	adiw	r24, 0x02	; 2
    60f6:	41 e0       	ldi	r20, 0x01	; 1
    60f8:	bc 01       	movw	r22, r24
    60fa:	83 e0       	ldi	r24, 0x03	; 3
    60fc:	0e 94 04 32 	call	0x6408	; 0x6408 <_Z16si5351_read_bulkhPhh>
    6100:	88 23       	and	r24, r24
    6102:	19 f0       	breq	.+6      	; 0x610a <si5351_clock_enable+0x2c>
    6104:	8c ef       	ldi	r24, 0xFC	; 252
    6106:	90 e0       	ldi	r25, 0x00	; 0
    6108:	33 c0       	rjmp	.+102    	; 0x6170 <si5351_clock_enable+0x92>
    610a:	8a 81       	ldd	r24, Y+2	; 0x02
    610c:	89 83       	std	Y+1, r24	; 0x01
    610e:	8e 81       	ldd	r24, Y+6	; 0x06
    6110:	88 23       	and	r24, r24
    6112:	81 f0       	breq	.+32     	; 0x6134 <si5351_clock_enable+0x56>
    6114:	8c 81       	ldd	r24, Y+4	; 0x04
    6116:	28 2f       	mov	r18, r24
    6118:	30 e0       	ldi	r19, 0x00	; 0
    611a:	81 e0       	ldi	r24, 0x01	; 1
    611c:	90 e0       	ldi	r25, 0x00	; 0
    611e:	02 c0       	rjmp	.+4      	; 0x6124 <si5351_clock_enable+0x46>
    6120:	88 0f       	add	r24, r24
    6122:	99 1f       	adc	r25, r25
    6124:	2a 95       	dec	r18
    6126:	e2 f7       	brpl	.-8      	; 0x6120 <si5351_clock_enable+0x42>
    6128:	98 2f       	mov	r25, r24
    612a:	90 95       	com	r25
    612c:	89 81       	ldd	r24, Y+1	; 0x01
    612e:	89 23       	and	r24, r25
    6130:	89 83       	std	Y+1, r24	; 0x01
    6132:	0e c0       	rjmp	.+28     	; 0x6150 <si5351_clock_enable+0x72>
    6134:	8c 81       	ldd	r24, Y+4	; 0x04
    6136:	28 2f       	mov	r18, r24
    6138:	30 e0       	ldi	r19, 0x00	; 0
    613a:	81 e0       	ldi	r24, 0x01	; 1
    613c:	90 e0       	ldi	r25, 0x00	; 0
    613e:	02 c0       	rjmp	.+4      	; 0x6144 <si5351_clock_enable+0x66>
    6140:	88 0f       	add	r24, r24
    6142:	99 1f       	adc	r25, r25
    6144:	2a 95       	dec	r18
    6146:	e2 f7       	brpl	.-8      	; 0x6140 <si5351_clock_enable+0x62>
    6148:	98 2f       	mov	r25, r24
    614a:	89 81       	ldd	r24, Y+1	; 0x01
    614c:	89 2b       	or	r24, r25
    614e:	89 83       	std	Y+1, r24	; 0x01
    6150:	89 81       	ldd	r24, Y+1	; 0x01
    6152:	8a 83       	std	Y+2, r24	; 0x02
    6154:	ce 01       	movw	r24, r28
    6156:	02 96       	adiw	r24, 0x02	; 2
    6158:	41 e0       	ldi	r20, 0x01	; 1
    615a:	bc 01       	movw	r22, r24
    615c:	83 e0       	ldi	r24, 0x03	; 3
    615e:	0e 94 d2 31 	call	0x63a4	; 0x63a4 <_Z17si5351_write_bulkhPhh>
    6162:	88 23       	and	r24, r24
    6164:	19 f0       	breq	.+6      	; 0x616c <si5351_clock_enable+0x8e>
    6166:	8c ef       	ldi	r24, 0xFC	; 252
    6168:	90 e0       	ldi	r25, 0x00	; 0
    616a:	02 c0       	rjmp	.+4      	; 0x6170 <si5351_clock_enable+0x92>
    616c:	80 e0       	ldi	r24, 0x00	; 0
    616e:	90 e0       	ldi	r25, 0x00	; 0
    6170:	26 96       	adiw	r28, 0x06	; 6
    6172:	cd bf       	out	0x3d, r28	; 61
    6174:	de bf       	out	0x3e, r29	; 62
    6176:	df 91       	pop	r29
    6178:	cf 91       	pop	r28
    617a:	08 95       	ret

0000617c <si5351_drive_strength>:
    617c:	cf 93       	push	r28
    617e:	df 93       	push	r29
    6180:	cd b7       	in	r28, 0x3d	; 61
    6182:	de b7       	in	r29, 0x3e	; 62
    6184:	28 97       	sbiw	r28, 0x08	; 8
    6186:	cd bf       	out	0x3d, r28	; 61
    6188:	de bf       	out	0x3e, r29	; 62
    618a:	8d 83       	std	Y+5, r24	; 0x05
    618c:	9e 83       	std	Y+6, r25	; 0x06
    618e:	6f 83       	std	Y+7, r22	; 0x07
    6190:	78 87       	std	Y+8, r23	; 0x08
    6192:	83 e0       	ldi	r24, 0x03	; 3
    6194:	8c 83       	std	Y+4, r24	; 0x04
    6196:	8d 81       	ldd	r24, Y+5	; 0x05
    6198:	20 e1       	ldi	r18, 0x10	; 16
    619a:	28 0f       	add	r18, r24
    619c:	ce 01       	movw	r24, r28
    619e:	02 96       	adiw	r24, 0x02	; 2
    61a0:	41 e0       	ldi	r20, 0x01	; 1
    61a2:	bc 01       	movw	r22, r24
    61a4:	82 2f       	mov	r24, r18
    61a6:	0e 94 04 32 	call	0x6408	; 0x6408 <_Z16si5351_read_bulkhPhh>
    61aa:	88 23       	and	r24, r24
    61ac:	19 f0       	breq	.+6      	; 0x61b4 <si5351_drive_strength+0x38>
    61ae:	8b ef       	ldi	r24, 0xFB	; 251
    61b0:	90 e0       	ldi	r25, 0x00	; 0
    61b2:	3f c0       	rjmp	.+126    	; 0x6232 <si5351_drive_strength+0xb6>
    61b4:	8a 81       	ldd	r24, Y+2	; 0x02
    61b6:	89 83       	std	Y+1, r24	; 0x01
    61b8:	8f 81       	ldd	r24, Y+7	; 0x07
    61ba:	98 85       	ldd	r25, Y+8	; 0x08
    61bc:	81 30       	cpi	r24, 0x01	; 1
    61be:	91 05       	cpc	r25, r1
    61c0:	81 f0       	breq	.+32     	; 0x61e2 <si5351_drive_strength+0x66>
    61c2:	82 30       	cpi	r24, 0x02	; 2
    61c4:	91 05       	cpc	r25, r1
    61c6:	1c f4       	brge	.+6      	; 0x61ce <si5351_drive_strength+0x52>
    61c8:	89 2b       	or	r24, r25
    61ca:	39 f0       	breq	.+14     	; 0x61da <si5351_drive_strength+0x5e>
    61cc:	1f c0       	rjmp	.+62     	; 0x620c <si5351_drive_strength+0x90>
    61ce:	82 30       	cpi	r24, 0x02	; 2
    61d0:	91 05       	cpc	r25, r1
    61d2:	71 f0       	breq	.+28     	; 0x61f0 <si5351_drive_strength+0x74>
    61d4:	03 97       	sbiw	r24, 0x03	; 3
    61d6:	99 f0       	breq	.+38     	; 0x61fe <si5351_drive_strength+0x82>
    61d8:	19 c0       	rjmp	.+50     	; 0x620c <si5351_drive_strength+0x90>
    61da:	89 81       	ldd	r24, Y+1	; 0x01
    61dc:	8c 7f       	andi	r24, 0xFC	; 252
    61de:	89 83       	std	Y+1, r24	; 0x01
    61e0:	15 c0       	rjmp	.+42     	; 0x620c <si5351_drive_strength+0x90>
    61e2:	89 81       	ldd	r24, Y+1	; 0x01
    61e4:	8c 7f       	andi	r24, 0xFC	; 252
    61e6:	89 83       	std	Y+1, r24	; 0x01
    61e8:	89 81       	ldd	r24, Y+1	; 0x01
    61ea:	81 60       	ori	r24, 0x01	; 1
    61ec:	89 83       	std	Y+1, r24	; 0x01
    61ee:	0e c0       	rjmp	.+28     	; 0x620c <si5351_drive_strength+0x90>
    61f0:	89 81       	ldd	r24, Y+1	; 0x01
    61f2:	8c 7f       	andi	r24, 0xFC	; 252
    61f4:	89 83       	std	Y+1, r24	; 0x01
    61f6:	89 81       	ldd	r24, Y+1	; 0x01
    61f8:	82 60       	ori	r24, 0x02	; 2
    61fa:	89 83       	std	Y+1, r24	; 0x01
    61fc:	07 c0       	rjmp	.+14     	; 0x620c <si5351_drive_strength+0x90>
    61fe:	89 81       	ldd	r24, Y+1	; 0x01
    6200:	8c 7f       	andi	r24, 0xFC	; 252
    6202:	89 83       	std	Y+1, r24	; 0x01
    6204:	89 81       	ldd	r24, Y+1	; 0x01
    6206:	83 60       	ori	r24, 0x03	; 3
    6208:	89 83       	std	Y+1, r24	; 0x01
    620a:	00 00       	nop
    620c:	89 81       	ldd	r24, Y+1	; 0x01
    620e:	8a 83       	std	Y+2, r24	; 0x02
    6210:	8d 81       	ldd	r24, Y+5	; 0x05
    6212:	20 e1       	ldi	r18, 0x10	; 16
    6214:	28 0f       	add	r18, r24
    6216:	ce 01       	movw	r24, r28
    6218:	02 96       	adiw	r24, 0x02	; 2
    621a:	41 e0       	ldi	r20, 0x01	; 1
    621c:	bc 01       	movw	r22, r24
    621e:	82 2f       	mov	r24, r18
    6220:	0e 94 d2 31 	call	0x63a4	; 0x63a4 <_Z17si5351_write_bulkhPhh>
    6224:	88 23       	and	r24, r24
    6226:	19 f0       	breq	.+6      	; 0x622e <si5351_drive_strength+0xb2>
    6228:	8b ef       	ldi	r24, 0xFB	; 251
    622a:	90 e0       	ldi	r25, 0x00	; 0
    622c:	02 c0       	rjmp	.+4      	; 0x6232 <si5351_drive_strength+0xb6>
    622e:	80 e0       	ldi	r24, 0x00	; 0
    6230:	90 e0       	ldi	r25, 0x00	; 0
    6232:	28 96       	adiw	r28, 0x08	; 8
    6234:	cd bf       	out	0x3d, r28	; 61
    6236:	de bf       	out	0x3e, r29	; 62
    6238:	df 91       	pop	r29
    623a:	cf 91       	pop	r28
    623c:	08 95       	ret

0000623e <_Z13reduce_by_gcdPmS_>:
    623e:	cf 93       	push	r28
    6240:	df 93       	push	r29
    6242:	cd b7       	in	r28, 0x3d	; 61
    6244:	de b7       	in	r29, 0x3e	; 62
    6246:	60 97       	sbiw	r28, 0x10	; 16
    6248:	cd bf       	out	0x3d, r28	; 61
    624a:	de bf       	out	0x3e, r29	; 62
    624c:	8d 87       	std	Y+13, r24	; 0x0d
    624e:	9e 87       	std	Y+14, r25	; 0x0e
    6250:	6f 87       	std	Y+15, r22	; 0x0f
    6252:	78 8b       	std	Y+16, r23	; 0x10
    6254:	8d 85       	ldd	r24, Y+13	; 0x0d
    6256:	9e 85       	ldd	r25, Y+14	; 0x0e
    6258:	fc 01       	movw	r30, r24
    625a:	80 81       	ld	r24, Z
    625c:	91 81       	ldd	r25, Z+1	; 0x01
    625e:	a2 81       	ldd	r26, Z+2	; 0x02
    6260:	b3 81       	ldd	r27, Z+3	; 0x03
    6262:	89 87       	std	Y+9, r24	; 0x09
    6264:	9a 87       	std	Y+10, r25	; 0x0a
    6266:	ab 87       	std	Y+11, r26	; 0x0b
    6268:	bc 87       	std	Y+12, r27	; 0x0c
    626a:	8f 85       	ldd	r24, Y+15	; 0x0f
    626c:	98 89       	ldd	r25, Y+16	; 0x10
    626e:	fc 01       	movw	r30, r24
    6270:	80 81       	ld	r24, Z
    6272:	91 81       	ldd	r25, Z+1	; 0x01
    6274:	a2 81       	ldd	r26, Z+2	; 0x02
    6276:	b3 81       	ldd	r27, Z+3	; 0x03
    6278:	8d 83       	std	Y+5, r24	; 0x05
    627a:	9e 83       	std	Y+6, r25	; 0x06
    627c:	af 83       	std	Y+7, r26	; 0x07
    627e:	b8 87       	std	Y+8, r27	; 0x08
    6280:	89 85       	ldd	r24, Y+9	; 0x09
    6282:	9a 85       	ldd	r25, Y+10	; 0x0a
    6284:	ab 85       	ldd	r26, Y+11	; 0x0b
    6286:	bc 85       	ldd	r27, Y+12	; 0x0c
    6288:	89 2b       	or	r24, r25
    628a:	8a 2b       	or	r24, r26
    628c:	8b 2b       	or	r24, r27
    628e:	09 f4       	brne	.+2      	; 0x6292 <_Z13reduce_by_gcdPmS_+0x54>
    6290:	80 c0       	rjmp	.+256    	; 0x6392 <_Z13reduce_by_gcdPmS_+0x154>
    6292:	8d 81       	ldd	r24, Y+5	; 0x05
    6294:	9e 81       	ldd	r25, Y+6	; 0x06
    6296:	af 81       	ldd	r26, Y+7	; 0x07
    6298:	b8 85       	ldd	r27, Y+8	; 0x08
    629a:	89 2b       	or	r24, r25
    629c:	8a 2b       	or	r24, r26
    629e:	8b 2b       	or	r24, r27
    62a0:	09 f4       	brne	.+2      	; 0x62a4 <_Z13reduce_by_gcdPmS_+0x66>
    62a2:	77 c0       	rjmp	.+238    	; 0x6392 <_Z13reduce_by_gcdPmS_+0x154>
    62a4:	89 85       	ldd	r24, Y+9	; 0x09
    62a6:	9a 85       	ldd	r25, Y+10	; 0x0a
    62a8:	ab 85       	ldd	r26, Y+11	; 0x0b
    62aa:	bc 85       	ldd	r27, Y+12	; 0x0c
    62ac:	2d 81       	ldd	r18, Y+5	; 0x05
    62ae:	3e 81       	ldd	r19, Y+6	; 0x06
    62b0:	4f 81       	ldd	r20, Y+7	; 0x07
    62b2:	58 85       	ldd	r21, Y+8	; 0x08
    62b4:	bc 01       	movw	r22, r24
    62b6:	cd 01       	movw	r24, r26
    62b8:	0e 94 eb 3a 	call	0x75d6	; 0x75d6 <__udivmodsi4>
    62bc:	dc 01       	movw	r26, r24
    62be:	cb 01       	movw	r24, r22
    62c0:	89 83       	std	Y+1, r24	; 0x01
    62c2:	9a 83       	std	Y+2, r25	; 0x02
    62c4:	ab 83       	std	Y+3, r26	; 0x03
    62c6:	bc 83       	std	Y+4, r27	; 0x04
    62c8:	89 81       	ldd	r24, Y+1	; 0x01
    62ca:	9a 81       	ldd	r25, Y+2	; 0x02
    62cc:	ab 81       	ldd	r26, Y+3	; 0x03
    62ce:	bc 81       	ldd	r27, Y+4	; 0x04
    62d0:	89 2b       	or	r24, r25
    62d2:	8a 2b       	or	r24, r26
    62d4:	8b 2b       	or	r24, r27
    62d6:	19 f1       	breq	.+70     	; 0x631e <_Z13reduce_by_gcdPmS_+0xe0>
    62d8:	8d 81       	ldd	r24, Y+5	; 0x05
    62da:	9e 81       	ldd	r25, Y+6	; 0x06
    62dc:	af 81       	ldd	r26, Y+7	; 0x07
    62de:	b8 85       	ldd	r27, Y+8	; 0x08
    62e0:	89 87       	std	Y+9, r24	; 0x09
    62e2:	9a 87       	std	Y+10, r25	; 0x0a
    62e4:	ab 87       	std	Y+11, r26	; 0x0b
    62e6:	bc 87       	std	Y+12, r27	; 0x0c
    62e8:	89 81       	ldd	r24, Y+1	; 0x01
    62ea:	9a 81       	ldd	r25, Y+2	; 0x02
    62ec:	ab 81       	ldd	r26, Y+3	; 0x03
    62ee:	bc 81       	ldd	r27, Y+4	; 0x04
    62f0:	8d 83       	std	Y+5, r24	; 0x05
    62f2:	9e 83       	std	Y+6, r25	; 0x06
    62f4:	af 83       	std	Y+7, r26	; 0x07
    62f6:	b8 87       	std	Y+8, r27	; 0x08
    62f8:	89 85       	ldd	r24, Y+9	; 0x09
    62fa:	9a 85       	ldd	r25, Y+10	; 0x0a
    62fc:	ab 85       	ldd	r26, Y+11	; 0x0b
    62fe:	bc 85       	ldd	r27, Y+12	; 0x0c
    6300:	2d 81       	ldd	r18, Y+5	; 0x05
    6302:	3e 81       	ldd	r19, Y+6	; 0x06
    6304:	4f 81       	ldd	r20, Y+7	; 0x07
    6306:	58 85       	ldd	r21, Y+8	; 0x08
    6308:	bc 01       	movw	r22, r24
    630a:	cd 01       	movw	r24, r26
    630c:	0e 94 eb 3a 	call	0x75d6	; 0x75d6 <__udivmodsi4>
    6310:	dc 01       	movw	r26, r24
    6312:	cb 01       	movw	r24, r22
    6314:	89 83       	std	Y+1, r24	; 0x01
    6316:	9a 83       	std	Y+2, r25	; 0x02
    6318:	ab 83       	std	Y+3, r26	; 0x03
    631a:	bc 83       	std	Y+4, r27	; 0x04
    631c:	d5 cf       	rjmp	.-86     	; 0x62c8 <_Z13reduce_by_gcdPmS_+0x8a>
    631e:	8d 81       	ldd	r24, Y+5	; 0x05
    6320:	9e 81       	ldd	r25, Y+6	; 0x06
    6322:	af 81       	ldd	r26, Y+7	; 0x07
    6324:	b8 85       	ldd	r27, Y+8	; 0x08
    6326:	02 97       	sbiw	r24, 0x02	; 2
    6328:	a1 05       	cpc	r26, r1
    632a:	b1 05       	cpc	r27, r1
    632c:	a0 f1       	brcs	.+104    	; 0x6396 <_Z13reduce_by_gcdPmS_+0x158>
    632e:	8d 85       	ldd	r24, Y+13	; 0x0d
    6330:	9e 85       	ldd	r25, Y+14	; 0x0e
    6332:	fc 01       	movw	r30, r24
    6334:	80 81       	ld	r24, Z
    6336:	91 81       	ldd	r25, Z+1	; 0x01
    6338:	a2 81       	ldd	r26, Z+2	; 0x02
    633a:	b3 81       	ldd	r27, Z+3	; 0x03
    633c:	2d 81       	ldd	r18, Y+5	; 0x05
    633e:	3e 81       	ldd	r19, Y+6	; 0x06
    6340:	4f 81       	ldd	r20, Y+7	; 0x07
    6342:	58 85       	ldd	r21, Y+8	; 0x08
    6344:	bc 01       	movw	r22, r24
    6346:	cd 01       	movw	r24, r26
    6348:	0e 94 eb 3a 	call	0x75d6	; 0x75d6 <__udivmodsi4>
    634c:	da 01       	movw	r26, r20
    634e:	c9 01       	movw	r24, r18
    6350:	2d 85       	ldd	r18, Y+13	; 0x0d
    6352:	3e 85       	ldd	r19, Y+14	; 0x0e
    6354:	f9 01       	movw	r30, r18
    6356:	80 83       	st	Z, r24
    6358:	91 83       	std	Z+1, r25	; 0x01
    635a:	a2 83       	std	Z+2, r26	; 0x02
    635c:	b3 83       	std	Z+3, r27	; 0x03
    635e:	8f 85       	ldd	r24, Y+15	; 0x0f
    6360:	98 89       	ldd	r25, Y+16	; 0x10
    6362:	fc 01       	movw	r30, r24
    6364:	80 81       	ld	r24, Z
    6366:	91 81       	ldd	r25, Z+1	; 0x01
    6368:	a2 81       	ldd	r26, Z+2	; 0x02
    636a:	b3 81       	ldd	r27, Z+3	; 0x03
    636c:	2d 81       	ldd	r18, Y+5	; 0x05
    636e:	3e 81       	ldd	r19, Y+6	; 0x06
    6370:	4f 81       	ldd	r20, Y+7	; 0x07
    6372:	58 85       	ldd	r21, Y+8	; 0x08
    6374:	bc 01       	movw	r22, r24
    6376:	cd 01       	movw	r24, r26
    6378:	0e 94 eb 3a 	call	0x75d6	; 0x75d6 <__udivmodsi4>
    637c:	da 01       	movw	r26, r20
    637e:	c9 01       	movw	r24, r18
    6380:	2f 85       	ldd	r18, Y+15	; 0x0f
    6382:	38 89       	ldd	r19, Y+16	; 0x10
    6384:	f9 01       	movw	r30, r18
    6386:	80 83       	st	Z, r24
    6388:	91 83       	std	Z+1, r25	; 0x01
    638a:	a2 83       	std	Z+2, r26	; 0x02
    638c:	b3 83       	std	Z+3, r27	; 0x03
    638e:	00 00       	nop
    6390:	02 c0       	rjmp	.+4      	; 0x6396 <_Z13reduce_by_gcdPmS_+0x158>
    6392:	00 00       	nop
    6394:	01 c0       	rjmp	.+2      	; 0x6398 <_Z13reduce_by_gcdPmS_+0x15a>
    6396:	00 00       	nop
    6398:	60 96       	adiw	r28, 0x10	; 16
    639a:	cd bf       	out	0x3d, r28	; 61
    639c:	de bf       	out	0x3e, r29	; 62
    639e:	df 91       	pop	r29
    63a0:	cf 91       	pop	r28
    63a2:	08 95       	ret

000063a4 <_Z17si5351_write_bulkhPhh>:
    63a4:	cf 93       	push	r28
    63a6:	df 93       	push	r29
    63a8:	cd b7       	in	r28, 0x3d	; 61
    63aa:	de b7       	in	r29, 0x3e	; 62
    63ac:	26 97       	sbiw	r28, 0x06	; 6
    63ae:	cd bf       	out	0x3d, r28	; 61
    63b0:	de bf       	out	0x3e, r29	; 62
    63b2:	8b 83       	std	Y+3, r24	; 0x03
    63b4:	6c 83       	std	Y+4, r22	; 0x04
    63b6:	7d 83       	std	Y+5, r23	; 0x05
    63b8:	4e 83       	std	Y+6, r20	; 0x06
    63ba:	85 e0       	ldi	r24, 0x05	; 5
    63bc:	89 83       	std	Y+1, r24	; 0x01
    63be:	89 81       	ldd	r24, Y+1	; 0x01
    63c0:	9f ef       	ldi	r25, 0xFF	; 255
    63c2:	98 0f       	add	r25, r24
    63c4:	99 83       	std	Y+1, r25	; 0x01
    63c6:	88 23       	and	r24, r24
    63c8:	a1 f0       	breq	.+40     	; 0x63f2 <_Z17si5351_write_bulkhPhh+0x4e>
    63ca:	8c 81       	ldd	r24, Y+4	; 0x04
    63cc:	9d 81       	ldd	r25, Y+5	; 0x05
    63ce:	2e 81       	ldd	r18, Y+6	; 0x06
    63d0:	ac 01       	movw	r20, r24
    63d2:	6b 81       	ldd	r22, Y+3	; 0x03
    63d4:	80 ec       	ldi	r24, 0xC0	; 192
    63d6:	0e 94 65 22 	call	0x44ca	; 0x44ca <I2C_0_SendData>
    63da:	28 2f       	mov	r18, r24
    63dc:	81 e0       	ldi	r24, 0x01	; 1
    63de:	9e 81       	ldd	r25, Y+6	; 0x06
    63e0:	92 17       	cp	r25, r18
    63e2:	09 f4       	brne	.+2      	; 0x63e6 <_Z17si5351_write_bulkhPhh+0x42>
    63e4:	80 e0       	ldi	r24, 0x00	; 0
    63e6:	8a 83       	std	Y+2, r24	; 0x02
    63e8:	8a 81       	ldd	r24, Y+2	; 0x02
    63ea:	88 23       	and	r24, r24
    63ec:	11 f0       	breq	.+4      	; 0x63f2 <_Z17si5351_write_bulkhPhh+0x4e>
    63ee:	81 e0       	ldi	r24, 0x01	; 1
    63f0:	01 c0       	rjmp	.+2      	; 0x63f4 <_Z17si5351_write_bulkhPhh+0x50>
    63f2:	80 e0       	ldi	r24, 0x00	; 0
    63f4:	88 23       	and	r24, r24
    63f6:	09 f0       	breq	.+2      	; 0x63fa <_Z17si5351_write_bulkhPhh+0x56>
    63f8:	e2 cf       	rjmp	.-60     	; 0x63be <_Z17si5351_write_bulkhPhh+0x1a>
    63fa:	8a 81       	ldd	r24, Y+2	; 0x02
    63fc:	26 96       	adiw	r28, 0x06	; 6
    63fe:	cd bf       	out	0x3d, r28	; 61
    6400:	de bf       	out	0x3e, r29	; 62
    6402:	df 91       	pop	r29
    6404:	cf 91       	pop	r28
    6406:	08 95       	ret

00006408 <_Z16si5351_read_bulkhPhh>:
    6408:	cf 93       	push	r28
    640a:	df 93       	push	r29
    640c:	cd b7       	in	r28, 0x3d	; 61
    640e:	de b7       	in	r29, 0x3e	; 62
    6410:	26 97       	sbiw	r28, 0x06	; 6
    6412:	cd bf       	out	0x3d, r28	; 61
    6414:	de bf       	out	0x3e, r29	; 62
    6416:	8b 83       	std	Y+3, r24	; 0x03
    6418:	6c 83       	std	Y+4, r22	; 0x04
    641a:	7d 83       	std	Y+5, r23	; 0x05
    641c:	4e 83       	std	Y+6, r20	; 0x06
    641e:	85 e0       	ldi	r24, 0x05	; 5
    6420:	89 83       	std	Y+1, r24	; 0x01
    6422:	89 81       	ldd	r24, Y+1	; 0x01
    6424:	9f ef       	ldi	r25, 0xFF	; 255
    6426:	98 0f       	add	r25, r24
    6428:	99 83       	std	Y+1, r25	; 0x01
    642a:	88 23       	and	r24, r24
    642c:	a1 f0       	breq	.+40     	; 0x6456 <_Z16si5351_read_bulkhPhh+0x4e>
    642e:	8c 81       	ldd	r24, Y+4	; 0x04
    6430:	9d 81       	ldd	r25, Y+5	; 0x05
    6432:	2e 81       	ldd	r18, Y+6	; 0x06
    6434:	ac 01       	movw	r20, r24
    6436:	6b 81       	ldd	r22, Y+3	; 0x03
    6438:	80 ec       	ldi	r24, 0xC0	; 192
    643a:	0e 94 cd 22 	call	0x459a	; 0x459a <I2C_0_GetData>
    643e:	28 2f       	mov	r18, r24
    6440:	81 e0       	ldi	r24, 0x01	; 1
    6442:	9e 81       	ldd	r25, Y+6	; 0x06
    6444:	92 17       	cp	r25, r18
    6446:	09 f4       	brne	.+2      	; 0x644a <_Z16si5351_read_bulkhPhh+0x42>
    6448:	80 e0       	ldi	r24, 0x00	; 0
    644a:	8a 83       	std	Y+2, r24	; 0x02
    644c:	8a 81       	ldd	r24, Y+2	; 0x02
    644e:	88 23       	and	r24, r24
    6450:	11 f0       	breq	.+4      	; 0x6456 <_Z16si5351_read_bulkhPhh+0x4e>
    6452:	81 e0       	ldi	r24, 0x01	; 1
    6454:	01 c0       	rjmp	.+2      	; 0x6458 <_Z16si5351_read_bulkhPhh+0x50>
    6456:	80 e0       	ldi	r24, 0x00	; 0
    6458:	88 23       	and	r24, r24
    645a:	09 f0       	breq	.+2      	; 0x645e <_Z16si5351_read_bulkhPhh+0x56>
    645c:	e2 cf       	rjmp	.-60     	; 0x6422 <_Z16si5351_read_bulkhPhh+0x1a>
    645e:	8a 81       	ldd	r24, Y+2	; 0x02
    6460:	26 96       	adiw	r28, 0x06	; 6
    6462:	cd bf       	out	0x3d, r28	; 61
    6464:	de bf       	out	0x3e, r29	; 62
    6466:	df 91       	pop	r29
    6468:	cf 91       	pop	r28
    646a:	08 95       	ret

0000646c <_Z31set_multisynth_registers_source12si5351_clock10si5351_pll>:
    646c:	cf 93       	push	r28
    646e:	df 93       	push	r29
    6470:	cd b7       	in	r28, 0x3d	; 61
    6472:	de b7       	in	r29, 0x3e	; 62
    6474:	27 97       	sbiw	r28, 0x07	; 7
    6476:	cd bf       	out	0x3d, r28	; 61
    6478:	de bf       	out	0x3e, r29	; 62
    647a:	8c 83       	std	Y+4, r24	; 0x04
    647c:	9d 83       	std	Y+5, r25	; 0x05
    647e:	6e 83       	std	Y+6, r22	; 0x06
    6480:	7f 83       	std	Y+7, r23	; 0x07
    6482:	8c 81       	ldd	r24, Y+4	; 0x04
    6484:	20 e1       	ldi	r18, 0x10	; 16
    6486:	28 0f       	add	r18, r24
    6488:	ce 01       	movw	r24, r28
    648a:	02 96       	adiw	r24, 0x02	; 2
    648c:	41 e0       	ldi	r20, 0x01	; 1
    648e:	bc 01       	movw	r22, r24
    6490:	82 2f       	mov	r24, r18
    6492:	0e 94 04 32 	call	0x6408	; 0x6408 <_Z16si5351_read_bulkhPhh>
    6496:	88 23       	and	r24, r24
    6498:	11 f0       	breq	.+4      	; 0x649e <_Z31set_multisynth_registers_source12si5351_clock10si5351_pll+0x32>
    649a:	81 e0       	ldi	r24, 0x01	; 1
    649c:	22 c0       	rjmp	.+68     	; 0x64e2 <_Z31set_multisynth_registers_source12si5351_clock10si5351_pll+0x76>
    649e:	8a 81       	ldd	r24, Y+2	; 0x02
    64a0:	89 83       	std	Y+1, r24	; 0x01
    64a2:	8e 81       	ldd	r24, Y+6	; 0x06
    64a4:	9f 81       	ldd	r25, Y+7	; 0x07
    64a6:	01 97       	sbiw	r24, 0x01	; 1
    64a8:	21 f4       	brne	.+8      	; 0x64b2 <_Z31set_multisynth_registers_source12si5351_clock10si5351_pll+0x46>
    64aa:	89 81       	ldd	r24, Y+1	; 0x01
    64ac:	8f 7d       	andi	r24, 0xDF	; 223
    64ae:	89 83       	std	Y+1, r24	; 0x01
    64b0:	07 c0       	rjmp	.+14     	; 0x64c0 <_Z31set_multisynth_registers_source12si5351_clock10si5351_pll+0x54>
    64b2:	8e 81       	ldd	r24, Y+6	; 0x06
    64b4:	9f 81       	ldd	r25, Y+7	; 0x07
    64b6:	02 97       	sbiw	r24, 0x02	; 2
    64b8:	19 f4       	brne	.+6      	; 0x64c0 <_Z31set_multisynth_registers_source12si5351_clock10si5351_pll+0x54>
    64ba:	89 81       	ldd	r24, Y+1	; 0x01
    64bc:	80 62       	ori	r24, 0x20	; 32
    64be:	89 83       	std	Y+1, r24	; 0x01
    64c0:	89 81       	ldd	r24, Y+1	; 0x01
    64c2:	8a 83       	std	Y+2, r24	; 0x02
    64c4:	8c 81       	ldd	r24, Y+4	; 0x04
    64c6:	20 e1       	ldi	r18, 0x10	; 16
    64c8:	28 0f       	add	r18, r24
    64ca:	ce 01       	movw	r24, r28
    64cc:	02 96       	adiw	r24, 0x02	; 2
    64ce:	41 e0       	ldi	r20, 0x01	; 1
    64d0:	bc 01       	movw	r22, r24
    64d2:	82 2f       	mov	r24, r18
    64d4:	0e 94 d2 31 	call	0x63a4	; 0x63a4 <_Z17si5351_write_bulkhPhh>
    64d8:	88 23       	and	r24, r24
    64da:	11 f0       	breq	.+4      	; 0x64e0 <_Z31set_multisynth_registers_source12si5351_clock10si5351_pll+0x74>
    64dc:	81 e0       	ldi	r24, 0x01	; 1
    64de:	01 c0       	rjmp	.+2      	; 0x64e2 <_Z31set_multisynth_registers_source12si5351_clock10si5351_pll+0x76>
    64e0:	80 e0       	ldi	r24, 0x00	; 0
    64e2:	27 96       	adiw	r28, 0x07	; 7
    64e4:	cd bf       	out	0x3d, r28	; 61
    64e6:	de bf       	out	0x3e, r29	; 62
    64e8:	df 91       	pop	r29
    64ea:	cf 91       	pop	r28
    64ec:	08 95       	ret

000064ee <_Z16set_integer_mode12si5351_clockb>:
    64ee:	cf 93       	push	r28
    64f0:	df 93       	push	r29
    64f2:	cd b7       	in	r28, 0x3d	; 61
    64f4:	de b7       	in	r29, 0x3e	; 62
    64f6:	26 97       	sbiw	r28, 0x06	; 6
    64f8:	cd bf       	out	0x3d, r28	; 61
    64fa:	de bf       	out	0x3e, r29	; 62
    64fc:	8c 83       	std	Y+4, r24	; 0x04
    64fe:	9d 83       	std	Y+5, r25	; 0x05
    6500:	6e 83       	std	Y+6, r22	; 0x06
    6502:	8c 81       	ldd	r24, Y+4	; 0x04
    6504:	20 e1       	ldi	r18, 0x10	; 16
    6506:	28 0f       	add	r18, r24
    6508:	ce 01       	movw	r24, r28
    650a:	02 96       	adiw	r24, 0x02	; 2
    650c:	41 e0       	ldi	r20, 0x01	; 1
    650e:	bc 01       	movw	r22, r24
    6510:	82 2f       	mov	r24, r18
    6512:	0e 94 04 32 	call	0x6408	; 0x6408 <_Z16si5351_read_bulkhPhh>
    6516:	88 23       	and	r24, r24
    6518:	11 f0       	breq	.+4      	; 0x651e <_Z16set_integer_mode12si5351_clockb+0x30>
    651a:	81 e0       	ldi	r24, 0x01	; 1
    651c:	18 c0       	rjmp	.+48     	; 0x654e <_Z16set_integer_mode12si5351_clockb+0x60>
    651e:	8a 81       	ldd	r24, Y+2	; 0x02
    6520:	89 83       	std	Y+1, r24	; 0x01
    6522:	8e 81       	ldd	r24, Y+6	; 0x06
    6524:	88 23       	and	r24, r24
    6526:	21 f0       	breq	.+8      	; 0x6530 <_Z16set_integer_mode12si5351_clockb+0x42>
    6528:	89 81       	ldd	r24, Y+1	; 0x01
    652a:	80 64       	ori	r24, 0x40	; 64
    652c:	89 83       	std	Y+1, r24	; 0x01
    652e:	03 c0       	rjmp	.+6      	; 0x6536 <_Z16set_integer_mode12si5351_clockb+0x48>
    6530:	89 81       	ldd	r24, Y+1	; 0x01
    6532:	8f 7b       	andi	r24, 0xBF	; 191
    6534:	89 83       	std	Y+1, r24	; 0x01
    6536:	89 81       	ldd	r24, Y+1	; 0x01
    6538:	8a 83       	std	Y+2, r24	; 0x02
    653a:	8c 81       	ldd	r24, Y+4	; 0x04
    653c:	20 e1       	ldi	r18, 0x10	; 16
    653e:	28 0f       	add	r18, r24
    6540:	ce 01       	movw	r24, r28
    6542:	02 96       	adiw	r24, 0x02	; 2
    6544:	41 e0       	ldi	r20, 0x01	; 1
    6546:	bc 01       	movw	r22, r24
    6548:	82 2f       	mov	r24, r18
    654a:	0e 94 d2 31 	call	0x63a4	; 0x63a4 <_Z17si5351_write_bulkhPhh>
    654e:	26 96       	adiw	r28, 0x06	; 6
    6550:	cd bf       	out	0x3d, r28	; 61
    6552:	de bf       	out	0x3e, r29	; 62
    6554:	df 91       	pop	r29
    6556:	cf 91       	pop	r28
    6558:	08 95       	ret

0000655a <_Z21si5351_set_CLK1_phaseh>:
 * Sets the clock phase.
 *  https://www.skyworksinc.com/-/media/Skyworks/SL/documents/public/application-notes/AN619.pdf
 * CLKx_PHOFF[4:0] = Round( DesiredOffset(sec) x 4 x Fvco)
 */
	EC si5351_set_CLK1_phase(uint8_t steps)
	{
    655a:	cf 93       	push	r28
    655c:	df 93       	push	r29
    655e:	cd b7       	in	r28, 0x3d	; 61
    6560:	de b7       	in	r29, 0x3e	; 62
    6562:	26 97       	sbiw	r28, 0x06	; 6
    6564:	cd bf       	out	0x3d, r28	; 61
    6566:	de bf       	out	0x3e, r29	; 62
    6568:	8e 83       	std	Y+6, r24	; 0x06
		EC err = ERROR_CODE_NO_ERROR;
    656a:	19 82       	std	Y+1, r1	; 0x01
    656c:	1a 82       	std	Y+2, r1	; 0x02
		uint8_t data[2];
		const uint8_t mask = 0x7F;
    656e:	8f e7       	ldi	r24, 0x7F	; 127
    6570:	8b 83       	std	Y+3, r24	; 0x03
		
		if(steps > mask)
    6572:	8e 81       	ldd	r24, Y+6	; 0x06
    6574:	88 23       	and	r24, r24
    6576:	34 f4       	brge	.+12     	; 0x6584 <_Z21si5351_set_CLK1_phaseh+0x2a>
		{
			err = ERROR_CODE_SW_LOGIC_ERROR;
    6578:	8f ec       	ldi	r24, 0xCF	; 207
    657a:	90 e0       	ldi	r25, 0x00	; 0
    657c:	89 83       	std	Y+1, r24	; 0x01
    657e:	9a 83       	std	Y+2, r25	; 0x02
			steps = mask;
    6580:	8f e7       	ldi	r24, 0x7F	; 127
    6582:	8e 83       	std	Y+6, r24	; 0x06
		}
		
		data[0] = steps & mask;
    6584:	8e 81       	ldd	r24, Y+6	; 0x06
    6586:	8f 77       	andi	r24, 0x7F	; 127
    6588:	8c 83       	std	Y+4, r24	; 0x04
		if(si5351_write_bulk(SI5351_CLK1_PHASE_OFFSET, data, 1)) return ERROR_CODE_CLKGEN_NONRESPONSIVE;
    658a:	ce 01       	movw	r24, r28
    658c:	04 96       	adiw	r24, 0x04	; 4
    658e:	41 e0       	ldi	r20, 0x01	; 1
    6590:	bc 01       	movw	r22, r24
    6592:	86 ea       	ldi	r24, 0xA6	; 166
    6594:	0e 94 d2 31 	call	0x63a4	; 0x63a4 <_Z17si5351_write_bulkhPhh>
    6598:	88 23       	and	r24, r24
    659a:	19 f0       	breq	.+6      	; 0x65a2 <_Z21si5351_set_CLK1_phaseh+0x48>
    659c:	8b ef       	ldi	r24, 0xFB	; 251
    659e:	90 e0       	ldi	r25, 0x00	; 0
    65a0:	02 c0       	rjmp	.+4      	; 0x65a6 <_Z21si5351_set_CLK1_phaseh+0x4c>

		return err;
    65a2:	89 81       	ldd	r24, Y+1	; 0x01
    65a4:	9a 81       	ldd	r25, Y+2	; 0x02
	}
    65a6:	26 96       	adiw	r28, 0x06	; 6
    65a8:	cd bf       	out	0x3d, r28	; 61
    65aa:	de bf       	out	0x3e, r29	; 62
    65ac:	df 91       	pop	r29
    65ae:	cf 91       	pop	r28
    65b0:	08 95       	ret

000065b2 <si5351_get_status>:

uint8_t si5351_get_status()
{
    65b2:	cf 93       	push	r28
    65b4:	df 93       	push	r29
    65b6:	00 d0       	rcall	.+0      	; 0x65b8 <si5351_get_status+0x6>
    65b8:	1f 92       	push	r1
    65ba:	cd b7       	in	r28, 0x3d	; 61
    65bc:	de b7       	in	r29, 0x3e	; 62
	uint8_t reg_addr = SI5351_DEVICE_STATUS;
    65be:	19 82       	std	Y+1, r1	; 0x01
	uint8_t data[2];

	if(si5351_read_bulk(reg_addr, data, 1))
    65c0:	ce 01       	movw	r24, r28
    65c2:	02 96       	adiw	r24, 0x02	; 2
    65c4:	41 e0       	ldi	r20, 0x01	; 1
    65c6:	bc 01       	movw	r22, r24
    65c8:	89 81       	ldd	r24, Y+1	; 0x01
    65ca:	0e 94 04 32 	call	0x6408	; 0x6408 <_Z16si5351_read_bulkhPhh>
    65ce:	88 23       	and	r24, r24
    65d0:	11 f0       	breq	.+4      	; 0x65d6 <si5351_get_status+0x24>
	{
		return(0);
    65d2:	80 e0       	ldi	r24, 0x00	; 0
    65d4:	01 c0       	rjmp	.+2      	; 0x65d8 <si5351_get_status+0x26>
	}
	
	return(data[0]);
    65d6:	8a 81       	ldd	r24, Y+2	; 0x02
}
    65d8:	23 96       	adiw	r28, 0x03	; 3
    65da:	cd bf       	out	0x3d, r28	; 61
    65dc:	de bf       	out	0x3e, r29	; 62
    65de:	df 91       	pop	r29
    65e0:	cf 91       	pop	r28
    65e2:	08 95       	ret

000065e4 <SLPCTRL_init>:
 * \brief Initialize Sleep Controller
 *
 * \return Initialization status.
 */
int8_t SLPCTRL_init()
{
    65e4:	cf 93       	push	r28
    65e6:	df 93       	push	r29
    65e8:	cd b7       	in	r28, 0x3d	; 61
    65ea:	de b7       	in	r29, 0x3e	; 62

	SLPCTRL.CTRLA = 0 << SLPCTRL_SEN_bp; /* Sleep enable: disabled */
    65ec:	80 e5       	ldi	r24, 0x50	; 80
    65ee:	90 e0       	ldi	r25, 0x00	; 0
    65f0:	fc 01       	movw	r30, r24
    65f2:	10 82       	st	Z, r1
//			 | SLPCTRL_SMODE_IDLE_gc;  /* Idle mode */
//			 | SLPCTRL_SMODE_STDBY_gc; /* Standby Mode */
//			 | SLPCTRL_SMODE_PDOWN_gc; /* Power-down Mode */

	return 0;
    65f4:	80 e0       	ldi	r24, 0x00	; 0
}
    65f6:	df 91       	pop	r29
    65f8:	cf 91       	pop	r28
    65fa:	08 95       	ret

000065fc <SLPCTRL_set_sleep_mode>:

void SLPCTRL_set_sleep_mode(SLPCTRL_SMODE_t setmode)
{
    65fc:	cf 93       	push	r28
    65fe:	df 93       	push	r29
    6600:	00 d0       	rcall	.+0      	; 0x6602 <SLPCTRL_set_sleep_mode+0x6>
    6602:	cd b7       	in	r28, 0x3d	; 61
    6604:	de b7       	in	r29, 0x3e	; 62
    6606:	89 83       	std	Y+1, r24	; 0x01
    6608:	9a 83       	std	Y+2, r25	; 0x02
	SLPCTRL.CTRLA = (SLPCTRL.CTRLA & ~SLPCTRL_SMODE_gm) | (setmode & SLPCTRL_SMODE_gm);
    660a:	80 e5       	ldi	r24, 0x50	; 80
    660c:	90 e0       	ldi	r25, 0x00	; 0
    660e:	fc 01       	movw	r30, r24
    6610:	80 81       	ld	r24, Z
    6612:	98 2f       	mov	r25, r24
    6614:	99 7f       	andi	r25, 0xF9	; 249
    6616:	89 81       	ldd	r24, Y+1	; 0x01
    6618:	86 70       	andi	r24, 0x06	; 6
    661a:	29 2f       	mov	r18, r25
    661c:	28 2b       	or	r18, r24
    661e:	80 e5       	ldi	r24, 0x50	; 80
    6620:	90 e0       	ldi	r25, 0x00	; 0
    6622:	fc 01       	movw	r30, r24
    6624:	20 83       	st	Z, r18
}
    6626:	00 00       	nop
    6628:	0f 90       	pop	r0
    662a:	0f 90       	pop	r0
    662c:	df 91       	pop	r29
    662e:	cf 91       	pop	r28
    6630:	08 95       	ret

00006632 <PORTE_set_pin_pull_mode>:
 *
 * \param[in] pin       The pin number within port
 * \param[in] pull_mode Pin pull mode
 */
static inline void PORTE_set_pin_pull_mode(const uint8_t pin, const enum port_pull_mode pull_mode)
{
    6632:	cf 93       	push	r28
    6634:	df 93       	push	r29
    6636:	cd b7       	in	r28, 0x3d	; 61
    6638:	de b7       	in	r29, 0x3e	; 62
    663a:	25 97       	sbiw	r28, 0x05	; 5
    663c:	cd bf       	out	0x3d, r28	; 61
    663e:	de bf       	out	0x3e, r29	; 62
    6640:	8b 83       	std	Y+3, r24	; 0x03
    6642:	6c 83       	std	Y+4, r22	; 0x04
    6644:	7d 83       	std	Y+5, r23	; 0x05
	volatile uint8_t *port_pin_ctrl = ((uint8_t *)&PORTE + 0x10 + pin);
    6646:	8b 81       	ldd	r24, Y+3	; 0x03
    6648:	88 2f       	mov	r24, r24
    664a:	90 e0       	ldi	r25, 0x00	; 0
    664c:	80 57       	subi	r24, 0x70	; 112
    664e:	9b 4f       	sbci	r25, 0xFB	; 251
    6650:	89 83       	std	Y+1, r24	; 0x01
    6652:	9a 83       	std	Y+2, r25	; 0x02

	if (pull_mode == PORT_PULL_UP) {
    6654:	8c 81       	ldd	r24, Y+4	; 0x04
    6656:	9d 81       	ldd	r25, Y+5	; 0x05
    6658:	01 97       	sbiw	r24, 0x01	; 1
    665a:	59 f4       	brne	.+22     	; 0x6672 <PORTE_set_pin_pull_mode+0x40>
		*port_pin_ctrl |= PORT_PULLUPEN_bm;
    665c:	89 81       	ldd	r24, Y+1	; 0x01
    665e:	9a 81       	ldd	r25, Y+2	; 0x02
    6660:	fc 01       	movw	r30, r24
    6662:	80 81       	ld	r24, Z
    6664:	28 2f       	mov	r18, r24
    6666:	28 60       	ori	r18, 0x08	; 8
    6668:	89 81       	ldd	r24, Y+1	; 0x01
    666a:	9a 81       	ldd	r25, Y+2	; 0x02
    666c:	fc 01       	movw	r30, r24
    666e:	20 83       	st	Z, r18
	} else if (pull_mode == PORT_PULL_OFF) {
		*port_pin_ctrl &= ~PORT_PULLUPEN_bm;
	}
}
    6670:	0e c0       	rjmp	.+28     	; 0x668e <PORTE_set_pin_pull_mode+0x5c>
{
	volatile uint8_t *port_pin_ctrl = ((uint8_t *)&PORTE + 0x10 + pin);

	if (pull_mode == PORT_PULL_UP) {
		*port_pin_ctrl |= PORT_PULLUPEN_bm;
	} else if (pull_mode == PORT_PULL_OFF) {
    6672:	8c 81       	ldd	r24, Y+4	; 0x04
    6674:	9d 81       	ldd	r25, Y+5	; 0x05
    6676:	89 2b       	or	r24, r25
    6678:	51 f4       	brne	.+20     	; 0x668e <PORTE_set_pin_pull_mode+0x5c>
		*port_pin_ctrl &= ~PORT_PULLUPEN_bm;
    667a:	89 81       	ldd	r24, Y+1	; 0x01
    667c:	9a 81       	ldd	r25, Y+2	; 0x02
    667e:	fc 01       	movw	r30, r24
    6680:	80 81       	ld	r24, Z
    6682:	28 2f       	mov	r18, r24
    6684:	27 7f       	andi	r18, 0xF7	; 247
    6686:	89 81       	ldd	r24, Y+1	; 0x01
    6688:	9a 81       	ldd	r25, Y+2	; 0x02
    668a:	fc 01       	movw	r30, r24
    668c:	20 83       	st	Z, r18
	}
}
    668e:	00 00       	nop
    6690:	25 96       	adiw	r28, 0x05	; 5
    6692:	cd bf       	out	0x3d, r28	; 61
    6694:	de bf       	out	0x3e, r29	; 62
    6696:	df 91       	pop	r29
    6698:	cf 91       	pop	r28
    669a:	08 95       	ret

0000669c <PORTE_set_pin_dir>:
 *                      PORT_DIR_OUT = Data direction out
 *                      PORT_DIR_OFF = Disables the pin
 *                      (low power state)
 */
static inline void PORTE_set_pin_dir(const uint8_t pin, const enum port_dir dir)
{
    669c:	cf 93       	push	r28
    669e:	df 93       	push	r29
    66a0:	00 d0       	rcall	.+0      	; 0x66a2 <PORTE_set_pin_dir+0x6>
    66a2:	1f 92       	push	r1
    66a4:	cd b7       	in	r28, 0x3d	; 61
    66a6:	de b7       	in	r29, 0x3e	; 62
    66a8:	89 83       	std	Y+1, r24	; 0x01
    66aa:	6a 83       	std	Y+2, r22	; 0x02
    66ac:	7b 83       	std	Y+3, r23	; 0x03
	switch (dir) {
    66ae:	8a 81       	ldd	r24, Y+2	; 0x02
    66b0:	9b 81       	ldd	r25, Y+3	; 0x03
    66b2:	81 30       	cpi	r24, 0x01	; 1
    66b4:	91 05       	cpc	r25, r1
    66b6:	e9 f0       	breq	.+58     	; 0x66f2 <PORTE_set_pin_dir+0x56>
    66b8:	82 30       	cpi	r24, 0x02	; 2
    66ba:	91 05       	cpc	r25, r1
    66bc:	81 f1       	breq	.+96     	; 0x671e <PORTE_set_pin_dir+0x82>
    66be:	89 2b       	or	r24, r25
    66c0:	09 f0       	breq	.+2      	; 0x66c4 <PORTE_set_pin_dir+0x28>
		break;
	case PORT_DIR_OFF:
		*((uint8_t *)&PORTE + 0x10 + pin) |= 1 << PORT_PULLUPEN_bp;
		break;
	default:
		break;
    66c2:	3d c0       	rjmp	.+122    	; 0x673e <PORTE_set_pin_dir+0xa2>
 */
static inline void PORTE_set_pin_dir(const uint8_t pin, const enum port_dir dir)
{
	switch (dir) {
	case PORT_DIR_IN:
		VPORTE.DIR &= ~(1 << pin);
    66c4:	80 e1       	ldi	r24, 0x10	; 16
    66c6:	90 e0       	ldi	r25, 0x00	; 0
    66c8:	fc 01       	movw	r30, r24
    66ca:	80 81       	ld	r24, Z
    66cc:	48 2f       	mov	r20, r24
    66ce:	89 81       	ldd	r24, Y+1	; 0x01
    66d0:	28 2f       	mov	r18, r24
    66d2:	30 e0       	ldi	r19, 0x00	; 0
    66d4:	81 e0       	ldi	r24, 0x01	; 1
    66d6:	90 e0       	ldi	r25, 0x00	; 0
    66d8:	02 c0       	rjmp	.+4      	; 0x66de <PORTE_set_pin_dir+0x42>
    66da:	88 0f       	add	r24, r24
    66dc:	99 1f       	adc	r25, r25
    66de:	2a 95       	dec	r18
    66e0:	e2 f7       	brpl	.-8      	; 0x66da <PORTE_set_pin_dir+0x3e>
    66e2:	80 95       	com	r24
    66e4:	24 2f       	mov	r18, r20
    66e6:	28 23       	and	r18, r24
    66e8:	80 e1       	ldi	r24, 0x10	; 16
    66ea:	90 e0       	ldi	r25, 0x00	; 0
    66ec:	fc 01       	movw	r30, r24
    66ee:	20 83       	st	Z, r18
		break;
    66f0:	26 c0       	rjmp	.+76     	; 0x673e <PORTE_set_pin_dir+0xa2>
	case PORT_DIR_OUT:
		VPORTE.DIR |= (1 << pin);
    66f2:	80 e1       	ldi	r24, 0x10	; 16
    66f4:	90 e0       	ldi	r25, 0x00	; 0
    66f6:	fc 01       	movw	r30, r24
    66f8:	80 81       	ld	r24, Z
    66fa:	48 2f       	mov	r20, r24
    66fc:	89 81       	ldd	r24, Y+1	; 0x01
    66fe:	28 2f       	mov	r18, r24
    6700:	30 e0       	ldi	r19, 0x00	; 0
    6702:	81 e0       	ldi	r24, 0x01	; 1
    6704:	90 e0       	ldi	r25, 0x00	; 0
    6706:	02 c0       	rjmp	.+4      	; 0x670c <PORTE_set_pin_dir+0x70>
    6708:	88 0f       	add	r24, r24
    670a:	99 1f       	adc	r25, r25
    670c:	2a 95       	dec	r18
    670e:	e2 f7       	brpl	.-8      	; 0x6708 <PORTE_set_pin_dir+0x6c>
    6710:	24 2f       	mov	r18, r20
    6712:	28 2b       	or	r18, r24
    6714:	80 e1       	ldi	r24, 0x10	; 16
    6716:	90 e0       	ldi	r25, 0x00	; 0
    6718:	fc 01       	movw	r30, r24
    671a:	20 83       	st	Z, r18
		break;
    671c:	10 c0       	rjmp	.+32     	; 0x673e <PORTE_set_pin_dir+0xa2>
	case PORT_DIR_OFF:
		*((uint8_t *)&PORTE + 0x10 + pin) |= 1 << PORT_PULLUPEN_bp;
    671e:	89 81       	ldd	r24, Y+1	; 0x01
    6720:	88 2f       	mov	r24, r24
    6722:	90 e0       	ldi	r25, 0x00	; 0
    6724:	80 57       	subi	r24, 0x70	; 112
    6726:	9b 4f       	sbci	r25, 0xFB	; 251
    6728:	fc 01       	movw	r30, r24
    672a:	20 81       	ld	r18, Z
    672c:	89 81       	ldd	r24, Y+1	; 0x01
    672e:	88 2f       	mov	r24, r24
    6730:	90 e0       	ldi	r25, 0x00	; 0
    6732:	80 57       	subi	r24, 0x70	; 112
    6734:	9b 4f       	sbci	r25, 0xFB	; 251
    6736:	28 60       	ori	r18, 0x08	; 8
    6738:	fc 01       	movw	r30, r24
    673a:	20 83       	st	Z, r18
		break;
    673c:	00 00       	nop
	default:
		break;
	}
}
    673e:	00 00       	nop
    6740:	23 96       	adiw	r28, 0x03	; 3
    6742:	cd bf       	out	0x3d, r28	; 61
    6744:	de bf       	out	0x3e, r29	; 62
    6746:	df 91       	pop	r29
    6748:	cf 91       	pop	r28
    674a:	08 95       	ret

0000674c <TIMERA_init>:

uint16_t g_pwm_setting = 0;
#define MAX_PWM_SETTING (uint16_t)100

void TIMERA_init(void)
{
    674c:	cf 93       	push	r28
    674e:	df 93       	push	r29
    6750:	cd b7       	in	r28, 0x3d	; 61
    6752:	de b7       	in	r29, 0x3e	; 62
	output is set at BOTTOM and cleared on the compare match between the TCAn.CNT and TCAn.CMPn registers.
	CMPn = BOTTOM will produce a static low signal on WOn while CMPn > TOP will produce a static high signal on
	WOn.
	*/
	
	PORTE_set_pin_dir(PWM, PORT_DIR_OUT); /* PE2 */
    6754:	61 e0       	ldi	r22, 0x01	; 1
    6756:	70 e0       	ldi	r23, 0x00	; 0
    6758:	82 e0       	ldi	r24, 0x02	; 2
    675a:	0e 94 4e 33 	call	0x669c	; 0x669c <PORTE_set_pin_dir>
	PORTE_set_pin_dir(3, PORT_DIR_IN);
    675e:	60 e0       	ldi	r22, 0x00	; 0
    6760:	70 e0       	ldi	r23, 0x00	; 0
    6762:	83 e0       	ldi	r24, 0x03	; 3
    6764:	0e 94 4e 33 	call	0x669c	; 0x669c <PORTE_set_pin_dir>
	PORTE_set_pin_pull_mode(3, PORT_PULL_OFF);
    6768:	60 e0       	ldi	r22, 0x00	; 0
    676a:	70 e0       	ldi	r23, 0x00	; 0
    676c:	83 e0       	ldi	r24, 0x03	; 3
    676e:	0e 94 19 33 	call	0x6632	; 0x6632 <PORTE_set_pin_pull_mode>
#else
//	TCA0.SINGLE.PER = 0x0950; /* Set timer period to 10 kHz */
//	TCA0.SINGLE.PER = 0x03E8; /* Set timer period to 24 kHz */
//	TCA0.SINGLE.PER = 0x12A0; /* Set timer period to 5 kHz */
//	TCA0.SINGLE.PER = 0x2580; /* Set timer period to 2.5 kHz */
	PORTMUX.TCAROUTEA = PORTMUX_TCA0_PORTE_gc; /* PWM WO2 out on PE2 */
    6772:	80 ee       	ldi	r24, 0xE0	; 224
    6774:	95 e0       	ldi	r25, 0x05	; 5
    6776:	24 e0       	ldi	r18, 0x04	; 4
    6778:	fc 01       	movw	r30, r24
    677a:	26 83       	std	Z+6, r18	; 0x06
	TCA0.SINGLE.CTRLB = TCA_SINGLE_CMP2EN_bm | TCA_SINGLE_WGMODE_SINGLESLOPE_gc; /* Set waveform generation mode single-slope, and enable compare channel */
    677c:	80 e0       	ldi	r24, 0x00	; 0
    677e:	9a e0       	ldi	r25, 0x0A	; 10
    6780:	23 e4       	ldi	r18, 0x43	; 67
    6782:	fc 01       	movw	r30, r24
    6784:	21 83       	std	Z+1, r18	; 0x01
	setPWM(MAX_PWM_SETTING/2); /* Start at 50% duty cycle */
    6786:	82 e3       	ldi	r24, 0x32	; 50
    6788:	90 e0       	ldi	r25, 0x00	; 0
    678a:	0e 94 d4 33 	call	0x67a8	; 0x67a8 <setPWM>
	TCA0.SINGLE.CTRLA |= TCA_SINGLE_ENABLE_bm; /* enable TimerA0 */
    678e:	80 e0       	ldi	r24, 0x00	; 0
    6790:	9a e0       	ldi	r25, 0x0A	; 10
    6792:	fc 01       	movw	r30, r24
    6794:	20 81       	ld	r18, Z
    6796:	80 e0       	ldi	r24, 0x00	; 0
    6798:	9a e0       	ldi	r25, 0x0A	; 10
    679a:	21 60       	ori	r18, 0x01	; 1
    679c:	fc 01       	movw	r30, r24
    679e:	20 83       	st	Z, r18
#endif

// 	TCA1.SINGLE.PER = 0x0950; /* Set ADC timer to ~10 kHz */
// 	TCA1.SINGLE.INTCTRL |= TCA_SINGLE_OVF_bm;
// 	TCA1.SINGLE.CTRLA |= TCA_SINGLE_ENABLE_bm; /* enable TimerA1 */
}
    67a0:	00 00       	nop
    67a2:	df 91       	pop	r29
    67a4:	cf 91       	pop	r28
    67a6:	08 95       	ret

000067a8 <setPWM>:

void setPWM(uint16_t duty)
{
    67a8:	cf 93       	push	r28
    67aa:	df 93       	push	r29
    67ac:	cd b7       	in	r28, 0x3d	; 61
    67ae:	de b7       	in	r29, 0x3e	; 62
    67b0:	2e 97       	sbiw	r28, 0x0e	; 14
    67b2:	cd bf       	out	0x3d, r28	; 61
    67b4:	de bf       	out	0x3e, r29	; 62
    67b6:	8d 87       	std	Y+13, r24	; 0x0d
    67b8:	9e 87       	std	Y+14, r25	; 0x0e
	uint16_t dc = CLAMP((uint16_t)0, duty, MAX_PWM_SETTING);
    67ba:	8d 85       	ldd	r24, Y+13	; 0x0d
    67bc:	9e 85       	ldd	r25, Y+14	; 0x0e
    67be:	89 83       	std	Y+1, r24	; 0x01
    67c0:	9a 83       	std	Y+2, r25	; 0x02
    67c2:	1b 82       	std	Y+3, r1	; 0x03
    67c4:	1c 82       	std	Y+4, r1	; 0x04
    67c6:	84 e6       	ldi	r24, 0x64	; 100
    67c8:	90 e0       	ldi	r25, 0x00	; 0
    67ca:	8d 83       	std	Y+5, r24	; 0x05
    67cc:	9e 83       	std	Y+6, r25	; 0x06
    67ce:	29 81       	ldd	r18, Y+1	; 0x01
    67d0:	3a 81       	ldd	r19, Y+2	; 0x02
    67d2:	8d 81       	ldd	r24, Y+5	; 0x05
    67d4:	9e 81       	ldd	r25, Y+6	; 0x06
    67d6:	82 17       	cp	r24, r18
    67d8:	93 07       	cpc	r25, r19
    67da:	68 f0       	brcs	.+26     	; 0x67f6 <setPWM+0x4e>
    67dc:	29 81       	ldd	r18, Y+1	; 0x01
    67de:	3a 81       	ldd	r19, Y+2	; 0x02
    67e0:	8b 81       	ldd	r24, Y+3	; 0x03
    67e2:	9c 81       	ldd	r25, Y+4	; 0x04
    67e4:	28 17       	cp	r18, r24
    67e6:	39 07       	cpc	r19, r25
    67e8:	18 f4       	brcc	.+6      	; 0x67f0 <setPWM+0x48>
    67ea:	8b 81       	ldd	r24, Y+3	; 0x03
    67ec:	9c 81       	ldd	r25, Y+4	; 0x04
    67ee:	05 c0       	rjmp	.+10     	; 0x67fa <setPWM+0x52>
    67f0:	89 81       	ldd	r24, Y+1	; 0x01
    67f2:	9a 81       	ldd	r25, Y+2	; 0x02
    67f4:	02 c0       	rjmp	.+4      	; 0x67fa <setPWM+0x52>
    67f6:	8d 81       	ldd	r24, Y+5	; 0x05
    67f8:	9e 81       	ldd	r25, Y+6	; 0x06
    67fa:	8f 83       	std	Y+7, r24	; 0x07
    67fc:	98 87       	std	Y+8, r25	; 0x08
	
#ifdef TCA0_USE_SPLIT
	uint16_t newCMP = (((uint16_t)(TCA0.SPLIT.HPER) * dc) / MAX_PWM_SETTING);
	TCA0.SPLIT.HCMP0 = (uint8_t)newCMP;
#else
	uint32_t newCMP = (((uint32_t)(TCA0.SINGLE.PER) * dc) / MAX_PWM_SETTING);
    67fe:	80 e0       	ldi	r24, 0x00	; 0
    6800:	9a e0       	ldi	r25, 0x0A	; 10
    6802:	fc 01       	movw	r30, r24
    6804:	86 a1       	ldd	r24, Z+38	; 0x26
    6806:	97 a1       	ldd	r25, Z+39	; 0x27
    6808:	9c 01       	movw	r18, r24
    680a:	40 e0       	ldi	r20, 0x00	; 0
    680c:	50 e0       	ldi	r21, 0x00	; 0
    680e:	8f 81       	ldd	r24, Y+7	; 0x07
    6810:	98 85       	ldd	r25, Y+8	; 0x08
    6812:	cc 01       	movw	r24, r24
    6814:	a0 e0       	ldi	r26, 0x00	; 0
    6816:	b0 e0       	ldi	r27, 0x00	; 0
    6818:	bc 01       	movw	r22, r24
    681a:	cd 01       	movw	r24, r26
    681c:	0e 94 c7 3a 	call	0x758e	; 0x758e <__mulsi3>
    6820:	dc 01       	movw	r26, r24
    6822:	cb 01       	movw	r24, r22
    6824:	24 e6       	ldi	r18, 0x64	; 100
    6826:	30 e0       	ldi	r19, 0x00	; 0
    6828:	40 e0       	ldi	r20, 0x00	; 0
    682a:	50 e0       	ldi	r21, 0x00	; 0
    682c:	bc 01       	movw	r22, r24
    682e:	cd 01       	movw	r24, r26
    6830:	0e 94 eb 3a 	call	0x75d6	; 0x75d6 <__udivmodsi4>
    6834:	da 01       	movw	r26, r20
    6836:	c9 01       	movw	r24, r18
    6838:	89 87       	std	Y+9, r24	; 0x09
    683a:	9a 87       	std	Y+10, r25	; 0x0a
    683c:	ab 87       	std	Y+11, r26	; 0x0b
    683e:	bc 87       	std	Y+12, r27	; 0x0c
	TCA0.SINGLE.CMP2 = (uint16_t)newCMP;
    6840:	80 e0       	ldi	r24, 0x00	; 0
    6842:	9a e0       	ldi	r25, 0x0A	; 10
    6844:	29 85       	ldd	r18, Y+9	; 0x09
    6846:	3a 85       	ldd	r19, Y+10	; 0x0a
    6848:	fc 01       	movw	r30, r24
    684a:	24 a7       	std	Z+44, r18	; 0x2c
    684c:	35 a7       	std	Z+45, r19	; 0x2d
#endif

	g_pwm_setting = dc;
    684e:	8f 81       	ldd	r24, Y+7	; 0x07
    6850:	98 85       	ldd	r25, Y+8	; 0x08
    6852:	80 93 39 42 	sts	0x4239, r24	; 0x804239 <g_pwm_setting>
    6856:	90 93 3a 42 	sts	0x423A, r25	; 0x80423a <g_pwm_setting+0x1>
}
    685a:	00 00       	nop
    685c:	2e 96       	adiw	r28, 0x0e	; 14
    685e:	cd bf       	out	0x3d, r28	; 61
    6860:	de bf       	out	0x3e, r29	; 62
    6862:	df 91       	pop	r29
    6864:	cf 91       	pop	r28
    6866:	08 95       	ret

00006868 <getPWM>:

uint16_t getPWM(void)
{
    6868:	cf 93       	push	r28
    686a:	df 93       	push	r29
    686c:	cd b7       	in	r28, 0x3d	; 61
    686e:	de b7       	in	r29, 0x3e	; 62
	return(g_pwm_setting);
    6870:	80 91 39 42 	lds	r24, 0x4239	; 0x804239 <g_pwm_setting>
    6874:	90 91 3a 42 	lds	r25, 0x423A	; 0x80423a <g_pwm_setting+0x1>
    6878:	df 91       	pop	r29
    687a:	cf 91       	pop	r28
    687c:	08 95       	ret

0000687e <TIMERB_init>:
 * \brief Initialize tcb interface
 *
 * \return Initialization status.
 */
int8_t TIMERB_init()
{
    687e:	cf 93       	push	r28
    6880:	df 93       	push	r29
    6882:	cd b7       	in	r28, 0x3d	; 61
    6884:	de b7       	in	r29, 0x3e	; 62
/********************************************************************************/
/**
Main program periodic interrupt timer
*/

TCB0.INTCTRL = 1 << TCB_CAPT_bp   /* Capture or Timeout: enabled */
    6886:	80 e0       	ldi	r24, 0x00	; 0
    6888:	9b e0       	ldi	r25, 0x0B	; 11
    688a:	21 e0       	ldi	r18, 0x01	; 1
    688c:	fc 01       	movw	r30, r24
    688e:	25 83       	std	Z+5, r18	; 0x05
| 0 << TCB_OVF_bp; /* OverFlow Interrupt: disabled */

// Set TOP
TCB0.CCMP = 0x9C40;
    6890:	80 e0       	ldi	r24, 0x00	; 0
    6892:	9b e0       	ldi	r25, 0x0B	; 11
    6894:	20 e4       	ldi	r18, 0x40	; 64
    6896:	3c e9       	ldi	r19, 0x9C	; 156
    6898:	fc 01       	movw	r30, r24
    689a:	24 87       	std	Z+12, r18	; 0x0c
    689c:	35 87       	std	Z+13, r19	; 0x0d

TCB0.CTRLA = TCB_CLKSEL_DIV2_gc     /* CLK_PER */
    689e:	80 e0       	ldi	r24, 0x00	; 0
    68a0:	9b e0       	ldi	r25, 0x0B	; 11
    68a2:	23 e0       	ldi	r18, 0x03	; 3
    68a4:	fc 01       	movw	r30, r24
    68a6:	20 83       	st	Z, r18
| 1 << TCB_ENABLE_bp   /* Enable: enabled */
| 0 << TCB_RUNSTDBY_bp /* Run Standby: disabled */
| 0 << TCB_SYNCUPD_bp  /* Synchronize Update: disabled */
| 0 << TCB_CASCADE_bp; /* Cascade Two Timer/Counters: disabled */

TCB0.INTFLAGS = (TCB_CAPT_bm | TCB_OVF_bm); /* Clear flag */
    68a8:	80 e0       	ldi	r24, 0x00	; 0
    68aa:	9b e0       	ldi	r25, 0x0B	; 11
    68ac:	23 e0       	ldi	r18, 0x03	; 3
    68ae:	fc 01       	movw	r30, r24
    68b0:	26 83       	std	Z+6, r18	; 0x06
/********************************************************************************/
/** 
Utility ms timer
*/

TCB1.INTCTRL = 1 << TCB_CAPT_bp   /* Capture or Timeout: enabled */
    68b2:	80 e1       	ldi	r24, 0x10	; 16
    68b4:	9b e0       	ldi	r25, 0x0B	; 11
    68b6:	21 e0       	ldi	r18, 0x01	; 1
    68b8:	fc 01       	movw	r30, r24
    68ba:	25 83       	std	Z+5, r18	; 0x05
| 0 << TCB_OVF_bp; /* OverFlow Interrupt: disabled */

// Set TOP
TCB1.CCMP = 0x5DC0;
    68bc:	80 e1       	ldi	r24, 0x10	; 16
    68be:	9b e0       	ldi	r25, 0x0B	; 11
    68c0:	20 ec       	ldi	r18, 0xC0	; 192
    68c2:	3d e5       	ldi	r19, 0x5D	; 93
    68c4:	fc 01       	movw	r30, r24
    68c6:	24 87       	std	Z+12, r18	; 0x0c
    68c8:	35 87       	std	Z+13, r19	; 0x0d

TCB1.CTRLA = TCB_CLKSEL_DIV1_gc     /* CLK_PER */
    68ca:	80 e1       	ldi	r24, 0x10	; 16
    68cc:	9b e0       	ldi	r25, 0x0B	; 11
    68ce:	21 e0       	ldi	r18, 0x01	; 1
    68d0:	fc 01       	movw	r30, r24
    68d2:	20 83       	st	Z, r18
| 1 << TCB_ENABLE_bp   /* Enable: enabled */
| 0 << TCB_RUNSTDBY_bp /* Run Standby: disabled */
| 0 << TCB_SYNCUPD_bp  /* Synchronize Update: disabled */
| 0 << TCB_CASCADE_bp; /* Cascade Two Timer/Counters: disabled */

TCB1.INTFLAGS = TCB_CAPT_bm; /* Clear flag */
    68d4:	80 e1       	ldi	r24, 0x10	; 16
    68d6:	9b e0       	ldi	r25, 0x0B	; 11
    68d8:	21 e0       	ldi	r18, 0x01	; 1
    68da:	fc 01       	movw	r30, r24
    68dc:	26 83       	std	Z+6, r18	; 0x06
/********************************************************************************/
/** 
I2C Timeout Flag Timer
*/

CPUINT.LVL1VEC = 30; /* Set to level 1 - highest priority interrupt */
    68de:	80 e1       	ldi	r24, 0x10	; 16
    68e0:	91 e0       	ldi	r25, 0x01	; 1
    68e2:	2e e1       	ldi	r18, 0x1E	; 30
    68e4:	fc 01       	movw	r30, r24
    68e6:	23 83       	std	Z+3, r18	; 0x03
TCB2.INTCTRL = 1 << TCB_CAPT_bp   /* Capture or Timeout: enabled */
    68e8:	80 e2       	ldi	r24, 0x20	; 32
    68ea:	9b e0       	ldi	r25, 0x0B	; 11
    68ec:	21 e0       	ldi	r18, 0x01	; 1
    68ee:	fc 01       	movw	r30, r24
    68f0:	25 83       	std	Z+5, r18	; 0x05
| 0 << TCB_OVF_bp; /* OverFlow Interrupt: disabled */

// Set TOP
TCB2.CCMP = 0xFFFF;
    68f2:	80 e2       	ldi	r24, 0x20	; 32
    68f4:	9b e0       	ldi	r25, 0x0B	; 11
    68f6:	2f ef       	ldi	r18, 0xFF	; 255
    68f8:	3f ef       	ldi	r19, 0xFF	; 255
    68fa:	fc 01       	movw	r30, r24
    68fc:	24 87       	std	Z+12, r18	; 0x0c
    68fe:	35 87       	std	Z+13, r19	; 0x0d

TCB2.CTRLA = TCB_CLKSEL_DIV2_gc     /* CLK_PER */
    6900:	80 e2       	ldi	r24, 0x20	; 32
    6902:	9b e0       	ldi	r25, 0x0B	; 11
    6904:	23 e0       	ldi	r18, 0x03	; 3
    6906:	fc 01       	movw	r30, r24
    6908:	20 83       	st	Z, r18
| 1 << TCB_ENABLE_bp   /* Enable: enabled */
| 0 << TCB_RUNSTDBY_bp /* Run Standby: disabled */
| 0 << TCB_SYNCUPD_bp  /* Synchronize Update: disabled */
| 0 << TCB_CASCADE_bp; /* Cascade Two Timer/Counters: disabled */

TCB2.INTFLAGS = TCB_CAPT_bm; /* Clear flag */
    690a:	80 e2       	ldi	r24, 0x20	; 32
    690c:	9b e0       	ldi	r25, 0x0B	; 11
    690e:	21 e0       	ldi	r18, 0x01	; 1
    6910:	fc 01       	movw	r30, r24
    6912:	26 83       	std	Z+6, r18	; 0x06
CPUINT.LVL1VEC = 30; /* Set to level 1 - highest priority interrupt */
    6914:	80 e1       	ldi	r24, 0x10	; 16
    6916:	91 e0       	ldi	r25, 0x01	; 1
    6918:	2e e1       	ldi	r18, 0x1E	; 30
    691a:	fc 01       	movw	r30, r24
    691c:	23 83       	std	Z+3, r18	; 0x03
/********************************************************************************/
/**
LED Timer
*/

TCB3.INTCTRL = 1 << TCB_CAPT_bp   /* Capture or Timeout: enabled */
    691e:	80 e3       	ldi	r24, 0x30	; 48
    6920:	9b e0       	ldi	r25, 0x0B	; 11
    6922:	21 e0       	ldi	r18, 0x01	; 1
    6924:	fc 01       	movw	r30, r24
    6926:	25 83       	std	Z+5, r18	; 0x05
| 0 << TCB_OVF_bp; /* OverFlow Interrupt: disabled */

// Set TOP
TCB3.CCMP = 0x9C40;
    6928:	80 e3       	ldi	r24, 0x30	; 48
    692a:	9b e0       	ldi	r25, 0x0B	; 11
    692c:	20 e4       	ldi	r18, 0x40	; 64
    692e:	3c e9       	ldi	r19, 0x9C	; 156
    6930:	fc 01       	movw	r30, r24
    6932:	24 87       	std	Z+12, r18	; 0x0c
    6934:	35 87       	std	Z+13, r19	; 0x0d

TCB3.CTRLA = TCB_CLKSEL_DIV2_gc     /* CLK_PER */
    6936:	80 e3       	ldi	r24, 0x30	; 48
    6938:	9b e0       	ldi	r25, 0x0B	; 11
    693a:	23 e0       	ldi	r18, 0x03	; 3
    693c:	fc 01       	movw	r30, r24
    693e:	20 83       	st	Z, r18
| 1 << TCB_ENABLE_bp   /* Enable: enabled */
| 0 << TCB_RUNSTDBY_bp /* Run Standby: disabled */
| 0 << TCB_SYNCUPD_bp  /* Synchronize Update: disabled */
| 0 << TCB_CASCADE_bp; /* Cascade Two Timer/Counters: disabled */

TCB3.INTFLAGS = TCB_CAPT_bm; /* Clear flag */
    6940:	80 e3       	ldi	r24, 0x30	; 48
    6942:	9b e0       	ldi	r25, 0x0B	; 11
    6944:	21 e0       	ldi	r18, 0x01	; 1
    6946:	fc 01       	movw	r30, r24
    6948:	26 83       	std	Z+6, r18	; 0x06

	return 0;
    694a:	80 e0       	ldi	r24, 0x00	; 0
}
    694c:	df 91       	pop	r29
    694e:	cf 91       	pop	r28
    6950:	08 95       	ret

00006952 <util_delay_ms>:


bool util_delay_ms(uint32_t delayValue)
{
    6952:	cf 93       	push	r28
    6954:	df 93       	push	r29
    6956:	00 d0       	rcall	.+0      	; 0x6958 <util_delay_ms+0x6>
    6958:	00 d0       	rcall	.+0      	; 0x695a <util_delay_ms+0x8>
    695a:	cd b7       	in	r28, 0x3d	; 61
    695c:	de b7       	in	r29, 0x3e	; 62
    695e:	69 83       	std	Y+1, r22	; 0x01
    6960:	7a 83       	std	Y+2, r23	; 0x02
    6962:	8b 83       	std	Y+3, r24	; 0x03
    6964:	9c 83       	std	Y+4, r25	; 0x04
	static uint32_t countdownValue=0;
	static bool counting = false;
	
	if(delayValue)
    6966:	89 81       	ldd	r24, Y+1	; 0x01
    6968:	9a 81       	ldd	r25, Y+2	; 0x02
    696a:	ab 81       	ldd	r26, Y+3	; 0x03
    696c:	bc 81       	ldd	r27, Y+4	; 0x04
    696e:	89 2b       	or	r24, r25
    6970:	8a 2b       	or	r24, r26
    6972:	8b 2b       	or	r24, r27
    6974:	09 f4       	brne	.+2      	; 0x6978 <util_delay_ms+0x26>
    6976:	84 c0       	rjmp	.+264    	; 0x6a80 <util_delay_ms+0x12e>
	{
		if(counting)
    6978:	80 91 43 42 	lds	r24, 0x4243	; 0x804243 <_ZZ13util_delay_msE8counting>
    697c:	88 23       	and	r24, r24
    697e:	09 f4       	brne	.+2      	; 0x6982 <util_delay_ms+0x30>
    6980:	4d c0       	rjmp	.+154    	; 0x6a1c <util_delay_ms+0xca>
		{
			if(!g_ms_counter)
    6982:	80 91 3b 42 	lds	r24, 0x423B	; 0x80423b <_ZL12g_ms_counter>
    6986:	90 91 3c 42 	lds	r25, 0x423C	; 0x80423c <_ZL12g_ms_counter+0x1>
    698a:	a0 91 3d 42 	lds	r26, 0x423D	; 0x80423d <_ZL12g_ms_counter+0x2>
    698e:	b0 91 3e 42 	lds	r27, 0x423E	; 0x80423e <_ZL12g_ms_counter+0x3>
    6992:	89 2b       	or	r24, r25
    6994:	8a 2b       	or	r24, r26
    6996:	8b 2b       	or	r24, r27
    6998:	81 f4       	brne	.+32     	; 0x69ba <util_delay_ms+0x68>
			{
				TCB1.INTCTRL = 0 << TCB_CAPT_bp   /* Capture or Timeout: disabled */
    699a:	80 e1       	ldi	r24, 0x10	; 16
    699c:	9b e0       	ldi	r25, 0x0B	; 11
    699e:	fc 01       	movw	r30, r24
    69a0:	15 82       	std	Z+5, r1	; 0x05
				| 0 << TCB_OVF_bp; /* OverFlow Interrupt: disabled */

				counting = false;
    69a2:	10 92 43 42 	sts	0x4243, r1	; 0x804243 <_ZZ13util_delay_msE8counting>
				countdownValue = 0;
    69a6:	10 92 3f 42 	sts	0x423F, r1	; 0x80423f <_ZZ13util_delay_msE14countdownValue>
    69aa:	10 92 40 42 	sts	0x4240, r1	; 0x804240 <_ZZ13util_delay_msE14countdownValue+0x1>
    69ae:	10 92 41 42 	sts	0x4241, r1	; 0x804241 <_ZZ13util_delay_msE14countdownValue+0x2>
    69b2:	10 92 42 42 	sts	0x4242, r1	; 0x804242 <_ZZ13util_delay_msE14countdownValue+0x3>
				return(false); /* time expired */
    69b6:	80 e0       	ldi	r24, 0x00	; 0
    69b8:	81 c0       	rjmp	.+258    	; 0x6abc <util_delay_ms+0x16a>
			}
			else if(delayValue != countdownValue) /* countdown delay changed */
    69ba:	80 91 3f 42 	lds	r24, 0x423F	; 0x80423f <_ZZ13util_delay_msE14countdownValue>
    69be:	90 91 40 42 	lds	r25, 0x4240	; 0x804240 <_ZZ13util_delay_msE14countdownValue+0x1>
    69c2:	a0 91 41 42 	lds	r26, 0x4241	; 0x804241 <_ZZ13util_delay_msE14countdownValue+0x2>
    69c6:	b0 91 42 42 	lds	r27, 0x4242	; 0x804242 <_ZZ13util_delay_msE14countdownValue+0x3>
    69ca:	29 81       	ldd	r18, Y+1	; 0x01
    69cc:	3a 81       	ldd	r19, Y+2	; 0x02
    69ce:	4b 81       	ldd	r20, Y+3	; 0x03
    69d0:	5c 81       	ldd	r21, Y+4	; 0x04
    69d2:	28 17       	cp	r18, r24
    69d4:	39 07       	cpc	r19, r25
    69d6:	4a 07       	cpc	r20, r26
    69d8:	5b 07       	cpc	r21, r27
    69da:	09 f4       	brne	.+2      	; 0x69de <util_delay_ms+0x8c>
    69dc:	69 c0       	rjmp	.+210    	; 0x6ab0 <util_delay_ms+0x15e>
			{
				TCB1.CNT = 0x0000;
    69de:	80 e1       	ldi	r24, 0x10	; 16
    69e0:	9b e0       	ldi	r25, 0x0B	; 11
    69e2:	fc 01       	movw	r30, r24
    69e4:	12 86       	std	Z+10, r1	; 0x0a
    69e6:	13 86       	std	Z+11, r1	; 0x0b
				countdownValue = delayValue;
    69e8:	89 81       	ldd	r24, Y+1	; 0x01
    69ea:	9a 81       	ldd	r25, Y+2	; 0x02
    69ec:	ab 81       	ldd	r26, Y+3	; 0x03
    69ee:	bc 81       	ldd	r27, Y+4	; 0x04
    69f0:	80 93 3f 42 	sts	0x423F, r24	; 0x80423f <_ZZ13util_delay_msE14countdownValue>
    69f4:	90 93 40 42 	sts	0x4240, r25	; 0x804240 <_ZZ13util_delay_msE14countdownValue+0x1>
    69f8:	a0 93 41 42 	sts	0x4241, r26	; 0x804241 <_ZZ13util_delay_msE14countdownValue+0x2>
    69fc:	b0 93 42 42 	sts	0x4242, r27	; 0x804242 <_ZZ13util_delay_msE14countdownValue+0x3>
				g_ms_counter = delayValue;
    6a00:	89 81       	ldd	r24, Y+1	; 0x01
    6a02:	9a 81       	ldd	r25, Y+2	; 0x02
    6a04:	ab 81       	ldd	r26, Y+3	; 0x03
    6a06:	bc 81       	ldd	r27, Y+4	; 0x04
    6a08:	80 93 3b 42 	sts	0x423B, r24	; 0x80423b <_ZL12g_ms_counter>
    6a0c:	90 93 3c 42 	sts	0x423C, r25	; 0x80423c <_ZL12g_ms_counter+0x1>
    6a10:	a0 93 3d 42 	sts	0x423D, r26	; 0x80423d <_ZL12g_ms_counter+0x2>
    6a14:	b0 93 3e 42 	sts	0x423E, r27	; 0x80423e <_ZL12g_ms_counter+0x3>
				return(false);
    6a18:	80 e0       	ldi	r24, 0x00	; 0
    6a1a:	50 c0       	rjmp	.+160    	; 0x6abc <util_delay_ms+0x16a>
			}
		}
		else if(delayValue != countdownValue)
    6a1c:	80 91 3f 42 	lds	r24, 0x423F	; 0x80423f <_ZZ13util_delay_msE14countdownValue>
    6a20:	90 91 40 42 	lds	r25, 0x4240	; 0x804240 <_ZZ13util_delay_msE14countdownValue+0x1>
    6a24:	a0 91 41 42 	lds	r26, 0x4241	; 0x804241 <_ZZ13util_delay_msE14countdownValue+0x2>
    6a28:	b0 91 42 42 	lds	r27, 0x4242	; 0x804242 <_ZZ13util_delay_msE14countdownValue+0x3>
    6a2c:	29 81       	ldd	r18, Y+1	; 0x01
    6a2e:	3a 81       	ldd	r19, Y+2	; 0x02
    6a30:	4b 81       	ldd	r20, Y+3	; 0x03
    6a32:	5c 81       	ldd	r21, Y+4	; 0x04
    6a34:	28 17       	cp	r18, r24
    6a36:	39 07       	cpc	r19, r25
    6a38:	4a 07       	cpc	r20, r26
    6a3a:	5b 07       	cpc	r21, r27
    6a3c:	c9 f1       	breq	.+114    	; 0x6ab0 <util_delay_ms+0x15e>
		{
			TCB1.CNT = 0x0000;
    6a3e:	80 e1       	ldi	r24, 0x10	; 16
    6a40:	9b e0       	ldi	r25, 0x0B	; 11
    6a42:	fc 01       	movw	r30, r24
    6a44:	12 86       	std	Z+10, r1	; 0x0a
    6a46:	13 86       	std	Z+11, r1	; 0x0b
			countdownValue = delayValue;
    6a48:	89 81       	ldd	r24, Y+1	; 0x01
    6a4a:	9a 81       	ldd	r25, Y+2	; 0x02
    6a4c:	ab 81       	ldd	r26, Y+3	; 0x03
    6a4e:	bc 81       	ldd	r27, Y+4	; 0x04
    6a50:	80 93 3f 42 	sts	0x423F, r24	; 0x80423f <_ZZ13util_delay_msE14countdownValue>
    6a54:	90 93 40 42 	sts	0x4240, r25	; 0x804240 <_ZZ13util_delay_msE14countdownValue+0x1>
    6a58:	a0 93 41 42 	sts	0x4241, r26	; 0x804241 <_ZZ13util_delay_msE14countdownValue+0x2>
    6a5c:	b0 93 42 42 	sts	0x4242, r27	; 0x804242 <_ZZ13util_delay_msE14countdownValue+0x3>
			g_ms_counter = delayValue;
    6a60:	89 81       	ldd	r24, Y+1	; 0x01
    6a62:	9a 81       	ldd	r25, Y+2	; 0x02
    6a64:	ab 81       	ldd	r26, Y+3	; 0x03
    6a66:	bc 81       	ldd	r27, Y+4	; 0x04
    6a68:	80 93 3b 42 	sts	0x423B, r24	; 0x80423b <_ZL12g_ms_counter>
    6a6c:	90 93 3c 42 	sts	0x423C, r25	; 0x80423c <_ZL12g_ms_counter+0x1>
    6a70:	a0 93 3d 42 	sts	0x423D, r26	; 0x80423d <_ZL12g_ms_counter+0x2>
    6a74:	b0 93 3e 42 	sts	0x423E, r27	; 0x80423e <_ZL12g_ms_counter+0x3>
			counting = true;
    6a78:	81 e0       	ldi	r24, 0x01	; 1
    6a7a:	80 93 43 42 	sts	0x4243, r24	; 0x804243 <_ZZ13util_delay_msE8counting>
    6a7e:	18 c0       	rjmp	.+48     	; 0x6ab0 <util_delay_ms+0x15e>
		}
	}
	else
	{
		TCB1.INTCTRL = 0 << TCB_CAPT_bp   /* Capture or Timeout: disabled */
    6a80:	80 e1       	ldi	r24, 0x10	; 16
    6a82:	9b e0       	ldi	r25, 0x0B	; 11
    6a84:	fc 01       	movw	r30, r24
    6a86:	15 82       	std	Z+5, r1	; 0x05
		| 0 << TCB_OVF_bp; /* OverFlow Interrupt: disabled */

		counting = false;
    6a88:	10 92 43 42 	sts	0x4243, r1	; 0x804243 <_ZZ13util_delay_msE8counting>
		countdownValue = 0;
    6a8c:	10 92 3f 42 	sts	0x423F, r1	; 0x80423f <_ZZ13util_delay_msE14countdownValue>
    6a90:	10 92 40 42 	sts	0x4240, r1	; 0x804240 <_ZZ13util_delay_msE14countdownValue+0x1>
    6a94:	10 92 41 42 	sts	0x4241, r1	; 0x804241 <_ZZ13util_delay_msE14countdownValue+0x2>
    6a98:	10 92 42 42 	sts	0x4242, r1	; 0x804242 <_ZZ13util_delay_msE14countdownValue+0x3>
		g_ms_counter = 0;
    6a9c:	10 92 3b 42 	sts	0x423B, r1	; 0x80423b <_ZL12g_ms_counter>
    6aa0:	10 92 3c 42 	sts	0x423C, r1	; 0x80423c <_ZL12g_ms_counter+0x1>
    6aa4:	10 92 3d 42 	sts	0x423D, r1	; 0x80423d <_ZL12g_ms_counter+0x2>
    6aa8:	10 92 3e 42 	sts	0x423E, r1	; 0x80423e <_ZL12g_ms_counter+0x3>
		return(false); /* timer reset */
    6aac:	80 e0       	ldi	r24, 0x00	; 0
    6aae:	06 c0       	rjmp	.+12     	; 0x6abc <util_delay_ms+0x16a>
	}
	
	TCB1.INTCTRL = 1 << TCB_CAPT_bp   /* Capture or Timeout: enabled */
    6ab0:	80 e1       	ldi	r24, 0x10	; 16
    6ab2:	9b e0       	ldi	r25, 0x0B	; 11
    6ab4:	21 e0       	ldi	r18, 0x01	; 1
    6ab6:	fc 01       	movw	r30, r24
    6ab8:	25 83       	std	Z+5, r18	; 0x05
	| 0 << TCB_OVF_bp; /* OverFlow Interrupt: disabled */
	
	return(true);
    6aba:	81 e0       	ldi	r24, 0x01	; 1
}
    6abc:	24 96       	adiw	r28, 0x04	; 4
    6abe:	cd bf       	out	0x3d, r28	; 61
    6ac0:	de bf       	out	0x3e, r29	; 62
    6ac2:	df 91       	pop	r29
    6ac4:	cf 91       	pop	r28
    6ac6:	08 95       	ret

00006ac8 <__vector_30>:

ISR(TCB2_INT_vect)
{
    6ac8:	1f 92       	push	r1
    6aca:	0f 92       	push	r0
    6acc:	0f b6       	in	r0, 0x3f	; 63
    6ace:	0f 92       	push	r0
    6ad0:	11 24       	eor	r1, r1
    6ad2:	0b b6       	in	r0, 0x3b	; 59
    6ad4:	0f 92       	push	r0
    6ad6:	2f 93       	push	r18
    6ad8:	8f 93       	push	r24
    6ada:	9f 93       	push	r25
    6adc:	ef 93       	push	r30
    6ade:	ff 93       	push	r31
    6ae0:	cf 93       	push	r28
    6ae2:	df 93       	push	r29
    6ae4:	cd b7       	in	r28, 0x3d	; 61
    6ae6:	de b7       	in	r29, 0x3e	; 62
	if(TCB2.INTFLAGS & TCB_CAPT_bm)
    6ae8:	80 e2       	ldi	r24, 0x20	; 32
    6aea:	9b e0       	ldi	r25, 0x0B	; 11
    6aec:	fc 01       	movw	r30, r24
    6aee:	86 81       	ldd	r24, Z+6	; 0x06
    6af0:	88 2f       	mov	r24, r24
    6af2:	90 e0       	ldi	r25, 0x00	; 0
    6af4:	81 70       	andi	r24, 0x01	; 1
    6af6:	99 27       	eor	r25, r25
    6af8:	21 e0       	ldi	r18, 0x01	; 1
    6afa:	89 2b       	or	r24, r25
    6afc:	09 f4       	brne	.+2      	; 0x6b00 <__vector_30+0x38>
    6afe:	20 e0       	ldi	r18, 0x00	; 0
    6b00:	22 23       	and	r18, r18
    6b02:	31 f1       	breq	.+76     	; 0x6b50 <__vector_30+0x88>
	{
		if(g_i2c1_timeout_ticks) g_i2c1_timeout_ticks--;
    6b04:	80 91 24 40 	lds	r24, 0x4024	; 0x804024 <g_i2c1_timeout_ticks>
    6b08:	90 91 25 40 	lds	r25, 0x4025	; 0x804025 <g_i2c1_timeout_ticks+0x1>
    6b0c:	21 e0       	ldi	r18, 0x01	; 1
    6b0e:	89 2b       	or	r24, r25
    6b10:	09 f4       	brne	.+2      	; 0x6b14 <__vector_30+0x4c>
    6b12:	20 e0       	ldi	r18, 0x00	; 0
    6b14:	22 23       	and	r18, r18
    6b16:	49 f0       	breq	.+18     	; 0x6b2a <__vector_30+0x62>
    6b18:	80 91 24 40 	lds	r24, 0x4024	; 0x804024 <g_i2c1_timeout_ticks>
    6b1c:	90 91 25 40 	lds	r25, 0x4025	; 0x804025 <g_i2c1_timeout_ticks+0x1>
    6b20:	01 97       	sbiw	r24, 0x01	; 1
    6b22:	80 93 24 40 	sts	0x4024, r24	; 0x804024 <g_i2c1_timeout_ticks>
    6b26:	90 93 25 40 	sts	0x4025, r25	; 0x804025 <g_i2c1_timeout_ticks+0x1>
		if(g_i2c0_timeout_ticks) g_i2c0_timeout_ticks--;
    6b2a:	80 91 22 40 	lds	r24, 0x4022	; 0x804022 <g_i2c0_timeout_ticks>
    6b2e:	90 91 23 40 	lds	r25, 0x4023	; 0x804023 <g_i2c0_timeout_ticks+0x1>
    6b32:	21 e0       	ldi	r18, 0x01	; 1
    6b34:	89 2b       	or	r24, r25
    6b36:	09 f4       	brne	.+2      	; 0x6b3a <__vector_30+0x72>
    6b38:	20 e0       	ldi	r18, 0x00	; 0
    6b3a:	22 23       	and	r18, r18
    6b3c:	49 f0       	breq	.+18     	; 0x6b50 <__vector_30+0x88>
    6b3e:	80 91 22 40 	lds	r24, 0x4022	; 0x804022 <g_i2c0_timeout_ticks>
    6b42:	90 91 23 40 	lds	r25, 0x4023	; 0x804023 <g_i2c0_timeout_ticks+0x1>
    6b46:	01 97       	sbiw	r24, 0x01	; 1
    6b48:	80 93 22 40 	sts	0x4022, r24	; 0x804022 <g_i2c0_timeout_ticks>
    6b4c:	90 93 23 40 	sts	0x4023, r25	; 0x804023 <g_i2c0_timeout_ticks+0x1>
	}
	TCB2.INTFLAGS = TCB_CAPT_bm | TCB_OVF_bm; /* Clear flags */
    6b50:	80 e2       	ldi	r24, 0x20	; 32
    6b52:	9b e0       	ldi	r25, 0x0B	; 11
    6b54:	23 e0       	ldi	r18, 0x03	; 3
    6b56:	fc 01       	movw	r30, r24
    6b58:	26 83       	std	Z+6, r18	; 0x06
	
	return;
    6b5a:	00 00       	nop
}
    6b5c:	df 91       	pop	r29
    6b5e:	cf 91       	pop	r28
    6b60:	ff 91       	pop	r31
    6b62:	ef 91       	pop	r30
    6b64:	9f 91       	pop	r25
    6b66:	8f 91       	pop	r24
    6b68:	2f 91       	pop	r18
    6b6a:	0f 90       	pop	r0
    6b6c:	0b be       	out	0x3b, r0	; 59
    6b6e:	0f 90       	pop	r0
    6b70:	0f be       	out	0x3f, r0	; 63
    6b72:	0f 90       	pop	r0
    6b74:	1f 90       	pop	r1
    6b76:	18 95       	reti

00006b78 <__vector_13>:

/**
One millisecond utility counter based on CPU clock.
*/
ISR(TCB1_INT_vect)
{
    6b78:	1f 92       	push	r1
    6b7a:	0f 92       	push	r0
    6b7c:	0f b6       	in	r0, 0x3f	; 63
    6b7e:	0f 92       	push	r0
    6b80:	11 24       	eor	r1, r1
    6b82:	0b b6       	in	r0, 0x3b	; 59
    6b84:	0f 92       	push	r0
    6b86:	2f 93       	push	r18
    6b88:	8f 93       	push	r24
    6b8a:	9f 93       	push	r25
    6b8c:	af 93       	push	r26
    6b8e:	bf 93       	push	r27
    6b90:	ef 93       	push	r30
    6b92:	ff 93       	push	r31
    6b94:	cf 93       	push	r28
    6b96:	df 93       	push	r29
    6b98:	cd b7       	in	r28, 0x3d	; 61
    6b9a:	de b7       	in	r29, 0x3e	; 62
    if(TCB1.INTFLAGS & TCB_CAPT_bm)
    6b9c:	80 e1       	ldi	r24, 0x10	; 16
    6b9e:	9b e0       	ldi	r25, 0x0B	; 11
    6ba0:	fc 01       	movw	r30, r24
    6ba2:	86 81       	ldd	r24, Z+6	; 0x06
    6ba4:	88 2f       	mov	r24, r24
    6ba6:	90 e0       	ldi	r25, 0x00	; 0
    6ba8:	81 70       	andi	r24, 0x01	; 1
    6baa:	99 27       	eor	r25, r25
    6bac:	21 e0       	ldi	r18, 0x01	; 1
    6bae:	89 2b       	or	r24, r25
    6bb0:	09 f4       	brne	.+2      	; 0x6bb4 <__vector_13+0x3c>
    6bb2:	20 e0       	ldi	r18, 0x00	; 0
    6bb4:	22 23       	and	r18, r18
    6bb6:	21 f1       	breq	.+72     	; 0x6c00 <__vector_13+0x88>
    {
		if(g_ms_counter) /* check for 1-second interval */
    6bb8:	80 91 3b 42 	lds	r24, 0x423B	; 0x80423b <_ZL12g_ms_counter>
    6bbc:	90 91 3c 42 	lds	r25, 0x423C	; 0x80423c <_ZL12g_ms_counter+0x1>
    6bc0:	a0 91 3d 42 	lds	r26, 0x423D	; 0x80423d <_ZL12g_ms_counter+0x2>
    6bc4:	b0 91 3e 42 	lds	r27, 0x423E	; 0x80423e <_ZL12g_ms_counter+0x3>
    6bc8:	89 2b       	or	r24, r25
    6bca:	8a 2b       	or	r24, r26
    6bcc:	8b 2b       	or	r24, r27
    6bce:	a1 f0       	breq	.+40     	; 0x6bf8 <__vector_13+0x80>
		{
			g_ms_counter--;	
    6bd0:	80 91 3b 42 	lds	r24, 0x423B	; 0x80423b <_ZL12g_ms_counter>
    6bd4:	90 91 3c 42 	lds	r25, 0x423C	; 0x80423c <_ZL12g_ms_counter+0x1>
    6bd8:	a0 91 3d 42 	lds	r26, 0x423D	; 0x80423d <_ZL12g_ms_counter+0x2>
    6bdc:	b0 91 3e 42 	lds	r27, 0x423E	; 0x80423e <_ZL12g_ms_counter+0x3>
    6be0:	01 97       	sbiw	r24, 0x01	; 1
    6be2:	a1 09       	sbc	r26, r1
    6be4:	b1 09       	sbc	r27, r1
    6be6:	80 93 3b 42 	sts	0x423B, r24	; 0x80423b <_ZL12g_ms_counter>
    6bea:	90 93 3c 42 	sts	0x423C, r25	; 0x80423c <_ZL12g_ms_counter+0x1>
    6bee:	a0 93 3d 42 	sts	0x423D, r26	; 0x80423d <_ZL12g_ms_counter+0x2>
    6bf2:	b0 93 3e 42 	sts	0x423E, r27	; 0x80423e <_ZL12g_ms_counter+0x3>
    6bf6:	04 c0       	rjmp	.+8      	; 0x6c00 <__vector_13+0x88>
		}
		else
		{
			TCB1.INTCTRL = 0 << TCB_CAPT_bp   /* Capture or Timeout: disabled */
    6bf8:	80 e1       	ldi	r24, 0x10	; 16
    6bfa:	9b e0       	ldi	r25, 0x0B	; 11
    6bfc:	fc 01       	movw	r30, r24
    6bfe:	15 82       	std	Z+5, r1	; 0x05
			| 0 << TCB_OVF_bp; /* OverFlow Interrupt: disabled */
		}
    }

    TCB1.INTFLAGS = TCB_CAPT_bm | TCB_OVF_bm; /* clear interrupt flags */
    6c00:	80 e1       	ldi	r24, 0x10	; 16
    6c02:	9b e0       	ldi	r25, 0x0B	; 11
    6c04:	23 e0       	ldi	r18, 0x03	; 3
    6c06:	fc 01       	movw	r30, r24
    6c08:	26 83       	std	Z+6, r18	; 0x06

	return;
    6c0a:	00 00       	nop
}
    6c0c:	df 91       	pop	r29
    6c0e:	cf 91       	pop	r28
    6c10:	ff 91       	pop	r31
    6c12:	ef 91       	pop	r30
    6c14:	bf 91       	pop	r27
    6c16:	af 91       	pop	r26
    6c18:	9f 91       	pop	r25
    6c1a:	8f 91       	pop	r24
    6c1c:	2f 91       	pop	r18
    6c1e:	0f 90       	pop	r0
    6c20:	0b be       	out	0x3b, r0	; 59
    6c22:	0f 90       	pop	r0
    6c24:	0f be       	out	0x3f, r0	; 63
    6c26:	0f 90       	pop	r0
    6c28:	1f 90       	pop	r1
    6c2a:	18 95       	reti

00006c2c <TIMERB_sleep>:

int8_t TIMERB_sleep()
{
    6c2c:	cf 93       	push	r28
    6c2e:	df 93       	push	r29
    6c30:	cd b7       	in	r28, 0x3d	; 61
    6c32:	de b7       	in	r29, 0x3e	; 62
	TCB0.INTCTRL = 0;   /* Capture or Timeout: disable interrupts */
    6c34:	80 e0       	ldi	r24, 0x00	; 0
    6c36:	9b e0       	ldi	r25, 0x0B	; 11
    6c38:	fc 01       	movw	r30, r24
    6c3a:	15 82       	std	Z+5, r1	; 0x05
	TCB0.CTRLA = 0; /* Disable timer */
    6c3c:	80 e0       	ldi	r24, 0x00	; 0
    6c3e:	9b e0       	ldi	r25, 0x0B	; 11
    6c40:	fc 01       	movw	r30, r24
    6c42:	10 82       	st	Z, r1

	/********************************************************************************/

	TCB1.INTCTRL = 0; /* OverFlow Interrupt: disabled */
    6c44:	80 e1       	ldi	r24, 0x10	; 16
    6c46:	9b e0       	ldi	r25, 0x0B	; 11
    6c48:	fc 01       	movw	r30, r24
    6c4a:	15 82       	std	Z+5, r1	; 0x05
	TCB1.CTRLA = 0; /* Disable timer */
    6c4c:	80 e1       	ldi	r24, 0x10	; 16
    6c4e:	9b e0       	ldi	r25, 0x0B	; 11
    6c50:	fc 01       	movw	r30, r24
    6c52:	10 82       	st	Z, r1

	/********************************************************************************/

	TCB2.INTCTRL = 0; /* OverFlow Interrupt: disabled */
    6c54:	80 e2       	ldi	r24, 0x20	; 32
    6c56:	9b e0       	ldi	r25, 0x0B	; 11
    6c58:	fc 01       	movw	r30, r24
    6c5a:	15 82       	std	Z+5, r1	; 0x05
	TCB2.CTRLA = 0; /* Disable timer */
    6c5c:	80 e2       	ldi	r24, 0x20	; 32
    6c5e:	9b e0       	ldi	r25, 0x0B	; 11
    6c60:	fc 01       	movw	r30, r24
    6c62:	10 82       	st	Z, r1

	/********************************************************************************/

	TCB3.INTCTRL = 0; /* OverFlow Interrupt: disabled */
    6c64:	80 e3       	ldi	r24, 0x30	; 48
    6c66:	9b e0       	ldi	r25, 0x0B	; 11
    6c68:	fc 01       	movw	r30, r24
    6c6a:	15 82       	std	Z+5, r1	; 0x05
	TCB3.CTRLA = 0; /* Disable timer */
    6c6c:	80 e3       	ldi	r24, 0x30	; 48
    6c6e:	9b e0       	ldi	r25, 0x0B	; 11
    6c70:	fc 01       	movw	r30, r24
    6c72:	10 82       	st	Z, r1


	return 0;
    6c74:	80 e0       	ldi	r24, 0x00	; 0
}
    6c76:	df 91       	pop	r29
    6c78:	cf 91       	pop	r28
    6c7a:	08 95       	ret

00006c7c <_Z13init_receiverm>:
	{
		si5351_start_comms();
	}

	EC init_receiver(Frequency_Hz freq)
	{
    6c7c:	cf 93       	push	r28
    6c7e:	df 93       	push	r29
    6c80:	00 d0       	rcall	.+0      	; 0x6c82 <_Z13init_receiverm+0x6>
    6c82:	00 d0       	rcall	.+0      	; 0x6c84 <_Z13init_receiverm+0x8>
    6c84:	cd b7       	in	r28, 0x3d	; 61
    6c86:	de b7       	in	r29, 0x3e	; 62
    6c88:	69 83       	std	Y+1, r22	; 0x01
    6c8a:	7a 83       	std	Y+2, r23	; 0x02
    6c8c:	8b 83       	std	Y+3, r24	; 0x03
    6c8e:	9c 83       	std	Y+4, r25	; 0x04
		g_rx_frequency = freq;
    6c90:	89 81       	ldd	r24, Y+1	; 0x01
    6c92:	9a 81       	ldd	r25, Y+2	; 0x02
    6c94:	ab 81       	ldd	r26, Y+3	; 0x03
    6c96:	bc 81       	ldd	r27, Y+4	; 0x04
    6c98:	80 93 30 40 	sts	0x4030, r24	; 0x804030 <g_rx_frequency>
    6c9c:	90 93 31 40 	sts	0x4031, r25	; 0x804031 <g_rx_frequency+0x1>
    6ca0:	a0 93 32 40 	sts	0x4032, r26	; 0x804032 <g_rx_frequency+0x2>
    6ca4:	b0 93 33 40 	sts	0x4033, r27	; 0x804033 <g_rx_frequency+0x3>
		return init_receiver();
    6ca8:	0e 94 5c 36 	call	0x6cb8	; 0x6cb8 <_Z13init_receiverv>
	}
    6cac:	24 96       	adiw	r28, 0x04	; 4
    6cae:	cd bf       	out	0x3d, r28	; 61
    6cb0:	de bf       	out	0x3e, r29	; 62
    6cb2:	df 91       	pop	r29
    6cb4:	cf 91       	pop	r28
    6cb6:	08 95       	ret

00006cb8 <_Z13init_receiverv>:
	
	EC init_receiver(void)
	{
    6cb8:	cf 93       	push	r28
    6cba:	df 93       	push	r29
    6cbc:	00 d0       	rcall	.+0      	; 0x6cbe <_Z13init_receiverv+0x6>
    6cbe:	1f 92       	push	r1
    6cc0:	cd b7       	in	r28, 0x3d	; 61
    6cc2:	de b7       	in	r29, 0x3e	; 62
		EC code = ERROR_CODE_NO_ERROR;
    6cc4:	1a 82       	std	Y+2, r1	; 0x02
    6cc6:	1b 82       	std	Y+3, r1	; 0x03
		bool err;
		
		DAC0_init();
    6cc8:	0e 94 3f 1a 	call	0x347e	; 0x347e <_Z9DAC0_initv>

		if((err = si5351_init(SI5351_CRYSTAL_LOAD_6PF, 0)))
    6ccc:	40 e0       	ldi	r20, 0x00	; 0
    6cce:	50 e0       	ldi	r21, 0x00	; 0
    6cd0:	ba 01       	movw	r22, r20
    6cd2:	80 e4       	ldi	r24, 0x40	; 64
    6cd4:	90 e0       	ldi	r25, 0x00	; 0
    6cd6:	0e 94 46 2f 	call	0x5e8c	; 0x5e8c <si5351_init>
    6cda:	89 83       	std	Y+1, r24	; 0x01
    6cdc:	89 81       	ldd	r24, Y+1	; 0x01
    6cde:	88 23       	and	r24, r24
    6ce0:	19 f0       	breq	.+6      	; 0x6ce8 <_Z13init_receiverv+0x30>
		{
			return(ERROR_CODE_RF_OSCILLATOR_ERROR);
    6ce2:	82 ed       	ldi	r24, 0xD2	; 210
    6ce4:	90 e0       	ldi	r25, 0x00	; 0
    6ce6:	8c c0       	rjmp	.+280    	; 0x6e00 <_Z13init_receiverv+0x148>
		}

		if((code = si5351_drive_strength(SI5351_CLK0, SI5351_DRIVE_8MA)))
    6ce8:	63 e0       	ldi	r22, 0x03	; 3
    6cea:	70 e0       	ldi	r23, 0x00	; 0
    6cec:	80 e0       	ldi	r24, 0x00	; 0
    6cee:	90 e0       	ldi	r25, 0x00	; 0
    6cf0:	0e 94 be 30 	call	0x617c	; 0x617c <si5351_drive_strength>
    6cf4:	8a 83       	std	Y+2, r24	; 0x02
    6cf6:	9b 83       	std	Y+3, r25	; 0x03
    6cf8:	8a 81       	ldd	r24, Y+2	; 0x02
    6cfa:	9b 81       	ldd	r25, Y+3	; 0x03
    6cfc:	21 e0       	ldi	r18, 0x01	; 1
    6cfe:	89 2b       	or	r24, r25
    6d00:	09 f4       	brne	.+2      	; 0x6d04 <_Z13init_receiverv+0x4c>
    6d02:	20 e0       	ldi	r18, 0x00	; 0
    6d04:	22 23       	and	r18, r18
    6d06:	19 f0       	breq	.+6      	; 0x6d0e <_Z13init_receiverv+0x56>
		{
			return( code);
    6d08:	8a 81       	ldd	r24, Y+2	; 0x02
    6d0a:	9b 81       	ldd	r25, Y+3	; 0x03
    6d0c:	79 c0       	rjmp	.+242    	; 0x6e00 <_Z13init_receiverv+0x148>
		}

		if((code = si5351_clock_enable(SI5351_CLK0, SI5351_CLK_DISABLED)))
    6d0e:	60 e0       	ldi	r22, 0x00	; 0
    6d10:	80 e0       	ldi	r24, 0x00	; 0
    6d12:	90 e0       	ldi	r25, 0x00	; 0
    6d14:	0e 94 6f 30 	call	0x60de	; 0x60de <si5351_clock_enable>
    6d18:	8a 83       	std	Y+2, r24	; 0x02
    6d1a:	9b 83       	std	Y+3, r25	; 0x03
    6d1c:	8a 81       	ldd	r24, Y+2	; 0x02
    6d1e:	9b 81       	ldd	r25, Y+3	; 0x03
    6d20:	21 e0       	ldi	r18, 0x01	; 1
    6d22:	89 2b       	or	r24, r25
    6d24:	09 f4       	brne	.+2      	; 0x6d28 <_Z13init_receiverv+0x70>
    6d26:	20 e0       	ldi	r18, 0x00	; 0
    6d28:	22 23       	and	r18, r18
    6d2a:	19 f0       	breq	.+6      	; 0x6d32 <_Z13init_receiverv+0x7a>
		{
			return( code);
    6d2c:	8a 81       	ldd	r24, Y+2	; 0x02
    6d2e:	9b 81       	ldd	r25, Y+3	; 0x03
    6d30:	67 c0       	rjmp	.+206    	; 0x6e00 <_Z13init_receiverv+0x148>
		}

		if((code = si5351_drive_strength(SI5351_CLK1, SI5351_DRIVE_8MA)))
    6d32:	63 e0       	ldi	r22, 0x03	; 3
    6d34:	70 e0       	ldi	r23, 0x00	; 0
    6d36:	81 e0       	ldi	r24, 0x01	; 1
    6d38:	90 e0       	ldi	r25, 0x00	; 0
    6d3a:	0e 94 be 30 	call	0x617c	; 0x617c <si5351_drive_strength>
    6d3e:	8a 83       	std	Y+2, r24	; 0x02
    6d40:	9b 83       	std	Y+3, r25	; 0x03
    6d42:	8a 81       	ldd	r24, Y+2	; 0x02
    6d44:	9b 81       	ldd	r25, Y+3	; 0x03
    6d46:	21 e0       	ldi	r18, 0x01	; 1
    6d48:	89 2b       	or	r24, r25
    6d4a:	09 f4       	brne	.+2      	; 0x6d4e <_Z13init_receiverv+0x96>
    6d4c:	20 e0       	ldi	r18, 0x00	; 0
    6d4e:	22 23       	and	r18, r18
    6d50:	19 f0       	breq	.+6      	; 0x6d58 <_Z13init_receiverv+0xa0>
		{
			return( code);
    6d52:	8a 81       	ldd	r24, Y+2	; 0x02
    6d54:	9b 81       	ldd	r25, Y+3	; 0x03
    6d56:	54 c0       	rjmp	.+168    	; 0x6e00 <_Z13init_receiverv+0x148>
		}

		if((code = si5351_clock_enable(SI5351_CLK1, SI5351_CLK_DISABLED)))
    6d58:	60 e0       	ldi	r22, 0x00	; 0
    6d5a:	81 e0       	ldi	r24, 0x01	; 1
    6d5c:	90 e0       	ldi	r25, 0x00	; 0
    6d5e:	0e 94 6f 30 	call	0x60de	; 0x60de <si5351_clock_enable>
    6d62:	8a 83       	std	Y+2, r24	; 0x02
    6d64:	9b 83       	std	Y+3, r25	; 0x03
    6d66:	8a 81       	ldd	r24, Y+2	; 0x02
    6d68:	9b 81       	ldd	r25, Y+3	; 0x03
    6d6a:	21 e0       	ldi	r18, 0x01	; 1
    6d6c:	89 2b       	or	r24, r25
    6d6e:	09 f4       	brne	.+2      	; 0x6d72 <_Z13init_receiverv+0xba>
    6d70:	20 e0       	ldi	r18, 0x00	; 0
    6d72:	22 23       	and	r18, r18
    6d74:	19 f0       	breq	.+6      	; 0x6d7c <_Z13init_receiverv+0xc4>
		{
			return( code);
    6d76:	8a 81       	ldd	r24, Y+2	; 0x02
    6d78:	9b 81       	ldd	r25, Y+3	; 0x03
    6d7a:	42 c0       	rjmp	.+132    	; 0x6e00 <_Z13init_receiverv+0x148>
		}

		if((g_rx_frequency < RX_MAXIMUM_80M_FREQUENCY) && (g_rx_frequency > RX_MINIMUM_80M_FREQUENCY))    /* 80m */
    6d7c:	80 91 30 40 	lds	r24, 0x4030	; 0x804030 <g_rx_frequency>
    6d80:	90 91 31 40 	lds	r25, 0x4031	; 0x804031 <g_rx_frequency+0x1>
    6d84:	a0 91 32 40 	lds	r26, 0x4032	; 0x804032 <g_rx_frequency+0x2>
    6d88:	b0 91 33 40 	lds	r27, 0x4033	; 0x804033 <g_rx_frequency+0x3>
    6d8c:	81 15       	cp	r24, r1
    6d8e:	99 40       	sbci	r25, 0x09	; 9
    6d90:	ad 43       	sbci	r26, 0x3D	; 61
    6d92:	b1 05       	cpc	r27, r1
    6d94:	78 f4       	brcc	.+30     	; 0x6db4 <_Z13init_receiverv+0xfc>
    6d96:	80 91 30 40 	lds	r24, 0x4030	; 0x804030 <g_rx_frequency>
    6d9a:	90 91 31 40 	lds	r25, 0x4031	; 0x804031 <g_rx_frequency+0x1>
    6d9e:	a0 91 32 40 	lds	r26, 0x4032	; 0x804032 <g_rx_frequency+0x2>
    6da2:	b0 91 33 40 	lds	r27, 0x4033	; 0x804033 <g_rx_frequency+0x3>
    6da6:	81 3e       	cpi	r24, 0xE1	; 225
    6da8:	97 46       	sbci	r25, 0x67	; 103
    6daa:	a5 43       	sbci	r26, 0x35	; 53
    6dac:	b1 05       	cpc	r27, r1
    6dae:	10 f0       	brcs	.+4      	; 0x6db4 <_Z13init_receiverv+0xfc>
    6db0:	81 e0       	ldi	r24, 0x01	; 1
    6db2:	01 c0       	rjmp	.+2      	; 0x6db6 <_Z13init_receiverv+0xfe>
    6db4:	80 e0       	ldi	r24, 0x00	; 0
    6db6:	88 23       	and	r24, r24
    6db8:	c9 f0       	breq	.+50     	; 0x6dec <_Z13init_receiverv+0x134>
		{
			if((code = si5351_init_for_quad(g_rx_frequency)))
    6dba:	80 91 30 40 	lds	r24, 0x4030	; 0x804030 <g_rx_frequency>
    6dbe:	90 91 31 40 	lds	r25, 0x4031	; 0x804031 <g_rx_frequency+0x1>
    6dc2:	a0 91 32 40 	lds	r26, 0x4032	; 0x804032 <g_rx_frequency+0x2>
    6dc6:	b0 91 33 40 	lds	r27, 0x4033	; 0x804033 <g_rx_frequency+0x3>
    6dca:	bc 01       	movw	r22, r24
    6dcc:	cd 01       	movw	r24, r26
    6dce:	0e 94 1c 2a 	call	0x5438	; 0x5438 <si5351_init_for_quad>
    6dd2:	8a 83       	std	Y+2, r24	; 0x02
    6dd4:	9b 83       	std	Y+3, r25	; 0x03
    6dd6:	8a 81       	ldd	r24, Y+2	; 0x02
    6dd8:	9b 81       	ldd	r25, Y+3	; 0x03
    6dda:	21 e0       	ldi	r18, 0x01	; 1
    6ddc:	89 2b       	or	r24, r25
    6dde:	09 f4       	brne	.+2      	; 0x6de2 <_Z13init_receiverv+0x12a>
    6de0:	20 e0       	ldi	r18, 0x00	; 0
    6de2:	22 23       	and	r18, r18
    6de4:	19 f0       	breq	.+6      	; 0x6dec <_Z13init_receiverv+0x134>
			{
				return(code);
    6de6:	8a 81       	ldd	r24, Y+2	; 0x02
    6de8:	9b 81       	ldd	r25, Y+3	; 0x03
    6dea:	0a c0       	rjmp	.+20     	; 0x6e00 <_Z13init_receiverv+0x148>
			}
		}

		if(!err)
    6dec:	99 81       	ldd	r25, Y+1	; 0x01
    6dee:	81 e0       	ldi	r24, 0x01	; 1
    6df0:	89 27       	eor	r24, r25
    6df2:	88 23       	and	r24, r24
    6df4:	19 f0       	breq	.+6      	; 0x6dfc <_Z13init_receiverv+0x144>
		{
			g_rx_initialized = true;
    6df6:	81 e0       	ldi	r24, 0x01	; 1
    6df8:	80 93 44 42 	sts	0x4244, r24	; 0x804244 <_ZL16g_rx_initialized>
		}

		return( code);
    6dfc:	8a 81       	ldd	r24, Y+2	; 0x02
    6dfe:	9b 81       	ldd	r25, Y+3	; 0x03
    6e00:	23 96       	adiw	r28, 0x03	; 3
    6e02:	cd bf       	out	0x3d, r28	; 61
    6e04:	de bf       	out	0x3e, r29	; 62
    6e06:	df 91       	pop	r29
    6e08:	cf 91       	pop	r28
    6e0a:	08 95       	ret

00006e0c <_Z15frequencyStringPcm>:
 * result = pointer to a character sting to hold the frequency string
 * freq = the frequency value to be represented as a string
 * Returns 1 if an error is detected
 */
bool frequencyString(char* result, uint32_t freq)
{
    6e0c:	cf 93       	push	r28
    6e0e:	df 93       	push	r29
    6e10:	cd b7       	in	r28, 0x3d	; 61
    6e12:	de b7       	in	r29, 0x3e	; 62
    6e14:	2f 97       	sbiw	r28, 0x0f	; 15
    6e16:	cd bf       	out	0x3d, r28	; 61
    6e18:	de bf       	out	0x3e, r29	; 62
    6e1a:	8a 87       	std	Y+10, r24	; 0x0a
    6e1c:	9b 87       	std	Y+11, r25	; 0x0b
    6e1e:	4c 87       	std	Y+12, r20	; 0x0c
    6e20:	5d 87       	std	Y+13, r21	; 0x0d
    6e22:	6e 87       	std	Y+14, r22	; 0x0e
    6e24:	7f 87       	std	Y+15, r23	; 0x0f
	bool failure = true;
    6e26:	81 e0       	ldi	r24, 0x01	; 1
    6e28:	89 87       	std	Y+9, r24	; 0x09
	
	if(!result)
    6e2a:	8a 85       	ldd	r24, Y+10	; 0x0a
    6e2c:	9b 85       	ldd	r25, Y+11	; 0x0b
    6e2e:	89 2b       	or	r24, r25
    6e30:	11 f4       	brne	.+4      	; 0x6e36 <_Z15frequencyStringPcm+0x2a>
	{
		return(failure);
    6e32:	89 85       	ldd	r24, Y+9	; 0x09
    6e34:	7b c0       	rjmp	.+246    	; 0x6f2c <_Z15frequencyStringPcm+0x120>
	}
	
	if((freq > 3200000) && (freq < 8000000)) // Accept only a Hz value to be expressed in kHz
    6e36:	8c 85       	ldd	r24, Y+12	; 0x0c
    6e38:	9d 85       	ldd	r25, Y+13	; 0x0d
    6e3a:	ae 85       	ldd	r26, Y+14	; 0x0e
    6e3c:	bf 85       	ldd	r27, Y+15	; 0x0f
    6e3e:	81 30       	cpi	r24, 0x01	; 1
    6e40:	94 4d       	sbci	r25, 0xD4	; 212
    6e42:	a0 43       	sbci	r26, 0x30	; 48
    6e44:	b1 05       	cpc	r27, r1
    6e46:	08 f4       	brcc	.+2      	; 0x6e4a <_Z15frequencyStringPcm+0x3e>
    6e48:	70 c0       	rjmp	.+224    	; 0x6f2a <_Z15frequencyStringPcm+0x11e>
    6e4a:	8c 85       	ldd	r24, Y+12	; 0x0c
    6e4c:	9d 85       	ldd	r25, Y+13	; 0x0d
    6e4e:	ae 85       	ldd	r26, Y+14	; 0x0e
    6e50:	bf 85       	ldd	r27, Y+15	; 0x0f
    6e52:	81 15       	cp	r24, r1
    6e54:	92 41       	sbci	r25, 0x12	; 18
    6e56:	aa 47       	sbci	r26, 0x7A	; 122
    6e58:	b1 05       	cpc	r27, r1
    6e5a:	08 f0       	brcs	.+2      	; 0x6e5e <_Z15frequencyStringPcm+0x52>
    6e5c:	66 c0       	rjmp	.+204    	; 0x6f2a <_Z15frequencyStringPcm+0x11e>
	{
		uint32_t k = (freq % 1000000) / 1000;
    6e5e:	8c 85       	ldd	r24, Y+12	; 0x0c
    6e60:	9d 85       	ldd	r25, Y+13	; 0x0d
    6e62:	ae 85       	ldd	r26, Y+14	; 0x0e
    6e64:	bf 85       	ldd	r27, Y+15	; 0x0f
    6e66:	20 e4       	ldi	r18, 0x40	; 64
    6e68:	32 e4       	ldi	r19, 0x42	; 66
    6e6a:	4f e0       	ldi	r20, 0x0F	; 15
    6e6c:	50 e0       	ldi	r21, 0x00	; 0
    6e6e:	bc 01       	movw	r22, r24
    6e70:	cd 01       	movw	r24, r26
    6e72:	0e 94 eb 3a 	call	0x75d6	; 0x75d6 <__udivmodsi4>
    6e76:	dc 01       	movw	r26, r24
    6e78:	cb 01       	movw	r24, r22
    6e7a:	28 ee       	ldi	r18, 0xE8	; 232
    6e7c:	33 e0       	ldi	r19, 0x03	; 3
    6e7e:	40 e0       	ldi	r20, 0x00	; 0
    6e80:	50 e0       	ldi	r21, 0x00	; 0
    6e82:	bc 01       	movw	r22, r24
    6e84:	cd 01       	movw	r24, r26
    6e86:	0e 94 eb 3a 	call	0x75d6	; 0x75d6 <__udivmodsi4>
    6e8a:	da 01       	movw	r26, r20
    6e8c:	c9 01       	movw	r24, r18
    6e8e:	89 83       	std	Y+1, r24	; 0x01
    6e90:	9a 83       	std	Y+2, r25	; 0x02
    6e92:	ab 83       	std	Y+3, r26	; 0x03
    6e94:	bc 83       	std	Y+4, r27	; 0x04
		uint32_t c = (freq % 1000);
    6e96:	8c 85       	ldd	r24, Y+12	; 0x0c
    6e98:	9d 85       	ldd	r25, Y+13	; 0x0d
    6e9a:	ae 85       	ldd	r26, Y+14	; 0x0e
    6e9c:	bf 85       	ldd	r27, Y+15	; 0x0f
    6e9e:	28 ee       	ldi	r18, 0xE8	; 232
    6ea0:	33 e0       	ldi	r19, 0x03	; 3
    6ea2:	40 e0       	ldi	r20, 0x00	; 0
    6ea4:	50 e0       	ldi	r21, 0x00	; 0
    6ea6:	bc 01       	movw	r22, r24
    6ea8:	cd 01       	movw	r24, r26
    6eaa:	0e 94 eb 3a 	call	0x75d6	; 0x75d6 <__udivmodsi4>
    6eae:	dc 01       	movw	r26, r24
    6eb0:	cb 01       	movw	r24, r22
    6eb2:	8d 83       	std	Y+5, r24	; 0x05
    6eb4:	9e 83       	std	Y+6, r25	; 0x06
    6eb6:	af 83       	std	Y+7, r26	; 0x07
    6eb8:	b8 87       	std	Y+8, r27	; 0x08
		sprintf(result, "%lu.%03lu.%03lu", freq/1000000, k, c);
    6eba:	8c 85       	ldd	r24, Y+12	; 0x0c
    6ebc:	9d 85       	ldd	r25, Y+13	; 0x0d
    6ebe:	ae 85       	ldd	r26, Y+14	; 0x0e
    6ec0:	bf 85       	ldd	r27, Y+15	; 0x0f
    6ec2:	20 e4       	ldi	r18, 0x40	; 64
    6ec4:	32 e4       	ldi	r19, 0x42	; 66
    6ec6:	4f e0       	ldi	r20, 0x0F	; 15
    6ec8:	50 e0       	ldi	r21, 0x00	; 0
    6eca:	bc 01       	movw	r22, r24
    6ecc:	cd 01       	movw	r24, r26
    6ece:	0e 94 eb 3a 	call	0x75d6	; 0x75d6 <__udivmodsi4>
    6ed2:	da 01       	movw	r26, r20
    6ed4:	c9 01       	movw	r24, r18
    6ed6:	28 85       	ldd	r18, Y+8	; 0x08
    6ed8:	2f 93       	push	r18
    6eda:	2f 81       	ldd	r18, Y+7	; 0x07
    6edc:	2f 93       	push	r18
    6ede:	2e 81       	ldd	r18, Y+6	; 0x06
    6ee0:	2f 93       	push	r18
    6ee2:	2d 81       	ldd	r18, Y+5	; 0x05
    6ee4:	2f 93       	push	r18
    6ee6:	2c 81       	ldd	r18, Y+4	; 0x04
    6ee8:	2f 93       	push	r18
    6eea:	2b 81       	ldd	r18, Y+3	; 0x03
    6eec:	2f 93       	push	r18
    6eee:	2a 81       	ldd	r18, Y+2	; 0x02
    6ef0:	2f 93       	push	r18
    6ef2:	29 81       	ldd	r18, Y+1	; 0x01
    6ef4:	2f 93       	push	r18
    6ef6:	2b 2f       	mov	r18, r27
    6ef8:	2f 93       	push	r18
    6efa:	2a 2f       	mov	r18, r26
    6efc:	2f 93       	push	r18
    6efe:	29 2f       	mov	r18, r25
    6f00:	2f 93       	push	r18
    6f02:	8f 93       	push	r24
    6f04:	8a ea       	ldi	r24, 0xAA	; 170
    6f06:	90 e4       	ldi	r25, 0x40	; 64
    6f08:	89 2f       	mov	r24, r25
    6f0a:	8f 93       	push	r24
    6f0c:	8a ea       	ldi	r24, 0xAA	; 170
    6f0e:	90 e4       	ldi	r25, 0x40	; 64
    6f10:	8f 93       	push	r24
    6f12:	8b 85       	ldd	r24, Y+11	; 0x0b
    6f14:	8f 93       	push	r24
    6f16:	8a 85       	ldd	r24, Y+10	; 0x0a
    6f18:	8f 93       	push	r24
    6f1a:	0e 94 95 3c 	call	0x792a	; 0x792a <sprintf>
    6f1e:	8d b7       	in	r24, 0x3d	; 61
    6f20:	9e b7       	in	r25, 0x3e	; 62
    6f22:	40 96       	adiw	r24, 0x10	; 16
    6f24:	cd bf       	out	0x3d, r28	; 61
    6f26:	de bf       	out	0x3e, r29	; 62
//		sprintf(result, "%lu.%03lu kHz", freq/1000000, k);
		
		failure = false;
    6f28:	19 86       	std	Y+9, r1	; 0x09
	}
	
	return(failure);	
    6f2a:	89 85       	ldd	r24, Y+9	; 0x09
}
    6f2c:	2f 96       	adiw	r28, 0x0f	; 15
    6f2e:	cd bf       	out	0x3d, r28	; 61
    6f30:	de bf       	out	0x3e, r29	; 62
    6f32:	df 91       	pop	r29
    6f34:	cf 91       	pop	r28
    6f36:	08 95       	ret

00006f38 <__subsf3>:
    6f38:	50 58       	subi	r21, 0x80	; 128

00006f3a <__addsf3>:
    6f3a:	bb 27       	eor	r27, r27
    6f3c:	aa 27       	eor	r26, r26
    6f3e:	0e 94 b4 37 	call	0x6f68	; 0x6f68 <__addsf3x>
    6f42:	0c 94 6c 39 	jmp	0x72d8	; 0x72d8 <__fp_round>
    6f46:	0e 94 33 39 	call	0x7266	; 0x7266 <__fp_pscA>
    6f4a:	38 f0       	brcs	.+14     	; 0x6f5a <__addsf3+0x20>
    6f4c:	0e 94 3a 39 	call	0x7274	; 0x7274 <__fp_pscB>
    6f50:	20 f0       	brcs	.+8      	; 0x6f5a <__addsf3+0x20>
    6f52:	39 f4       	brne	.+14     	; 0x6f62 <__addsf3+0x28>
    6f54:	9f 3f       	cpi	r25, 0xFF	; 255
    6f56:	19 f4       	brne	.+6      	; 0x6f5e <__addsf3+0x24>
    6f58:	26 f4       	brtc	.+8      	; 0x6f62 <__addsf3+0x28>
    6f5a:	0c 94 30 39 	jmp	0x7260	; 0x7260 <__fp_nan>
    6f5e:	0e f4       	brtc	.+2      	; 0x6f62 <__addsf3+0x28>
    6f60:	e0 95       	com	r30
    6f62:	e7 fb       	bst	r30, 7
    6f64:	0c 94 1c 39 	jmp	0x7238	; 0x7238 <__fp_inf>

00006f68 <__addsf3x>:
    6f68:	e9 2f       	mov	r30, r25
    6f6a:	0e 94 91 39 	call	0x7322	; 0x7322 <__fp_split3>
    6f6e:	58 f3       	brcs	.-42     	; 0x6f46 <__addsf3+0xc>
    6f70:	ba 17       	cp	r27, r26
    6f72:	62 07       	cpc	r22, r18
    6f74:	73 07       	cpc	r23, r19
    6f76:	84 07       	cpc	r24, r20
    6f78:	95 07       	cpc	r25, r21
    6f7a:	20 f0       	brcs	.+8      	; 0x6f84 <__addsf3x+0x1c>
    6f7c:	79 f4       	brne	.+30     	; 0x6f9c <__addsf3x+0x34>
    6f7e:	a6 f5       	brtc	.+104    	; 0x6fe8 <__addsf3x+0x80>
    6f80:	0c 94 b3 39 	jmp	0x7366	; 0x7366 <__fp_zero>
    6f84:	0e f4       	brtc	.+2      	; 0x6f88 <__addsf3x+0x20>
    6f86:	e0 95       	com	r30
    6f88:	0b 2e       	mov	r0, r27
    6f8a:	ba 2f       	mov	r27, r26
    6f8c:	a0 2d       	mov	r26, r0
    6f8e:	0b 01       	movw	r0, r22
    6f90:	b9 01       	movw	r22, r18
    6f92:	90 01       	movw	r18, r0
    6f94:	0c 01       	movw	r0, r24
    6f96:	ca 01       	movw	r24, r20
    6f98:	a0 01       	movw	r20, r0
    6f9a:	11 24       	eor	r1, r1
    6f9c:	ff 27       	eor	r31, r31
    6f9e:	59 1b       	sub	r21, r25
    6fa0:	99 f0       	breq	.+38     	; 0x6fc8 <__addsf3x+0x60>
    6fa2:	59 3f       	cpi	r21, 0xF9	; 249
    6fa4:	50 f4       	brcc	.+20     	; 0x6fba <__addsf3x+0x52>
    6fa6:	50 3e       	cpi	r21, 0xE0	; 224
    6fa8:	68 f1       	brcs	.+90     	; 0x7004 <__addsf3x+0x9c>
    6faa:	1a 16       	cp	r1, r26
    6fac:	f0 40       	sbci	r31, 0x00	; 0
    6fae:	a2 2f       	mov	r26, r18
    6fb0:	23 2f       	mov	r18, r19
    6fb2:	34 2f       	mov	r19, r20
    6fb4:	44 27       	eor	r20, r20
    6fb6:	58 5f       	subi	r21, 0xF8	; 248
    6fb8:	f3 cf       	rjmp	.-26     	; 0x6fa0 <__addsf3x+0x38>
    6fba:	46 95       	lsr	r20
    6fbc:	37 95       	ror	r19
    6fbe:	27 95       	ror	r18
    6fc0:	a7 95       	ror	r26
    6fc2:	f0 40       	sbci	r31, 0x00	; 0
    6fc4:	53 95       	inc	r21
    6fc6:	c9 f7       	brne	.-14     	; 0x6fba <__addsf3x+0x52>
    6fc8:	7e f4       	brtc	.+30     	; 0x6fe8 <__addsf3x+0x80>
    6fca:	1f 16       	cp	r1, r31
    6fcc:	ba 0b       	sbc	r27, r26
    6fce:	62 0b       	sbc	r22, r18
    6fd0:	73 0b       	sbc	r23, r19
    6fd2:	84 0b       	sbc	r24, r20
    6fd4:	ba f0       	brmi	.+46     	; 0x7004 <__addsf3x+0x9c>
    6fd6:	91 50       	subi	r25, 0x01	; 1
    6fd8:	a1 f0       	breq	.+40     	; 0x7002 <__addsf3x+0x9a>
    6fda:	ff 0f       	add	r31, r31
    6fdc:	bb 1f       	adc	r27, r27
    6fde:	66 1f       	adc	r22, r22
    6fe0:	77 1f       	adc	r23, r23
    6fe2:	88 1f       	adc	r24, r24
    6fe4:	c2 f7       	brpl	.-16     	; 0x6fd6 <__addsf3x+0x6e>
    6fe6:	0e c0       	rjmp	.+28     	; 0x7004 <__addsf3x+0x9c>
    6fe8:	ba 0f       	add	r27, r26
    6fea:	62 1f       	adc	r22, r18
    6fec:	73 1f       	adc	r23, r19
    6fee:	84 1f       	adc	r24, r20
    6ff0:	48 f4       	brcc	.+18     	; 0x7004 <__addsf3x+0x9c>
    6ff2:	87 95       	ror	r24
    6ff4:	77 95       	ror	r23
    6ff6:	67 95       	ror	r22
    6ff8:	b7 95       	ror	r27
    6ffa:	f7 95       	ror	r31
    6ffc:	9e 3f       	cpi	r25, 0xFE	; 254
    6ffe:	08 f0       	brcs	.+2      	; 0x7002 <__addsf3x+0x9a>
    7000:	b0 cf       	rjmp	.-160    	; 0x6f62 <__addsf3+0x28>
    7002:	93 95       	inc	r25
    7004:	88 0f       	add	r24, r24
    7006:	08 f0       	brcs	.+2      	; 0x700a <__addsf3x+0xa2>
    7008:	99 27       	eor	r25, r25
    700a:	ee 0f       	add	r30, r30
    700c:	97 95       	ror	r25
    700e:	87 95       	ror	r24
    7010:	08 95       	ret

00007012 <__cmpsf2>:
    7012:	0e 94 f8 38 	call	0x71f0	; 0x71f0 <__fp_cmp>
    7016:	08 f4       	brcc	.+2      	; 0x701a <__cmpsf2+0x8>
    7018:	81 e0       	ldi	r24, 0x01	; 1
    701a:	08 95       	ret

0000701c <cos>:
    701c:	0e 94 43 39 	call	0x7286	; 0x7286 <__fp_rempio2>
    7020:	e3 95       	inc	r30
    7022:	0c 94 7d 39 	jmp	0x72fa	; 0x72fa <__fp_sinus>

00007026 <__divsf3>:
    7026:	0e 94 27 38 	call	0x704e	; 0x704e <__divsf3x>
    702a:	0c 94 6c 39 	jmp	0x72d8	; 0x72d8 <__fp_round>
    702e:	0e 94 3a 39 	call	0x7274	; 0x7274 <__fp_pscB>
    7032:	58 f0       	brcs	.+22     	; 0x704a <__divsf3+0x24>
    7034:	0e 94 33 39 	call	0x7266	; 0x7266 <__fp_pscA>
    7038:	40 f0       	brcs	.+16     	; 0x704a <__divsf3+0x24>
    703a:	29 f4       	brne	.+10     	; 0x7046 <__divsf3+0x20>
    703c:	5f 3f       	cpi	r21, 0xFF	; 255
    703e:	29 f0       	breq	.+10     	; 0x704a <__divsf3+0x24>
    7040:	0c 94 1c 39 	jmp	0x7238	; 0x7238 <__fp_inf>
    7044:	51 11       	cpse	r21, r1
    7046:	0c 94 b4 39 	jmp	0x7368	; 0x7368 <__fp_szero>
    704a:	0c 94 30 39 	jmp	0x7260	; 0x7260 <__fp_nan>

0000704e <__divsf3x>:
    704e:	0e 94 91 39 	call	0x7322	; 0x7322 <__fp_split3>
    7052:	68 f3       	brcs	.-38     	; 0x702e <__divsf3+0x8>

00007054 <__divsf3_pse>:
    7054:	99 23       	and	r25, r25
    7056:	b1 f3       	breq	.-20     	; 0x7044 <__divsf3+0x1e>
    7058:	55 23       	and	r21, r21
    705a:	91 f3       	breq	.-28     	; 0x7040 <__divsf3+0x1a>
    705c:	95 1b       	sub	r25, r21
    705e:	55 0b       	sbc	r21, r21
    7060:	bb 27       	eor	r27, r27
    7062:	aa 27       	eor	r26, r26
    7064:	62 17       	cp	r22, r18
    7066:	73 07       	cpc	r23, r19
    7068:	84 07       	cpc	r24, r20
    706a:	38 f0       	brcs	.+14     	; 0x707a <__divsf3_pse+0x26>
    706c:	9f 5f       	subi	r25, 0xFF	; 255
    706e:	5f 4f       	sbci	r21, 0xFF	; 255
    7070:	22 0f       	add	r18, r18
    7072:	33 1f       	adc	r19, r19
    7074:	44 1f       	adc	r20, r20
    7076:	aa 1f       	adc	r26, r26
    7078:	a9 f3       	breq	.-22     	; 0x7064 <__divsf3_pse+0x10>
    707a:	35 d0       	rcall	.+106    	; 0x70e6 <__divsf3_pse+0x92>
    707c:	0e 2e       	mov	r0, r30
    707e:	3a f0       	brmi	.+14     	; 0x708e <__divsf3_pse+0x3a>
    7080:	e0 e8       	ldi	r30, 0x80	; 128
    7082:	32 d0       	rcall	.+100    	; 0x70e8 <__divsf3_pse+0x94>
    7084:	91 50       	subi	r25, 0x01	; 1
    7086:	50 40       	sbci	r21, 0x00	; 0
    7088:	e6 95       	lsr	r30
    708a:	00 1c       	adc	r0, r0
    708c:	ca f7       	brpl	.-14     	; 0x7080 <__divsf3_pse+0x2c>
    708e:	2b d0       	rcall	.+86     	; 0x70e6 <__divsf3_pse+0x92>
    7090:	fe 2f       	mov	r31, r30
    7092:	29 d0       	rcall	.+82     	; 0x70e6 <__divsf3_pse+0x92>
    7094:	66 0f       	add	r22, r22
    7096:	77 1f       	adc	r23, r23
    7098:	88 1f       	adc	r24, r24
    709a:	bb 1f       	adc	r27, r27
    709c:	26 17       	cp	r18, r22
    709e:	37 07       	cpc	r19, r23
    70a0:	48 07       	cpc	r20, r24
    70a2:	ab 07       	cpc	r26, r27
    70a4:	b0 e8       	ldi	r27, 0x80	; 128
    70a6:	09 f0       	breq	.+2      	; 0x70aa <__divsf3_pse+0x56>
    70a8:	bb 0b       	sbc	r27, r27
    70aa:	80 2d       	mov	r24, r0
    70ac:	bf 01       	movw	r22, r30
    70ae:	ff 27       	eor	r31, r31
    70b0:	93 58       	subi	r25, 0x83	; 131
    70b2:	5f 4f       	sbci	r21, 0xFF	; 255
    70b4:	3a f0       	brmi	.+14     	; 0x70c4 <__divsf3_pse+0x70>
    70b6:	9e 3f       	cpi	r25, 0xFE	; 254
    70b8:	51 05       	cpc	r21, r1
    70ba:	78 f0       	brcs	.+30     	; 0x70da <__divsf3_pse+0x86>
    70bc:	0c 94 1c 39 	jmp	0x7238	; 0x7238 <__fp_inf>
    70c0:	0c 94 b4 39 	jmp	0x7368	; 0x7368 <__fp_szero>
    70c4:	5f 3f       	cpi	r21, 0xFF	; 255
    70c6:	e4 f3       	brlt	.-8      	; 0x70c0 <__divsf3_pse+0x6c>
    70c8:	98 3e       	cpi	r25, 0xE8	; 232
    70ca:	d4 f3       	brlt	.-12     	; 0x70c0 <__divsf3_pse+0x6c>
    70cc:	86 95       	lsr	r24
    70ce:	77 95       	ror	r23
    70d0:	67 95       	ror	r22
    70d2:	b7 95       	ror	r27
    70d4:	f7 95       	ror	r31
    70d6:	9f 5f       	subi	r25, 0xFF	; 255
    70d8:	c9 f7       	brne	.-14     	; 0x70cc <__divsf3_pse+0x78>
    70da:	88 0f       	add	r24, r24
    70dc:	91 1d       	adc	r25, r1
    70de:	96 95       	lsr	r25
    70e0:	87 95       	ror	r24
    70e2:	97 f9       	bld	r25, 7
    70e4:	08 95       	ret
    70e6:	e1 e0       	ldi	r30, 0x01	; 1
    70e8:	66 0f       	add	r22, r22
    70ea:	77 1f       	adc	r23, r23
    70ec:	88 1f       	adc	r24, r24
    70ee:	bb 1f       	adc	r27, r27
    70f0:	62 17       	cp	r22, r18
    70f2:	73 07       	cpc	r23, r19
    70f4:	84 07       	cpc	r24, r20
    70f6:	ba 07       	cpc	r27, r26
    70f8:	20 f0       	brcs	.+8      	; 0x7102 <__divsf3_pse+0xae>
    70fa:	62 1b       	sub	r22, r18
    70fc:	73 0b       	sbc	r23, r19
    70fe:	84 0b       	sbc	r24, r20
    7100:	ba 0b       	sbc	r27, r26
    7102:	ee 1f       	adc	r30, r30
    7104:	88 f7       	brcc	.-30     	; 0x70e8 <__divsf3_pse+0x94>
    7106:	e0 95       	com	r30
    7108:	08 95       	ret

0000710a <__fixsfsi>:
    710a:	0e 94 8c 38 	call	0x7118	; 0x7118 <__fixunssfsi>
    710e:	68 94       	set
    7110:	b1 11       	cpse	r27, r1
    7112:	0c 94 b4 39 	jmp	0x7368	; 0x7368 <__fp_szero>
    7116:	08 95       	ret

00007118 <__fixunssfsi>:
    7118:	0e 94 99 39 	call	0x7332	; 0x7332 <__fp_splitA>
    711c:	88 f0       	brcs	.+34     	; 0x7140 <__fixunssfsi+0x28>
    711e:	9f 57       	subi	r25, 0x7F	; 127
    7120:	98 f0       	brcs	.+38     	; 0x7148 <__fixunssfsi+0x30>
    7122:	b9 2f       	mov	r27, r25
    7124:	99 27       	eor	r25, r25
    7126:	b7 51       	subi	r27, 0x17	; 23
    7128:	b0 f0       	brcs	.+44     	; 0x7156 <__fixunssfsi+0x3e>
    712a:	e1 f0       	breq	.+56     	; 0x7164 <__fixunssfsi+0x4c>
    712c:	66 0f       	add	r22, r22
    712e:	77 1f       	adc	r23, r23
    7130:	88 1f       	adc	r24, r24
    7132:	99 1f       	adc	r25, r25
    7134:	1a f0       	brmi	.+6      	; 0x713c <__fixunssfsi+0x24>
    7136:	ba 95       	dec	r27
    7138:	c9 f7       	brne	.-14     	; 0x712c <__fixunssfsi+0x14>
    713a:	14 c0       	rjmp	.+40     	; 0x7164 <__fixunssfsi+0x4c>
    713c:	b1 30       	cpi	r27, 0x01	; 1
    713e:	91 f0       	breq	.+36     	; 0x7164 <__fixunssfsi+0x4c>
    7140:	0e 94 b3 39 	call	0x7366	; 0x7366 <__fp_zero>
    7144:	b1 e0       	ldi	r27, 0x01	; 1
    7146:	08 95       	ret
    7148:	0c 94 b3 39 	jmp	0x7366	; 0x7366 <__fp_zero>
    714c:	67 2f       	mov	r22, r23
    714e:	78 2f       	mov	r23, r24
    7150:	88 27       	eor	r24, r24
    7152:	b8 5f       	subi	r27, 0xF8	; 248
    7154:	39 f0       	breq	.+14     	; 0x7164 <__fixunssfsi+0x4c>
    7156:	b9 3f       	cpi	r27, 0xF9	; 249
    7158:	cc f3       	brlt	.-14     	; 0x714c <__fixunssfsi+0x34>
    715a:	86 95       	lsr	r24
    715c:	77 95       	ror	r23
    715e:	67 95       	ror	r22
    7160:	b3 95       	inc	r27
    7162:	d9 f7       	brne	.-10     	; 0x715a <__fixunssfsi+0x42>
    7164:	3e f4       	brtc	.+14     	; 0x7174 <__fixunssfsi+0x5c>
    7166:	90 95       	com	r25
    7168:	80 95       	com	r24
    716a:	70 95       	com	r23
    716c:	61 95       	neg	r22
    716e:	7f 4f       	sbci	r23, 0xFF	; 255
    7170:	8f 4f       	sbci	r24, 0xFF	; 255
    7172:	9f 4f       	sbci	r25, 0xFF	; 255
    7174:	08 95       	ret

00007176 <__floatunsisf>:
    7176:	e8 94       	clt
    7178:	09 c0       	rjmp	.+18     	; 0x718c <__floatsisf+0x12>

0000717a <__floatsisf>:
    717a:	97 fb       	bst	r25, 7
    717c:	3e f4       	brtc	.+14     	; 0x718c <__floatsisf+0x12>
    717e:	90 95       	com	r25
    7180:	80 95       	com	r24
    7182:	70 95       	com	r23
    7184:	61 95       	neg	r22
    7186:	7f 4f       	sbci	r23, 0xFF	; 255
    7188:	8f 4f       	sbci	r24, 0xFF	; 255
    718a:	9f 4f       	sbci	r25, 0xFF	; 255
    718c:	99 23       	and	r25, r25
    718e:	a9 f0       	breq	.+42     	; 0x71ba <__floatsisf+0x40>
    7190:	f9 2f       	mov	r31, r25
    7192:	96 e9       	ldi	r25, 0x96	; 150
    7194:	bb 27       	eor	r27, r27
    7196:	93 95       	inc	r25
    7198:	f6 95       	lsr	r31
    719a:	87 95       	ror	r24
    719c:	77 95       	ror	r23
    719e:	67 95       	ror	r22
    71a0:	b7 95       	ror	r27
    71a2:	f1 11       	cpse	r31, r1
    71a4:	f8 cf       	rjmp	.-16     	; 0x7196 <__floatsisf+0x1c>
    71a6:	fa f4       	brpl	.+62     	; 0x71e6 <__floatsisf+0x6c>
    71a8:	bb 0f       	add	r27, r27
    71aa:	11 f4       	brne	.+4      	; 0x71b0 <__floatsisf+0x36>
    71ac:	60 ff       	sbrs	r22, 0
    71ae:	1b c0       	rjmp	.+54     	; 0x71e6 <__floatsisf+0x6c>
    71b0:	6f 5f       	subi	r22, 0xFF	; 255
    71b2:	7f 4f       	sbci	r23, 0xFF	; 255
    71b4:	8f 4f       	sbci	r24, 0xFF	; 255
    71b6:	9f 4f       	sbci	r25, 0xFF	; 255
    71b8:	16 c0       	rjmp	.+44     	; 0x71e6 <__floatsisf+0x6c>
    71ba:	88 23       	and	r24, r24
    71bc:	11 f0       	breq	.+4      	; 0x71c2 <__floatsisf+0x48>
    71be:	96 e9       	ldi	r25, 0x96	; 150
    71c0:	11 c0       	rjmp	.+34     	; 0x71e4 <__floatsisf+0x6a>
    71c2:	77 23       	and	r23, r23
    71c4:	21 f0       	breq	.+8      	; 0x71ce <__floatsisf+0x54>
    71c6:	9e e8       	ldi	r25, 0x8E	; 142
    71c8:	87 2f       	mov	r24, r23
    71ca:	76 2f       	mov	r23, r22
    71cc:	05 c0       	rjmp	.+10     	; 0x71d8 <__floatsisf+0x5e>
    71ce:	66 23       	and	r22, r22
    71d0:	71 f0       	breq	.+28     	; 0x71ee <__floatsisf+0x74>
    71d2:	96 e8       	ldi	r25, 0x86	; 134
    71d4:	86 2f       	mov	r24, r22
    71d6:	70 e0       	ldi	r23, 0x00	; 0
    71d8:	60 e0       	ldi	r22, 0x00	; 0
    71da:	2a f0       	brmi	.+10     	; 0x71e6 <__floatsisf+0x6c>
    71dc:	9a 95       	dec	r25
    71de:	66 0f       	add	r22, r22
    71e0:	77 1f       	adc	r23, r23
    71e2:	88 1f       	adc	r24, r24
    71e4:	da f7       	brpl	.-10     	; 0x71dc <__floatsisf+0x62>
    71e6:	88 0f       	add	r24, r24
    71e8:	96 95       	lsr	r25
    71ea:	87 95       	ror	r24
    71ec:	97 f9       	bld	r25, 7
    71ee:	08 95       	ret

000071f0 <__fp_cmp>:
    71f0:	99 0f       	add	r25, r25
    71f2:	00 08       	sbc	r0, r0
    71f4:	55 0f       	add	r21, r21
    71f6:	aa 0b       	sbc	r26, r26
    71f8:	e0 e8       	ldi	r30, 0x80	; 128
    71fa:	fe ef       	ldi	r31, 0xFE	; 254
    71fc:	16 16       	cp	r1, r22
    71fe:	17 06       	cpc	r1, r23
    7200:	e8 07       	cpc	r30, r24
    7202:	f9 07       	cpc	r31, r25
    7204:	c0 f0       	brcs	.+48     	; 0x7236 <__fp_cmp+0x46>
    7206:	12 16       	cp	r1, r18
    7208:	13 06       	cpc	r1, r19
    720a:	e4 07       	cpc	r30, r20
    720c:	f5 07       	cpc	r31, r21
    720e:	98 f0       	brcs	.+38     	; 0x7236 <__fp_cmp+0x46>
    7210:	62 1b       	sub	r22, r18
    7212:	73 0b       	sbc	r23, r19
    7214:	84 0b       	sbc	r24, r20
    7216:	95 0b       	sbc	r25, r21
    7218:	39 f4       	brne	.+14     	; 0x7228 <__fp_cmp+0x38>
    721a:	0a 26       	eor	r0, r26
    721c:	61 f0       	breq	.+24     	; 0x7236 <__fp_cmp+0x46>
    721e:	23 2b       	or	r18, r19
    7220:	24 2b       	or	r18, r20
    7222:	25 2b       	or	r18, r21
    7224:	21 f4       	brne	.+8      	; 0x722e <__fp_cmp+0x3e>
    7226:	08 95       	ret
    7228:	0a 26       	eor	r0, r26
    722a:	09 f4       	brne	.+2      	; 0x722e <__fp_cmp+0x3e>
    722c:	a1 40       	sbci	r26, 0x01	; 1
    722e:	a6 95       	lsr	r26
    7230:	8f ef       	ldi	r24, 0xFF	; 255
    7232:	81 1d       	adc	r24, r1
    7234:	81 1d       	adc	r24, r1
    7236:	08 95       	ret

00007238 <__fp_inf>:
    7238:	97 f9       	bld	r25, 7
    723a:	9f 67       	ori	r25, 0x7F	; 127
    723c:	80 e8       	ldi	r24, 0x80	; 128
    723e:	70 e0       	ldi	r23, 0x00	; 0
    7240:	60 e0       	ldi	r22, 0x00	; 0
    7242:	08 95       	ret

00007244 <__fp_mpack>:
    7244:	9f 3f       	cpi	r25, 0xFF	; 255
    7246:	31 f0       	breq	.+12     	; 0x7254 <__fp_mpack_finite+0xc>

00007248 <__fp_mpack_finite>:
    7248:	91 50       	subi	r25, 0x01	; 1
    724a:	20 f4       	brcc	.+8      	; 0x7254 <__fp_mpack_finite+0xc>
    724c:	87 95       	ror	r24
    724e:	77 95       	ror	r23
    7250:	67 95       	ror	r22
    7252:	b7 95       	ror	r27
    7254:	88 0f       	add	r24, r24
    7256:	91 1d       	adc	r25, r1
    7258:	96 95       	lsr	r25
    725a:	87 95       	ror	r24
    725c:	97 f9       	bld	r25, 7
    725e:	08 95       	ret

00007260 <__fp_nan>:
    7260:	9f ef       	ldi	r25, 0xFF	; 255
    7262:	80 ec       	ldi	r24, 0xC0	; 192
    7264:	08 95       	ret

00007266 <__fp_pscA>:
    7266:	00 24       	eor	r0, r0
    7268:	0a 94       	dec	r0
    726a:	16 16       	cp	r1, r22
    726c:	17 06       	cpc	r1, r23
    726e:	18 06       	cpc	r1, r24
    7270:	09 06       	cpc	r0, r25
    7272:	08 95       	ret

00007274 <__fp_pscB>:
    7274:	00 24       	eor	r0, r0
    7276:	0a 94       	dec	r0
    7278:	12 16       	cp	r1, r18
    727a:	13 06       	cpc	r1, r19
    727c:	14 06       	cpc	r1, r20
    727e:	05 06       	cpc	r0, r21
    7280:	08 95       	ret
    7282:	0c 94 30 39 	jmp	0x7260	; 0x7260 <__fp_nan>

00007286 <__fp_rempio2>:
    7286:	0e 94 99 39 	call	0x7332	; 0x7332 <__fp_splitA>
    728a:	d8 f3       	brcs	.-10     	; 0x7282 <__fp_pscB+0xe>
    728c:	e8 94       	clt
    728e:	e0 e0       	ldi	r30, 0x00	; 0
    7290:	bb 27       	eor	r27, r27
    7292:	9f 57       	subi	r25, 0x7F	; 127
    7294:	f0 f0       	brcs	.+60     	; 0x72d2 <__fp_rempio2+0x4c>
    7296:	2a ed       	ldi	r18, 0xDA	; 218
    7298:	3f e0       	ldi	r19, 0x0F	; 15
    729a:	49 ec       	ldi	r20, 0xC9	; 201
    729c:	06 c0       	rjmp	.+12     	; 0x72aa <__fp_rempio2+0x24>
    729e:	ee 0f       	add	r30, r30
    72a0:	bb 0f       	add	r27, r27
    72a2:	66 1f       	adc	r22, r22
    72a4:	77 1f       	adc	r23, r23
    72a6:	88 1f       	adc	r24, r24
    72a8:	28 f0       	brcs	.+10     	; 0x72b4 <__fp_rempio2+0x2e>
    72aa:	b2 3a       	cpi	r27, 0xA2	; 162
    72ac:	62 07       	cpc	r22, r18
    72ae:	73 07       	cpc	r23, r19
    72b0:	84 07       	cpc	r24, r20
    72b2:	28 f0       	brcs	.+10     	; 0x72be <__fp_rempio2+0x38>
    72b4:	b2 5a       	subi	r27, 0xA2	; 162
    72b6:	62 0b       	sbc	r22, r18
    72b8:	73 0b       	sbc	r23, r19
    72ba:	84 0b       	sbc	r24, r20
    72bc:	e3 95       	inc	r30
    72be:	9a 95       	dec	r25
    72c0:	72 f7       	brpl	.-36     	; 0x729e <__fp_rempio2+0x18>
    72c2:	80 38       	cpi	r24, 0x80	; 128
    72c4:	30 f4       	brcc	.+12     	; 0x72d2 <__fp_rempio2+0x4c>
    72c6:	9a 95       	dec	r25
    72c8:	bb 0f       	add	r27, r27
    72ca:	66 1f       	adc	r22, r22
    72cc:	77 1f       	adc	r23, r23
    72ce:	88 1f       	adc	r24, r24
    72d0:	d2 f7       	brpl	.-12     	; 0x72c6 <__fp_rempio2+0x40>
    72d2:	90 48       	sbci	r25, 0x80	; 128
    72d4:	0c 94 24 39 	jmp	0x7248	; 0x7248 <__fp_mpack_finite>

000072d8 <__fp_round>:
    72d8:	09 2e       	mov	r0, r25
    72da:	03 94       	inc	r0
    72dc:	00 0c       	add	r0, r0
    72de:	11 f4       	brne	.+4      	; 0x72e4 <__fp_round+0xc>
    72e0:	88 23       	and	r24, r24
    72e2:	52 f0       	brmi	.+20     	; 0x72f8 <__fp_round+0x20>
    72e4:	bb 0f       	add	r27, r27
    72e6:	40 f4       	brcc	.+16     	; 0x72f8 <__fp_round+0x20>
    72e8:	bf 2b       	or	r27, r31
    72ea:	11 f4       	brne	.+4      	; 0x72f0 <__fp_round+0x18>
    72ec:	60 ff       	sbrs	r22, 0
    72ee:	04 c0       	rjmp	.+8      	; 0x72f8 <__fp_round+0x20>
    72f0:	6f 5f       	subi	r22, 0xFF	; 255
    72f2:	7f 4f       	sbci	r23, 0xFF	; 255
    72f4:	8f 4f       	sbci	r24, 0xFF	; 255
    72f6:	9f 4f       	sbci	r25, 0xFF	; 255
    72f8:	08 95       	ret

000072fa <__fp_sinus>:
    72fa:	ef 93       	push	r30
    72fc:	e0 ff       	sbrs	r30, 0
    72fe:	07 c0       	rjmp	.+14     	; 0x730e <__fp_sinus+0x14>
    7300:	a2 ea       	ldi	r26, 0xA2	; 162
    7302:	2a ed       	ldi	r18, 0xDA	; 218
    7304:	3f e0       	ldi	r19, 0x0F	; 15
    7306:	49 ec       	ldi	r20, 0xC9	; 201
    7308:	5f eb       	ldi	r21, 0xBF	; 191
    730a:	0e 94 b4 37 	call	0x6f68	; 0x6f68 <__addsf3x>
    730e:	0e 94 6c 39 	call	0x72d8	; 0x72d8 <__fp_round>
    7312:	0f 90       	pop	r0
    7314:	03 94       	inc	r0
    7316:	01 fc       	sbrc	r0, 1
    7318:	90 58       	subi	r25, 0x80	; 128
    731a:	e8 ee       	ldi	r30, 0xE8	; 232
    731c:	f0 e0       	ldi	r31, 0x00	; 0
    731e:	0c 94 b3 3a 	jmp	0x7566	; 0x7566 <__fp_powsodd>

00007322 <__fp_split3>:
    7322:	57 fd       	sbrc	r21, 7
    7324:	90 58       	subi	r25, 0x80	; 128
    7326:	44 0f       	add	r20, r20
    7328:	55 1f       	adc	r21, r21
    732a:	59 f0       	breq	.+22     	; 0x7342 <__fp_splitA+0x10>
    732c:	5f 3f       	cpi	r21, 0xFF	; 255
    732e:	71 f0       	breq	.+28     	; 0x734c <__fp_splitA+0x1a>
    7330:	47 95       	ror	r20

00007332 <__fp_splitA>:
    7332:	88 0f       	add	r24, r24
    7334:	97 fb       	bst	r25, 7
    7336:	99 1f       	adc	r25, r25
    7338:	61 f0       	breq	.+24     	; 0x7352 <__fp_splitA+0x20>
    733a:	9f 3f       	cpi	r25, 0xFF	; 255
    733c:	79 f0       	breq	.+30     	; 0x735c <__fp_splitA+0x2a>
    733e:	87 95       	ror	r24
    7340:	08 95       	ret
    7342:	12 16       	cp	r1, r18
    7344:	13 06       	cpc	r1, r19
    7346:	14 06       	cpc	r1, r20
    7348:	55 1f       	adc	r21, r21
    734a:	f2 cf       	rjmp	.-28     	; 0x7330 <__fp_split3+0xe>
    734c:	46 95       	lsr	r20
    734e:	f1 df       	rcall	.-30     	; 0x7332 <__fp_splitA>
    7350:	08 c0       	rjmp	.+16     	; 0x7362 <__fp_splitA+0x30>
    7352:	16 16       	cp	r1, r22
    7354:	17 06       	cpc	r1, r23
    7356:	18 06       	cpc	r1, r24
    7358:	99 1f       	adc	r25, r25
    735a:	f1 cf       	rjmp	.-30     	; 0x733e <__fp_splitA+0xc>
    735c:	86 95       	lsr	r24
    735e:	71 05       	cpc	r23, r1
    7360:	61 05       	cpc	r22, r1
    7362:	08 94       	sec
    7364:	08 95       	ret

00007366 <__fp_zero>:
    7366:	e8 94       	clt

00007368 <__fp_szero>:
    7368:	bb 27       	eor	r27, r27
    736a:	66 27       	eor	r22, r22
    736c:	77 27       	eor	r23, r23
    736e:	cb 01       	movw	r24, r22
    7370:	97 f9       	bld	r25, 7
    7372:	08 95       	ret

00007374 <__gesf2>:
    7374:	0e 94 f8 38 	call	0x71f0	; 0x71f0 <__fp_cmp>
    7378:	08 f4       	brcc	.+2      	; 0x737c <__gesf2+0x8>
    737a:	8f ef       	ldi	r24, 0xFF	; 255
    737c:	08 95       	ret

0000737e <log10>:
    737e:	0e 94 cf 39 	call	0x739e	; 0x739e <log>
    7382:	29 ed       	ldi	r18, 0xD9	; 217
    7384:	3b e5       	ldi	r19, 0x5B	; 91
    7386:	4e ed       	ldi	r20, 0xDE	; 222
    7388:	5e e3       	ldi	r21, 0x3E	; 62
    738a:	0c 94 17 3a 	jmp	0x742e	; 0x742e <__mulsf3>
    738e:	16 f0       	brts	.+4      	; 0x7394 <log10+0x16>
    7390:	0c 94 22 39 	jmp	0x7244	; 0x7244 <__fp_mpack>
    7394:	0c 94 30 39 	jmp	0x7260	; 0x7260 <__fp_nan>
    7398:	68 94       	set
    739a:	0c 94 1c 39 	jmp	0x7238	; 0x7238 <__fp_inf>

0000739e <log>:
    739e:	0e 94 99 39 	call	0x7332	; 0x7332 <__fp_splitA>
    73a2:	a8 f3       	brcs	.-22     	; 0x738e <log10+0x10>
    73a4:	99 23       	and	r25, r25
    73a6:	c1 f3       	breq	.-16     	; 0x7398 <log10+0x1a>
    73a8:	ae f3       	brts	.-22     	; 0x7394 <log10+0x16>
    73aa:	df 93       	push	r29
    73ac:	cf 93       	push	r28
    73ae:	1f 93       	push	r17
    73b0:	0f 93       	push	r16
    73b2:	ff 92       	push	r15
    73b4:	c9 2f       	mov	r28, r25
    73b6:	dd 27       	eor	r29, r29
    73b8:	88 23       	and	r24, r24
    73ba:	2a f0       	brmi	.+10     	; 0x73c6 <log+0x28>
    73bc:	21 97       	sbiw	r28, 0x01	; 1
    73be:	66 0f       	add	r22, r22
    73c0:	77 1f       	adc	r23, r23
    73c2:	88 1f       	adc	r24, r24
    73c4:	da f7       	brpl	.-10     	; 0x73bc <log+0x1e>
    73c6:	20 e0       	ldi	r18, 0x00	; 0
    73c8:	30 e0       	ldi	r19, 0x00	; 0
    73ca:	40 e8       	ldi	r20, 0x80	; 128
    73cc:	5f eb       	ldi	r21, 0xBF	; 191
    73ce:	9f e3       	ldi	r25, 0x3F	; 63
    73d0:	88 39       	cpi	r24, 0x98	; 152
    73d2:	20 f0       	brcs	.+8      	; 0x73dc <log+0x3e>
    73d4:	80 3e       	cpi	r24, 0xE0	; 224
    73d6:	38 f0       	brcs	.+14     	; 0x73e6 <log+0x48>
    73d8:	21 96       	adiw	r28, 0x01	; 1
    73da:	8f 77       	andi	r24, 0x7F	; 127
    73dc:	0e 94 9d 37 	call	0x6f3a	; 0x6f3a <__addsf3>
    73e0:	e6 e0       	ldi	r30, 0x06	; 6
    73e2:	f1 e0       	ldi	r31, 0x01	; 1
    73e4:	04 c0       	rjmp	.+8      	; 0x73ee <log+0x50>
    73e6:	0e 94 9d 37 	call	0x6f3a	; 0x6f3a <__addsf3>
    73ea:	e3 e3       	ldi	r30, 0x33	; 51
    73ec:	f1 e0       	ldi	r31, 0x01	; 1
    73ee:	0e 94 8c 3a 	call	0x7518	; 0x7518 <__fp_powser>
    73f2:	8b 01       	movw	r16, r22
    73f4:	be 01       	movw	r22, r28
    73f6:	ec 01       	movw	r28, r24
    73f8:	fb 2e       	mov	r15, r27
    73fa:	6f 57       	subi	r22, 0x7F	; 127
    73fc:	71 09       	sbc	r23, r1
    73fe:	75 95       	asr	r23
    7400:	77 1f       	adc	r23, r23
    7402:	88 0b       	sbc	r24, r24
    7404:	99 0b       	sbc	r25, r25
    7406:	0e 94 bd 38 	call	0x717a	; 0x717a <__floatsisf>
    740a:	28 e1       	ldi	r18, 0x18	; 24
    740c:	32 e7       	ldi	r19, 0x72	; 114
    740e:	41 e3       	ldi	r20, 0x31	; 49
    7410:	5f e3       	ldi	r21, 0x3F	; 63
    7412:	0e 94 2a 3a 	call	0x7454	; 0x7454 <__mulsf3x>
    7416:	af 2d       	mov	r26, r15
    7418:	98 01       	movw	r18, r16
    741a:	ae 01       	movw	r20, r28
    741c:	ff 90       	pop	r15
    741e:	0f 91       	pop	r16
    7420:	1f 91       	pop	r17
    7422:	cf 91       	pop	r28
    7424:	df 91       	pop	r29
    7426:	0e 94 b4 37 	call	0x6f68	; 0x6f68 <__addsf3x>
    742a:	0c 94 6c 39 	jmp	0x72d8	; 0x72d8 <__fp_round>

0000742e <__mulsf3>:
    742e:	0e 94 2a 3a 	call	0x7454	; 0x7454 <__mulsf3x>
    7432:	0c 94 6c 39 	jmp	0x72d8	; 0x72d8 <__fp_round>
    7436:	0e 94 33 39 	call	0x7266	; 0x7266 <__fp_pscA>
    743a:	38 f0       	brcs	.+14     	; 0x744a <__mulsf3+0x1c>
    743c:	0e 94 3a 39 	call	0x7274	; 0x7274 <__fp_pscB>
    7440:	20 f0       	brcs	.+8      	; 0x744a <__mulsf3+0x1c>
    7442:	95 23       	and	r25, r21
    7444:	11 f0       	breq	.+4      	; 0x744a <__mulsf3+0x1c>
    7446:	0c 94 1c 39 	jmp	0x7238	; 0x7238 <__fp_inf>
    744a:	0c 94 30 39 	jmp	0x7260	; 0x7260 <__fp_nan>
    744e:	11 24       	eor	r1, r1
    7450:	0c 94 b4 39 	jmp	0x7368	; 0x7368 <__fp_szero>

00007454 <__mulsf3x>:
    7454:	0e 94 91 39 	call	0x7322	; 0x7322 <__fp_split3>
    7458:	70 f3       	brcs	.-36     	; 0x7436 <__mulsf3+0x8>

0000745a <__mulsf3_pse>:
    745a:	95 9f       	mul	r25, r21
    745c:	c1 f3       	breq	.-16     	; 0x744e <__mulsf3+0x20>
    745e:	95 0f       	add	r25, r21
    7460:	50 e0       	ldi	r21, 0x00	; 0
    7462:	55 1f       	adc	r21, r21
    7464:	62 9f       	mul	r22, r18
    7466:	f0 01       	movw	r30, r0
    7468:	72 9f       	mul	r23, r18
    746a:	bb 27       	eor	r27, r27
    746c:	f0 0d       	add	r31, r0
    746e:	b1 1d       	adc	r27, r1
    7470:	63 9f       	mul	r22, r19
    7472:	aa 27       	eor	r26, r26
    7474:	f0 0d       	add	r31, r0
    7476:	b1 1d       	adc	r27, r1
    7478:	aa 1f       	adc	r26, r26
    747a:	64 9f       	mul	r22, r20
    747c:	66 27       	eor	r22, r22
    747e:	b0 0d       	add	r27, r0
    7480:	a1 1d       	adc	r26, r1
    7482:	66 1f       	adc	r22, r22
    7484:	82 9f       	mul	r24, r18
    7486:	22 27       	eor	r18, r18
    7488:	b0 0d       	add	r27, r0
    748a:	a1 1d       	adc	r26, r1
    748c:	62 1f       	adc	r22, r18
    748e:	73 9f       	mul	r23, r19
    7490:	b0 0d       	add	r27, r0
    7492:	a1 1d       	adc	r26, r1
    7494:	62 1f       	adc	r22, r18
    7496:	83 9f       	mul	r24, r19
    7498:	a0 0d       	add	r26, r0
    749a:	61 1d       	adc	r22, r1
    749c:	22 1f       	adc	r18, r18
    749e:	74 9f       	mul	r23, r20
    74a0:	33 27       	eor	r19, r19
    74a2:	a0 0d       	add	r26, r0
    74a4:	61 1d       	adc	r22, r1
    74a6:	23 1f       	adc	r18, r19
    74a8:	84 9f       	mul	r24, r20
    74aa:	60 0d       	add	r22, r0
    74ac:	21 1d       	adc	r18, r1
    74ae:	82 2f       	mov	r24, r18
    74b0:	76 2f       	mov	r23, r22
    74b2:	6a 2f       	mov	r22, r26
    74b4:	11 24       	eor	r1, r1
    74b6:	9f 57       	subi	r25, 0x7F	; 127
    74b8:	50 40       	sbci	r21, 0x00	; 0
    74ba:	9a f0       	brmi	.+38     	; 0x74e2 <__mulsf3_pse+0x88>
    74bc:	f1 f0       	breq	.+60     	; 0x74fa <__mulsf3_pse+0xa0>
    74be:	88 23       	and	r24, r24
    74c0:	4a f0       	brmi	.+18     	; 0x74d4 <__mulsf3_pse+0x7a>
    74c2:	ee 0f       	add	r30, r30
    74c4:	ff 1f       	adc	r31, r31
    74c6:	bb 1f       	adc	r27, r27
    74c8:	66 1f       	adc	r22, r22
    74ca:	77 1f       	adc	r23, r23
    74cc:	88 1f       	adc	r24, r24
    74ce:	91 50       	subi	r25, 0x01	; 1
    74d0:	50 40       	sbci	r21, 0x00	; 0
    74d2:	a9 f7       	brne	.-22     	; 0x74be <__mulsf3_pse+0x64>
    74d4:	9e 3f       	cpi	r25, 0xFE	; 254
    74d6:	51 05       	cpc	r21, r1
    74d8:	80 f0       	brcs	.+32     	; 0x74fa <__mulsf3_pse+0xa0>
    74da:	0c 94 1c 39 	jmp	0x7238	; 0x7238 <__fp_inf>
    74de:	0c 94 b4 39 	jmp	0x7368	; 0x7368 <__fp_szero>
    74e2:	5f 3f       	cpi	r21, 0xFF	; 255
    74e4:	e4 f3       	brlt	.-8      	; 0x74de <__mulsf3_pse+0x84>
    74e6:	98 3e       	cpi	r25, 0xE8	; 232
    74e8:	d4 f3       	brlt	.-12     	; 0x74de <__mulsf3_pse+0x84>
    74ea:	86 95       	lsr	r24
    74ec:	77 95       	ror	r23
    74ee:	67 95       	ror	r22
    74f0:	b7 95       	ror	r27
    74f2:	f7 95       	ror	r31
    74f4:	e7 95       	ror	r30
    74f6:	9f 5f       	subi	r25, 0xFF	; 255
    74f8:	c1 f7       	brne	.-16     	; 0x74ea <__mulsf3_pse+0x90>
    74fa:	fe 2b       	or	r31, r30
    74fc:	88 0f       	add	r24, r24
    74fe:	91 1d       	adc	r25, r1
    7500:	96 95       	lsr	r25
    7502:	87 95       	ror	r24
    7504:	97 f9       	bld	r25, 7
    7506:	08 95       	ret

00007508 <sin>:
    7508:	9f 93       	push	r25
    750a:	0e 94 43 39 	call	0x7286	; 0x7286 <__fp_rempio2>
    750e:	0f 90       	pop	r0
    7510:	07 fc       	sbrc	r0, 7
    7512:	ee 5f       	subi	r30, 0xFE	; 254
    7514:	0c 94 7d 39 	jmp	0x72fa	; 0x72fa <__fp_sinus>

00007518 <__fp_powser>:
    7518:	df 93       	push	r29
    751a:	cf 93       	push	r28
    751c:	1f 93       	push	r17
    751e:	0f 93       	push	r16
    7520:	ff 92       	push	r15
    7522:	ef 92       	push	r14
    7524:	df 92       	push	r13
    7526:	7b 01       	movw	r14, r22
    7528:	8c 01       	movw	r16, r24
    752a:	68 94       	set
    752c:	06 c0       	rjmp	.+12     	; 0x753a <__fp_powser+0x22>
    752e:	da 2e       	mov	r13, r26
    7530:	ef 01       	movw	r28, r30
    7532:	0e 94 2a 3a 	call	0x7454	; 0x7454 <__mulsf3x>
    7536:	fe 01       	movw	r30, r28
    7538:	e8 94       	clt
    753a:	a5 91       	lpm	r26, Z+
    753c:	25 91       	lpm	r18, Z+
    753e:	35 91       	lpm	r19, Z+
    7540:	45 91       	lpm	r20, Z+
    7542:	55 91       	lpm	r21, Z+
    7544:	a6 f3       	brts	.-24     	; 0x752e <__fp_powser+0x16>
    7546:	ef 01       	movw	r28, r30
    7548:	0e 94 b4 37 	call	0x6f68	; 0x6f68 <__addsf3x>
    754c:	fe 01       	movw	r30, r28
    754e:	97 01       	movw	r18, r14
    7550:	a8 01       	movw	r20, r16
    7552:	da 94       	dec	r13
    7554:	69 f7       	brne	.-38     	; 0x7530 <__fp_powser+0x18>
    7556:	df 90       	pop	r13
    7558:	ef 90       	pop	r14
    755a:	ff 90       	pop	r15
    755c:	0f 91       	pop	r16
    755e:	1f 91       	pop	r17
    7560:	cf 91       	pop	r28
    7562:	df 91       	pop	r29
    7564:	08 95       	ret

00007566 <__fp_powsodd>:
    7566:	9f 93       	push	r25
    7568:	8f 93       	push	r24
    756a:	7f 93       	push	r23
    756c:	6f 93       	push	r22
    756e:	ff 93       	push	r31
    7570:	ef 93       	push	r30
    7572:	9b 01       	movw	r18, r22
    7574:	ac 01       	movw	r20, r24
    7576:	0e 94 17 3a 	call	0x742e	; 0x742e <__mulsf3>
    757a:	ef 91       	pop	r30
    757c:	ff 91       	pop	r31
    757e:	0e 94 8c 3a 	call	0x7518	; 0x7518 <__fp_powser>
    7582:	2f 91       	pop	r18
    7584:	3f 91       	pop	r19
    7586:	4f 91       	pop	r20
    7588:	5f 91       	pop	r21
    758a:	0c 94 17 3a 	jmp	0x742e	; 0x742e <__mulsf3>

0000758e <__mulsi3>:
    758e:	db 01       	movw	r26, r22
    7590:	8f 93       	push	r24
    7592:	9f 93       	push	r25
    7594:	0e 94 25 3b 	call	0x764a	; 0x764a <__muluhisi3>
    7598:	bf 91       	pop	r27
    759a:	af 91       	pop	r26
    759c:	a2 9f       	mul	r26, r18
    759e:	80 0d       	add	r24, r0
    75a0:	91 1d       	adc	r25, r1
    75a2:	a3 9f       	mul	r26, r19
    75a4:	90 0d       	add	r25, r0
    75a6:	b2 9f       	mul	r27, r18
    75a8:	90 0d       	add	r25, r0
    75aa:	11 24       	eor	r1, r1
    75ac:	08 95       	ret

000075ae <__udivmodhi4>:
    75ae:	aa 1b       	sub	r26, r26
    75b0:	bb 1b       	sub	r27, r27
    75b2:	51 e1       	ldi	r21, 0x11	; 17
    75b4:	07 c0       	rjmp	.+14     	; 0x75c4 <__udivmodhi4_ep>

000075b6 <__udivmodhi4_loop>:
    75b6:	aa 1f       	adc	r26, r26
    75b8:	bb 1f       	adc	r27, r27
    75ba:	a6 17       	cp	r26, r22
    75bc:	b7 07       	cpc	r27, r23
    75be:	10 f0       	brcs	.+4      	; 0x75c4 <__udivmodhi4_ep>
    75c0:	a6 1b       	sub	r26, r22
    75c2:	b7 0b       	sbc	r27, r23

000075c4 <__udivmodhi4_ep>:
    75c4:	88 1f       	adc	r24, r24
    75c6:	99 1f       	adc	r25, r25
    75c8:	5a 95       	dec	r21
    75ca:	a9 f7       	brne	.-22     	; 0x75b6 <__udivmodhi4_loop>
    75cc:	80 95       	com	r24
    75ce:	90 95       	com	r25
    75d0:	bc 01       	movw	r22, r24
    75d2:	cd 01       	movw	r24, r26
    75d4:	08 95       	ret

000075d6 <__udivmodsi4>:
    75d6:	a1 e2       	ldi	r26, 0x21	; 33
    75d8:	1a 2e       	mov	r1, r26
    75da:	aa 1b       	sub	r26, r26
    75dc:	bb 1b       	sub	r27, r27
    75de:	fd 01       	movw	r30, r26
    75e0:	0d c0       	rjmp	.+26     	; 0x75fc <__udivmodsi4_ep>

000075e2 <__udivmodsi4_loop>:
    75e2:	aa 1f       	adc	r26, r26
    75e4:	bb 1f       	adc	r27, r27
    75e6:	ee 1f       	adc	r30, r30
    75e8:	ff 1f       	adc	r31, r31
    75ea:	a2 17       	cp	r26, r18
    75ec:	b3 07       	cpc	r27, r19
    75ee:	e4 07       	cpc	r30, r20
    75f0:	f5 07       	cpc	r31, r21
    75f2:	20 f0       	brcs	.+8      	; 0x75fc <__udivmodsi4_ep>
    75f4:	a2 1b       	sub	r26, r18
    75f6:	b3 0b       	sbc	r27, r19
    75f8:	e4 0b       	sbc	r30, r20
    75fa:	f5 0b       	sbc	r31, r21

000075fc <__udivmodsi4_ep>:
    75fc:	66 1f       	adc	r22, r22
    75fe:	77 1f       	adc	r23, r23
    7600:	88 1f       	adc	r24, r24
    7602:	99 1f       	adc	r25, r25
    7604:	1a 94       	dec	r1
    7606:	69 f7       	brne	.-38     	; 0x75e2 <__udivmodsi4_loop>
    7608:	60 95       	com	r22
    760a:	70 95       	com	r23
    760c:	80 95       	com	r24
    760e:	90 95       	com	r25
    7610:	9b 01       	movw	r18, r22
    7612:	ac 01       	movw	r20, r24
    7614:	bd 01       	movw	r22, r26
    7616:	cf 01       	movw	r24, r30
    7618:	08 95       	ret

0000761a <__tablejump2__>:
    761a:	ee 0f       	add	r30, r30
    761c:	ff 1f       	adc	r31, r31
    761e:	00 24       	eor	r0, r0
    7620:	00 1c       	adc	r0, r0
    7622:	0b be       	out	0x3b, r0	; 59
    7624:	07 90       	elpm	r0, Z+
    7626:	f6 91       	elpm	r31, Z
    7628:	e0 2d       	mov	r30, r0
    762a:	09 94       	ijmp

0000762c <__umulhisi3>:
    762c:	a2 9f       	mul	r26, r18
    762e:	b0 01       	movw	r22, r0
    7630:	b3 9f       	mul	r27, r19
    7632:	c0 01       	movw	r24, r0
    7634:	a3 9f       	mul	r26, r19
    7636:	70 0d       	add	r23, r0
    7638:	81 1d       	adc	r24, r1
    763a:	11 24       	eor	r1, r1
    763c:	91 1d       	adc	r25, r1
    763e:	b2 9f       	mul	r27, r18
    7640:	70 0d       	add	r23, r0
    7642:	81 1d       	adc	r24, r1
    7644:	11 24       	eor	r1, r1
    7646:	91 1d       	adc	r25, r1
    7648:	08 95       	ret

0000764a <__muluhisi3>:
    764a:	0e 94 16 3b 	call	0x762c	; 0x762c <__umulhisi3>
    764e:	a5 9f       	mul	r26, r21
    7650:	90 0d       	add	r25, r0
    7652:	b4 9f       	mul	r27, r20
    7654:	90 0d       	add	r25, r0
    7656:	a4 9f       	mul	r26, r20
    7658:	80 0d       	add	r24, r0
    765a:	91 1d       	adc	r25, r1
    765c:	11 24       	eor	r1, r1
    765e:	08 95       	ret

00007660 <malloc>:
    7660:	0f 93       	push	r16
    7662:	1f 93       	push	r17
    7664:	cf 93       	push	r28
    7666:	df 93       	push	r29
    7668:	82 30       	cpi	r24, 0x02	; 2
    766a:	91 05       	cpc	r25, r1
    766c:	10 f4       	brcc	.+4      	; 0x7672 <malloc+0x12>
    766e:	82 e0       	ldi	r24, 0x02	; 2
    7670:	90 e0       	ldi	r25, 0x00	; 0
    7672:	e0 91 47 42 	lds	r30, 0x4247	; 0x804247 <__flp>
    7676:	f0 91 48 42 	lds	r31, 0x4248	; 0x804248 <__flp+0x1>
    767a:	30 e0       	ldi	r19, 0x00	; 0
    767c:	20 e0       	ldi	r18, 0x00	; 0
    767e:	b0 e0       	ldi	r27, 0x00	; 0
    7680:	a0 e0       	ldi	r26, 0x00	; 0
    7682:	30 97       	sbiw	r30, 0x00	; 0
    7684:	99 f4       	brne	.+38     	; 0x76ac <malloc+0x4c>
    7686:	21 15       	cp	r18, r1
    7688:	31 05       	cpc	r19, r1
    768a:	09 f4       	brne	.+2      	; 0x768e <malloc+0x2e>
    768c:	4a c0       	rjmp	.+148    	; 0x7722 <malloc+0xc2>
    768e:	28 1b       	sub	r18, r24
    7690:	39 0b       	sbc	r19, r25
    7692:	24 30       	cpi	r18, 0x04	; 4
    7694:	31 05       	cpc	r19, r1
    7696:	d8 f5       	brcc	.+118    	; 0x770e <malloc+0xae>
    7698:	8a 81       	ldd	r24, Y+2	; 0x02
    769a:	9b 81       	ldd	r25, Y+3	; 0x03
    769c:	61 15       	cp	r22, r1
    769e:	71 05       	cpc	r23, r1
    76a0:	89 f1       	breq	.+98     	; 0x7704 <malloc+0xa4>
    76a2:	fb 01       	movw	r30, r22
    76a4:	82 83       	std	Z+2, r24	; 0x02
    76a6:	93 83       	std	Z+3, r25	; 0x03
    76a8:	fe 01       	movw	r30, r28
    76aa:	11 c0       	rjmp	.+34     	; 0x76ce <malloc+0x6e>
    76ac:	40 81       	ld	r20, Z
    76ae:	51 81       	ldd	r21, Z+1	; 0x01
    76b0:	02 81       	ldd	r16, Z+2	; 0x02
    76b2:	13 81       	ldd	r17, Z+3	; 0x03
    76b4:	48 17       	cp	r20, r24
    76b6:	59 07       	cpc	r21, r25
    76b8:	e0 f0       	brcs	.+56     	; 0x76f2 <malloc+0x92>
    76ba:	48 17       	cp	r20, r24
    76bc:	59 07       	cpc	r21, r25
    76be:	99 f4       	brne	.+38     	; 0x76e6 <malloc+0x86>
    76c0:	10 97       	sbiw	r26, 0x00	; 0
    76c2:	61 f0       	breq	.+24     	; 0x76dc <malloc+0x7c>
    76c4:	12 96       	adiw	r26, 0x02	; 2
    76c6:	0c 93       	st	X, r16
    76c8:	12 97       	sbiw	r26, 0x02	; 2
    76ca:	13 96       	adiw	r26, 0x03	; 3
    76cc:	1c 93       	st	X, r17
    76ce:	32 96       	adiw	r30, 0x02	; 2
    76d0:	cf 01       	movw	r24, r30
    76d2:	df 91       	pop	r29
    76d4:	cf 91       	pop	r28
    76d6:	1f 91       	pop	r17
    76d8:	0f 91       	pop	r16
    76da:	08 95       	ret
    76dc:	00 93 47 42 	sts	0x4247, r16	; 0x804247 <__flp>
    76e0:	10 93 48 42 	sts	0x4248, r17	; 0x804248 <__flp+0x1>
    76e4:	f4 cf       	rjmp	.-24     	; 0x76ce <malloc+0x6e>
    76e6:	21 15       	cp	r18, r1
    76e8:	31 05       	cpc	r19, r1
    76ea:	51 f0       	breq	.+20     	; 0x7700 <malloc+0xa0>
    76ec:	42 17       	cp	r20, r18
    76ee:	53 07       	cpc	r21, r19
    76f0:	38 f0       	brcs	.+14     	; 0x7700 <malloc+0xa0>
    76f2:	a9 01       	movw	r20, r18
    76f4:	db 01       	movw	r26, r22
    76f6:	9a 01       	movw	r18, r20
    76f8:	bd 01       	movw	r22, r26
    76fa:	df 01       	movw	r26, r30
    76fc:	f8 01       	movw	r30, r16
    76fe:	c1 cf       	rjmp	.-126    	; 0x7682 <malloc+0x22>
    7700:	ef 01       	movw	r28, r30
    7702:	f9 cf       	rjmp	.-14     	; 0x76f6 <malloc+0x96>
    7704:	80 93 47 42 	sts	0x4247, r24	; 0x804247 <__flp>
    7708:	90 93 48 42 	sts	0x4248, r25	; 0x804248 <__flp+0x1>
    770c:	cd cf       	rjmp	.-102    	; 0x76a8 <malloc+0x48>
    770e:	fe 01       	movw	r30, r28
    7710:	e2 0f       	add	r30, r18
    7712:	f3 1f       	adc	r31, r19
    7714:	81 93       	st	Z+, r24
    7716:	91 93       	st	Z+, r25
    7718:	22 50       	subi	r18, 0x02	; 2
    771a:	31 09       	sbc	r19, r1
    771c:	28 83       	st	Y, r18
    771e:	39 83       	std	Y+1, r19	; 0x01
    7720:	d7 cf       	rjmp	.-82     	; 0x76d0 <malloc+0x70>
    7722:	20 91 45 42 	lds	r18, 0x4245	; 0x804245 <__brkval>
    7726:	30 91 46 42 	lds	r19, 0x4246	; 0x804246 <__brkval+0x1>
    772a:	23 2b       	or	r18, r19
    772c:	41 f4       	brne	.+16     	; 0x773e <malloc+0xde>
    772e:	20 91 02 40 	lds	r18, 0x4002	; 0x804002 <__malloc_heap_start>
    7732:	30 91 03 40 	lds	r19, 0x4003	; 0x804003 <__malloc_heap_start+0x1>
    7736:	20 93 45 42 	sts	0x4245, r18	; 0x804245 <__brkval>
    773a:	30 93 46 42 	sts	0x4246, r19	; 0x804246 <__brkval+0x1>
    773e:	20 91 00 40 	lds	r18, 0x4000	; 0x804000 <__DATA_REGION_ORIGIN__>
    7742:	30 91 01 40 	lds	r19, 0x4001	; 0x804001 <__DATA_REGION_ORIGIN__+0x1>
    7746:	21 15       	cp	r18, r1
    7748:	31 05       	cpc	r19, r1
    774a:	41 f4       	brne	.+16     	; 0x775c <malloc+0xfc>
    774c:	2d b7       	in	r18, 0x3d	; 61
    774e:	3e b7       	in	r19, 0x3e	; 62
    7750:	40 91 04 40 	lds	r20, 0x4004	; 0x804004 <__malloc_margin>
    7754:	50 91 05 40 	lds	r21, 0x4005	; 0x804005 <__malloc_margin+0x1>
    7758:	24 1b       	sub	r18, r20
    775a:	35 0b       	sbc	r19, r21
    775c:	e0 91 45 42 	lds	r30, 0x4245	; 0x804245 <__brkval>
    7760:	f0 91 46 42 	lds	r31, 0x4246	; 0x804246 <__brkval+0x1>
    7764:	e2 17       	cp	r30, r18
    7766:	f3 07       	cpc	r31, r19
    7768:	a0 f4       	brcc	.+40     	; 0x7792 <malloc+0x132>
    776a:	2e 1b       	sub	r18, r30
    776c:	3f 0b       	sbc	r19, r31
    776e:	28 17       	cp	r18, r24
    7770:	39 07       	cpc	r19, r25
    7772:	78 f0       	brcs	.+30     	; 0x7792 <malloc+0x132>
    7774:	ac 01       	movw	r20, r24
    7776:	4e 5f       	subi	r20, 0xFE	; 254
    7778:	5f 4f       	sbci	r21, 0xFF	; 255
    777a:	24 17       	cp	r18, r20
    777c:	35 07       	cpc	r19, r21
    777e:	48 f0       	brcs	.+18     	; 0x7792 <malloc+0x132>
    7780:	4e 0f       	add	r20, r30
    7782:	5f 1f       	adc	r21, r31
    7784:	40 93 45 42 	sts	0x4245, r20	; 0x804245 <__brkval>
    7788:	50 93 46 42 	sts	0x4246, r21	; 0x804246 <__brkval+0x1>
    778c:	81 93       	st	Z+, r24
    778e:	91 93       	st	Z+, r25
    7790:	9f cf       	rjmp	.-194    	; 0x76d0 <malloc+0x70>
    7792:	f0 e0       	ldi	r31, 0x00	; 0
    7794:	e0 e0       	ldi	r30, 0x00	; 0
    7796:	9c cf       	rjmp	.-200    	; 0x76d0 <malloc+0x70>

00007798 <free>:
    7798:	cf 93       	push	r28
    779a:	df 93       	push	r29
    779c:	00 97       	sbiw	r24, 0x00	; 0
    779e:	e9 f0       	breq	.+58     	; 0x77da <free+0x42>
    77a0:	fc 01       	movw	r30, r24
    77a2:	32 97       	sbiw	r30, 0x02	; 2
    77a4:	12 82       	std	Z+2, r1	; 0x02
    77a6:	13 82       	std	Z+3, r1	; 0x03
    77a8:	a0 91 47 42 	lds	r26, 0x4247	; 0x804247 <__flp>
    77ac:	b0 91 48 42 	lds	r27, 0x4248	; 0x804248 <__flp+0x1>
    77b0:	ed 01       	movw	r28, r26
    77b2:	30 e0       	ldi	r19, 0x00	; 0
    77b4:	20 e0       	ldi	r18, 0x00	; 0
    77b6:	10 97       	sbiw	r26, 0x00	; 0
    77b8:	a1 f4       	brne	.+40     	; 0x77e2 <free+0x4a>
    77ba:	20 81       	ld	r18, Z
    77bc:	31 81       	ldd	r19, Z+1	; 0x01
    77be:	82 0f       	add	r24, r18
    77c0:	93 1f       	adc	r25, r19
    77c2:	20 91 45 42 	lds	r18, 0x4245	; 0x804245 <__brkval>
    77c6:	30 91 46 42 	lds	r19, 0x4246	; 0x804246 <__brkval+0x1>
    77ca:	28 17       	cp	r18, r24
    77cc:	39 07       	cpc	r19, r25
    77ce:	09 f0       	breq	.+2      	; 0x77d2 <free+0x3a>
    77d0:	61 c0       	rjmp	.+194    	; 0x7894 <free+0xfc>
    77d2:	e0 93 45 42 	sts	0x4245, r30	; 0x804245 <__brkval>
    77d6:	f0 93 46 42 	sts	0x4246, r31	; 0x804246 <__brkval+0x1>
    77da:	df 91       	pop	r29
    77dc:	cf 91       	pop	r28
    77de:	08 95       	ret
    77e0:	ea 01       	movw	r28, r20
    77e2:	ce 17       	cp	r28, r30
    77e4:	df 07       	cpc	r29, r31
    77e6:	e8 f5       	brcc	.+122    	; 0x7862 <free+0xca>
    77e8:	4a 81       	ldd	r20, Y+2	; 0x02
    77ea:	5b 81       	ldd	r21, Y+3	; 0x03
    77ec:	9e 01       	movw	r18, r28
    77ee:	41 15       	cp	r20, r1
    77f0:	51 05       	cpc	r21, r1
    77f2:	b1 f7       	brne	.-20     	; 0x77e0 <free+0x48>
    77f4:	e9 01       	movw	r28, r18
    77f6:	ea 83       	std	Y+2, r30	; 0x02
    77f8:	fb 83       	std	Y+3, r31	; 0x03
    77fa:	49 91       	ld	r20, Y+
    77fc:	59 91       	ld	r21, Y+
    77fe:	c4 0f       	add	r28, r20
    7800:	d5 1f       	adc	r29, r21
    7802:	ec 17       	cp	r30, r28
    7804:	fd 07       	cpc	r31, r29
    7806:	61 f4       	brne	.+24     	; 0x7820 <free+0x88>
    7808:	80 81       	ld	r24, Z
    780a:	91 81       	ldd	r25, Z+1	; 0x01
    780c:	02 96       	adiw	r24, 0x02	; 2
    780e:	84 0f       	add	r24, r20
    7810:	95 1f       	adc	r25, r21
    7812:	e9 01       	movw	r28, r18
    7814:	88 83       	st	Y, r24
    7816:	99 83       	std	Y+1, r25	; 0x01
    7818:	82 81       	ldd	r24, Z+2	; 0x02
    781a:	93 81       	ldd	r25, Z+3	; 0x03
    781c:	8a 83       	std	Y+2, r24	; 0x02
    781e:	9b 83       	std	Y+3, r25	; 0x03
    7820:	f0 e0       	ldi	r31, 0x00	; 0
    7822:	e0 e0       	ldi	r30, 0x00	; 0
    7824:	12 96       	adiw	r26, 0x02	; 2
    7826:	8d 91       	ld	r24, X+
    7828:	9c 91       	ld	r25, X
    782a:	13 97       	sbiw	r26, 0x03	; 3
    782c:	00 97       	sbiw	r24, 0x00	; 0
    782e:	b9 f5       	brne	.+110    	; 0x789e <free+0x106>
    7830:	2d 91       	ld	r18, X+
    7832:	3c 91       	ld	r19, X
    7834:	11 97       	sbiw	r26, 0x01	; 1
    7836:	cd 01       	movw	r24, r26
    7838:	02 96       	adiw	r24, 0x02	; 2
    783a:	82 0f       	add	r24, r18
    783c:	93 1f       	adc	r25, r19
    783e:	20 91 45 42 	lds	r18, 0x4245	; 0x804245 <__brkval>
    7842:	30 91 46 42 	lds	r19, 0x4246	; 0x804246 <__brkval+0x1>
    7846:	28 17       	cp	r18, r24
    7848:	39 07       	cpc	r19, r25
    784a:	39 f6       	brne	.-114    	; 0x77da <free+0x42>
    784c:	30 97       	sbiw	r30, 0x00	; 0
    784e:	51 f5       	brne	.+84     	; 0x78a4 <free+0x10c>
    7850:	10 92 47 42 	sts	0x4247, r1	; 0x804247 <__flp>
    7854:	10 92 48 42 	sts	0x4248, r1	; 0x804248 <__flp+0x1>
    7858:	a0 93 45 42 	sts	0x4245, r26	; 0x804245 <__brkval>
    785c:	b0 93 46 42 	sts	0x4246, r27	; 0x804246 <__brkval+0x1>
    7860:	bc cf       	rjmp	.-136    	; 0x77da <free+0x42>
    7862:	c2 83       	std	Z+2, r28	; 0x02
    7864:	d3 83       	std	Z+3, r29	; 0x03
    7866:	40 81       	ld	r20, Z
    7868:	51 81       	ldd	r21, Z+1	; 0x01
    786a:	84 0f       	add	r24, r20
    786c:	95 1f       	adc	r25, r21
    786e:	c8 17       	cp	r28, r24
    7870:	d9 07       	cpc	r29, r25
    7872:	61 f4       	brne	.+24     	; 0x788c <free+0xf4>
    7874:	4e 5f       	subi	r20, 0xFE	; 254
    7876:	5f 4f       	sbci	r21, 0xFF	; 255
    7878:	88 81       	ld	r24, Y
    787a:	99 81       	ldd	r25, Y+1	; 0x01
    787c:	48 0f       	add	r20, r24
    787e:	59 1f       	adc	r21, r25
    7880:	40 83       	st	Z, r20
    7882:	51 83       	std	Z+1, r21	; 0x01
    7884:	8a 81       	ldd	r24, Y+2	; 0x02
    7886:	9b 81       	ldd	r25, Y+3	; 0x03
    7888:	82 83       	std	Z+2, r24	; 0x02
    788a:	93 83       	std	Z+3, r25	; 0x03
    788c:	21 15       	cp	r18, r1
    788e:	31 05       	cpc	r19, r1
    7890:	09 f0       	breq	.+2      	; 0x7894 <free+0xfc>
    7892:	b0 cf       	rjmp	.-160    	; 0x77f4 <free+0x5c>
    7894:	e0 93 47 42 	sts	0x4247, r30	; 0x804247 <__flp>
    7898:	f0 93 48 42 	sts	0x4248, r31	; 0x804248 <__flp+0x1>
    789c:	9e cf       	rjmp	.-196    	; 0x77da <free+0x42>
    789e:	fd 01       	movw	r30, r26
    78a0:	dc 01       	movw	r26, r24
    78a2:	c0 cf       	rjmp	.-128    	; 0x7824 <free+0x8c>
    78a4:	12 82       	std	Z+2, r1	; 0x02
    78a6:	13 82       	std	Z+3, r1	; 0x03
    78a8:	d7 cf       	rjmp	.-82     	; 0x7858 <free+0xc0>

000078aa <strlen>:
    78aa:	fc 01       	movw	r30, r24
    78ac:	01 90       	ld	r0, Z+
    78ae:	00 20       	and	r0, r0
    78b0:	e9 f7       	brne	.-6      	; 0x78ac <strlen+0x2>
    78b2:	80 95       	com	r24
    78b4:	90 95       	com	r25
    78b6:	8e 0f       	add	r24, r30
    78b8:	9f 1f       	adc	r25, r31
    78ba:	08 95       	ret

000078bc <snprintf>:
    78bc:	0f 93       	push	r16
    78be:	1f 93       	push	r17
    78c0:	cf 93       	push	r28
    78c2:	df 93       	push	r29
    78c4:	cd b7       	in	r28, 0x3d	; 61
    78c6:	de b7       	in	r29, 0x3e	; 62
    78c8:	2e 97       	sbiw	r28, 0x0e	; 14
    78ca:	cd bf       	out	0x3d, r28	; 61
    78cc:	de bf       	out	0x3e, r29	; 62
    78ce:	0d 89       	ldd	r16, Y+21	; 0x15
    78d0:	1e 89       	ldd	r17, Y+22	; 0x16
    78d2:	8f 89       	ldd	r24, Y+23	; 0x17
    78d4:	98 8d       	ldd	r25, Y+24	; 0x18
    78d6:	26 e0       	ldi	r18, 0x06	; 6
    78d8:	2c 83       	std	Y+4, r18	; 0x04
    78da:	09 83       	std	Y+1, r16	; 0x01
    78dc:	1a 83       	std	Y+2, r17	; 0x02
    78de:	97 ff       	sbrs	r25, 7
    78e0:	02 c0       	rjmp	.+4      	; 0x78e6 <snprintf+0x2a>
    78e2:	80 e0       	ldi	r24, 0x00	; 0
    78e4:	90 e8       	ldi	r25, 0x80	; 128
    78e6:	01 97       	sbiw	r24, 0x01	; 1
    78e8:	8d 83       	std	Y+5, r24	; 0x05
    78ea:	9e 83       	std	Y+6, r25	; 0x06
    78ec:	ae 01       	movw	r20, r28
    78ee:	45 5e       	subi	r20, 0xE5	; 229
    78f0:	5f 4f       	sbci	r21, 0xFF	; 255
    78f2:	69 8d       	ldd	r22, Y+25	; 0x19
    78f4:	7a 8d       	ldd	r23, Y+26	; 0x1a
    78f6:	ce 01       	movw	r24, r28
    78f8:	01 96       	adiw	r24, 0x01	; 1
    78fa:	0e 94 bf 3c 	call	0x797e	; 0x797e <vfprintf>
    78fe:	4d 81       	ldd	r20, Y+5	; 0x05
    7900:	5e 81       	ldd	r21, Y+6	; 0x06
    7902:	57 fd       	sbrc	r21, 7
    7904:	0a c0       	rjmp	.+20     	; 0x791a <snprintf+0x5e>
    7906:	2f 81       	ldd	r18, Y+7	; 0x07
    7908:	38 85       	ldd	r19, Y+8	; 0x08
    790a:	42 17       	cp	r20, r18
    790c:	53 07       	cpc	r21, r19
    790e:	0c f4       	brge	.+2      	; 0x7912 <snprintf+0x56>
    7910:	9a 01       	movw	r18, r20
    7912:	02 0f       	add	r16, r18
    7914:	13 1f       	adc	r17, r19
    7916:	f8 01       	movw	r30, r16
    7918:	10 82       	st	Z, r1
    791a:	2e 96       	adiw	r28, 0x0e	; 14
    791c:	cd bf       	out	0x3d, r28	; 61
    791e:	de bf       	out	0x3e, r29	; 62
    7920:	df 91       	pop	r29
    7922:	cf 91       	pop	r28
    7924:	1f 91       	pop	r17
    7926:	0f 91       	pop	r16
    7928:	08 95       	ret

0000792a <sprintf>:
    792a:	0f 93       	push	r16
    792c:	1f 93       	push	r17
    792e:	cf 93       	push	r28
    7930:	df 93       	push	r29
    7932:	cd b7       	in	r28, 0x3d	; 61
    7934:	de b7       	in	r29, 0x3e	; 62
    7936:	2e 97       	sbiw	r28, 0x0e	; 14
    7938:	cd bf       	out	0x3d, r28	; 61
    793a:	de bf       	out	0x3e, r29	; 62
    793c:	0d 89       	ldd	r16, Y+21	; 0x15
    793e:	1e 89       	ldd	r17, Y+22	; 0x16
    7940:	86 e0       	ldi	r24, 0x06	; 6
    7942:	8c 83       	std	Y+4, r24	; 0x04
    7944:	09 83       	std	Y+1, r16	; 0x01
    7946:	1a 83       	std	Y+2, r17	; 0x02
    7948:	8f ef       	ldi	r24, 0xFF	; 255
    794a:	9f e7       	ldi	r25, 0x7F	; 127
    794c:	8d 83       	std	Y+5, r24	; 0x05
    794e:	9e 83       	std	Y+6, r25	; 0x06
    7950:	ae 01       	movw	r20, r28
    7952:	47 5e       	subi	r20, 0xE7	; 231
    7954:	5f 4f       	sbci	r21, 0xFF	; 255
    7956:	6f 89       	ldd	r22, Y+23	; 0x17
    7958:	78 8d       	ldd	r23, Y+24	; 0x18
    795a:	ce 01       	movw	r24, r28
    795c:	01 96       	adiw	r24, 0x01	; 1
    795e:	0e 94 bf 3c 	call	0x797e	; 0x797e <vfprintf>
    7962:	2f 81       	ldd	r18, Y+7	; 0x07
    7964:	38 85       	ldd	r19, Y+8	; 0x08
    7966:	02 0f       	add	r16, r18
    7968:	13 1f       	adc	r17, r19
    796a:	f8 01       	movw	r30, r16
    796c:	10 82       	st	Z, r1
    796e:	2e 96       	adiw	r28, 0x0e	; 14
    7970:	cd bf       	out	0x3d, r28	; 61
    7972:	de bf       	out	0x3e, r29	; 62
    7974:	df 91       	pop	r29
    7976:	cf 91       	pop	r28
    7978:	1f 91       	pop	r17
    797a:	0f 91       	pop	r16
    797c:	08 95       	ret

0000797e <vfprintf>:
    797e:	2f 92       	push	r2
    7980:	3f 92       	push	r3
    7982:	4f 92       	push	r4
    7984:	5f 92       	push	r5
    7986:	6f 92       	push	r6
    7988:	7f 92       	push	r7
    798a:	8f 92       	push	r8
    798c:	9f 92       	push	r9
    798e:	af 92       	push	r10
    7990:	bf 92       	push	r11
    7992:	cf 92       	push	r12
    7994:	df 92       	push	r13
    7996:	ef 92       	push	r14
    7998:	ff 92       	push	r15
    799a:	0f 93       	push	r16
    799c:	1f 93       	push	r17
    799e:	cf 93       	push	r28
    79a0:	df 93       	push	r29
    79a2:	cd b7       	in	r28, 0x3d	; 61
    79a4:	de b7       	in	r29, 0x3e	; 62
    79a6:	2b 97       	sbiw	r28, 0x0b	; 11
    79a8:	cd bf       	out	0x3d, r28	; 61
    79aa:	de bf       	out	0x3e, r29	; 62
    79ac:	7c 01       	movw	r14, r24
    79ae:	3b 01       	movw	r6, r22
    79b0:	8a 01       	movw	r16, r20
    79b2:	fc 01       	movw	r30, r24
    79b4:	16 82       	std	Z+6, r1	; 0x06
    79b6:	17 82       	std	Z+7, r1	; 0x07
    79b8:	83 81       	ldd	r24, Z+3	; 0x03
    79ba:	81 ff       	sbrs	r24, 1
    79bc:	da c1       	rjmp	.+948    	; 0x7d72 <vfprintf+0x3f4>
    79be:	ce 01       	movw	r24, r28
    79c0:	01 96       	adiw	r24, 0x01	; 1
    79c2:	5c 01       	movw	r10, r24
    79c4:	f7 01       	movw	r30, r14
    79c6:	93 81       	ldd	r25, Z+3	; 0x03
    79c8:	f3 01       	movw	r30, r6
    79ca:	93 fd       	sbrc	r25, 3
    79cc:	85 91       	lpm	r24, Z+
    79ce:	93 ff       	sbrs	r25, 3
    79d0:	81 91       	ld	r24, Z+
    79d2:	3f 01       	movw	r6, r30
    79d4:	88 23       	and	r24, r24
    79d6:	09 f4       	brne	.+2      	; 0x79da <vfprintf+0x5c>
    79d8:	53 c1       	rjmp	.+678    	; 0x7c80 <vfprintf+0x302>
    79da:	85 32       	cpi	r24, 0x25	; 37
    79dc:	39 f4       	brne	.+14     	; 0x79ec <vfprintf+0x6e>
    79de:	93 fd       	sbrc	r25, 3
    79e0:	85 91       	lpm	r24, Z+
    79e2:	93 ff       	sbrs	r25, 3
    79e4:	81 91       	ld	r24, Z+
    79e6:	3f 01       	movw	r6, r30
    79e8:	85 32       	cpi	r24, 0x25	; 37
    79ea:	29 f4       	brne	.+10     	; 0x79f6 <vfprintf+0x78>
    79ec:	b7 01       	movw	r22, r14
    79ee:	90 e0       	ldi	r25, 0x00	; 0
    79f0:	0e 94 d2 3e 	call	0x7da4	; 0x7da4 <fputc>
    79f4:	e7 cf       	rjmp	.-50     	; 0x79c4 <vfprintf+0x46>
    79f6:	91 2c       	mov	r9, r1
    79f8:	21 2c       	mov	r2, r1
    79fa:	31 2c       	mov	r3, r1
    79fc:	ff e1       	ldi	r31, 0x1F	; 31
    79fe:	f3 15       	cp	r31, r3
    7a00:	38 f0       	brcs	.+14     	; 0x7a10 <vfprintf+0x92>
    7a02:	8b 32       	cpi	r24, 0x2B	; 43
    7a04:	11 f1       	breq	.+68     	; 0x7a4a <vfprintf+0xcc>
    7a06:	90 f4       	brcc	.+36     	; 0x7a2c <vfprintf+0xae>
    7a08:	80 32       	cpi	r24, 0x20	; 32
    7a0a:	09 f1       	breq	.+66     	; 0x7a4e <vfprintf+0xd0>
    7a0c:	83 32       	cpi	r24, 0x23	; 35
    7a0e:	29 f1       	breq	.+74     	; 0x7a5a <vfprintf+0xdc>
    7a10:	37 fc       	sbrc	r3, 7
    7a12:	3c c0       	rjmp	.+120    	; 0x7a8c <vfprintf+0x10e>
    7a14:	20 ed       	ldi	r18, 0xD0	; 208
    7a16:	28 0f       	add	r18, r24
    7a18:	2a 30       	cpi	r18, 0x0A	; 10
    7a1a:	50 f5       	brcc	.+84     	; 0x7a70 <vfprintf+0xf2>
    7a1c:	36 fe       	sbrs	r3, 6
    7a1e:	20 c0       	rjmp	.+64     	; 0x7a60 <vfprintf+0xe2>
    7a20:	8a e0       	ldi	r24, 0x0A	; 10
    7a22:	98 9e       	mul	r9, r24
    7a24:	20 0d       	add	r18, r0
    7a26:	11 24       	eor	r1, r1
    7a28:	92 2e       	mov	r9, r18
    7a2a:	06 c0       	rjmp	.+12     	; 0x7a38 <vfprintf+0xba>
    7a2c:	8d 32       	cpi	r24, 0x2D	; 45
    7a2e:	91 f0       	breq	.+36     	; 0x7a54 <vfprintf+0xd6>
    7a30:	80 33       	cpi	r24, 0x30	; 48
    7a32:	71 f7       	brne	.-36     	; 0x7a10 <vfprintf+0x92>
    7a34:	68 94       	set
    7a36:	30 f8       	bld	r3, 0
    7a38:	f3 01       	movw	r30, r6
    7a3a:	93 fd       	sbrc	r25, 3
    7a3c:	85 91       	lpm	r24, Z+
    7a3e:	93 ff       	sbrs	r25, 3
    7a40:	81 91       	ld	r24, Z+
    7a42:	3f 01       	movw	r6, r30
    7a44:	81 11       	cpse	r24, r1
    7a46:	da cf       	rjmp	.-76     	; 0x79fc <vfprintf+0x7e>
    7a48:	21 c0       	rjmp	.+66     	; 0x7a8c <vfprintf+0x10e>
    7a4a:	68 94       	set
    7a4c:	31 f8       	bld	r3, 1
    7a4e:	68 94       	set
    7a50:	32 f8       	bld	r3, 2
    7a52:	f2 cf       	rjmp	.-28     	; 0x7a38 <vfprintf+0xba>
    7a54:	68 94       	set
    7a56:	33 f8       	bld	r3, 3
    7a58:	ef cf       	rjmp	.-34     	; 0x7a38 <vfprintf+0xba>
    7a5a:	68 94       	set
    7a5c:	34 f8       	bld	r3, 4
    7a5e:	ec cf       	rjmp	.-40     	; 0x7a38 <vfprintf+0xba>
    7a60:	ea e0       	ldi	r30, 0x0A	; 10
    7a62:	2e 9e       	mul	r2, r30
    7a64:	20 0d       	add	r18, r0
    7a66:	11 24       	eor	r1, r1
    7a68:	22 2e       	mov	r2, r18
    7a6a:	68 94       	set
    7a6c:	35 f8       	bld	r3, 5
    7a6e:	e4 cf       	rjmp	.-56     	; 0x7a38 <vfprintf+0xba>
    7a70:	8e 32       	cpi	r24, 0x2E	; 46
    7a72:	29 f4       	brne	.+10     	; 0x7a7e <vfprintf+0x100>
    7a74:	36 fc       	sbrc	r3, 6
    7a76:	04 c1       	rjmp	.+520    	; 0x7c80 <vfprintf+0x302>
    7a78:	68 94       	set
    7a7a:	36 f8       	bld	r3, 6
    7a7c:	dd cf       	rjmp	.-70     	; 0x7a38 <vfprintf+0xba>
    7a7e:	8c 36       	cpi	r24, 0x6C	; 108
    7a80:	19 f4       	brne	.+6      	; 0x7a88 <vfprintf+0x10a>
    7a82:	68 94       	set
    7a84:	37 f8       	bld	r3, 7
    7a86:	d8 cf       	rjmp	.-80     	; 0x7a38 <vfprintf+0xba>
    7a88:	88 36       	cpi	r24, 0x68	; 104
    7a8a:	b1 f2       	breq	.-84     	; 0x7a38 <vfprintf+0xba>
    7a8c:	98 2f       	mov	r25, r24
    7a8e:	9f 7d       	andi	r25, 0xDF	; 223
    7a90:	95 54       	subi	r25, 0x45	; 69
    7a92:	93 30       	cpi	r25, 0x03	; 3
    7a94:	e0 f0       	brcs	.+56     	; 0x7ace <vfprintf+0x150>
    7a96:	83 36       	cpi	r24, 0x63	; 99
    7a98:	a1 f1       	breq	.+104    	; 0x7b02 <vfprintf+0x184>
    7a9a:	83 37       	cpi	r24, 0x73	; 115
    7a9c:	c1 f1       	breq	.+112    	; 0x7b0e <vfprintf+0x190>
    7a9e:	83 35       	cpi	r24, 0x53	; 83
    7aa0:	09 f0       	breq	.+2      	; 0x7aa4 <vfprintf+0x126>
    7aa2:	63 c0       	rjmp	.+198    	; 0x7b6a <vfprintf+0x1ec>
    7aa4:	28 01       	movw	r4, r16
    7aa6:	f2 e0       	ldi	r31, 0x02	; 2
    7aa8:	4f 0e       	add	r4, r31
    7aaa:	51 1c       	adc	r5, r1
    7aac:	f8 01       	movw	r30, r16
    7aae:	c0 80       	ld	r12, Z
    7ab0:	d1 80       	ldd	r13, Z+1	; 0x01
    7ab2:	69 2d       	mov	r22, r9
    7ab4:	70 e0       	ldi	r23, 0x00	; 0
    7ab6:	36 fc       	sbrc	r3, 6
    7ab8:	02 c0       	rjmp	.+4      	; 0x7abe <vfprintf+0x140>
    7aba:	6f ef       	ldi	r22, 0xFF	; 255
    7abc:	7f ef       	ldi	r23, 0xFF	; 255
    7abe:	c6 01       	movw	r24, r12
    7ac0:	0e 94 bc 3e 	call	0x7d78	; 0x7d78 <strnlen_P>
    7ac4:	4c 01       	movw	r8, r24
    7ac6:	68 94       	set
    7ac8:	37 f8       	bld	r3, 7
    7aca:	82 01       	movw	r16, r4
    7acc:	0a c0       	rjmp	.+20     	; 0x7ae2 <vfprintf+0x164>
    7ace:	0c 5f       	subi	r16, 0xFC	; 252
    7ad0:	1f 4f       	sbci	r17, 0xFF	; 255
    7ad2:	ff e3       	ldi	r31, 0x3F	; 63
    7ad4:	f9 83       	std	Y+1, r31	; 0x01
    7ad6:	88 24       	eor	r8, r8
    7ad8:	83 94       	inc	r8
    7ada:	91 2c       	mov	r9, r1
    7adc:	65 01       	movw	r12, r10
    7ade:	e8 94       	clt
    7ae0:	37 f8       	bld	r3, 7
    7ae2:	33 fe       	sbrs	r3, 3
    7ae4:	2d c0       	rjmp	.+90     	; 0x7b40 <vfprintf+0x1c2>
    7ae6:	52 2c       	mov	r5, r2
    7ae8:	81 14       	cp	r8, r1
    7aea:	91 04       	cpc	r9, r1
    7aec:	71 f5       	brne	.+92     	; 0x7b4a <vfprintf+0x1cc>
    7aee:	55 20       	and	r5, r5
    7af0:	09 f4       	brne	.+2      	; 0x7af4 <vfprintf+0x176>
    7af2:	68 cf       	rjmp	.-304    	; 0x79c4 <vfprintf+0x46>
    7af4:	b7 01       	movw	r22, r14
    7af6:	80 e2       	ldi	r24, 0x20	; 32
    7af8:	90 e0       	ldi	r25, 0x00	; 0
    7afa:	0e 94 d2 3e 	call	0x7da4	; 0x7da4 <fputc>
    7afe:	5a 94       	dec	r5
    7b00:	f6 cf       	rjmp	.-20     	; 0x7aee <vfprintf+0x170>
    7b02:	f8 01       	movw	r30, r16
    7b04:	80 81       	ld	r24, Z
    7b06:	89 83       	std	Y+1, r24	; 0x01
    7b08:	0e 5f       	subi	r16, 0xFE	; 254
    7b0a:	1f 4f       	sbci	r17, 0xFF	; 255
    7b0c:	e4 cf       	rjmp	.-56     	; 0x7ad6 <vfprintf+0x158>
    7b0e:	28 01       	movw	r4, r16
    7b10:	f2 e0       	ldi	r31, 0x02	; 2
    7b12:	4f 0e       	add	r4, r31
    7b14:	51 1c       	adc	r5, r1
    7b16:	f8 01       	movw	r30, r16
    7b18:	c0 80       	ld	r12, Z
    7b1a:	d1 80       	ldd	r13, Z+1	; 0x01
    7b1c:	69 2d       	mov	r22, r9
    7b1e:	70 e0       	ldi	r23, 0x00	; 0
    7b20:	36 fc       	sbrc	r3, 6
    7b22:	02 c0       	rjmp	.+4      	; 0x7b28 <vfprintf+0x1aa>
    7b24:	6f ef       	ldi	r22, 0xFF	; 255
    7b26:	7f ef       	ldi	r23, 0xFF	; 255
    7b28:	c6 01       	movw	r24, r12
    7b2a:	0e 94 c7 3e 	call	0x7d8e	; 0x7d8e <strnlen>
    7b2e:	4c 01       	movw	r8, r24
    7b30:	82 01       	movw	r16, r4
    7b32:	d5 cf       	rjmp	.-86     	; 0x7ade <vfprintf+0x160>
    7b34:	b7 01       	movw	r22, r14
    7b36:	80 e2       	ldi	r24, 0x20	; 32
    7b38:	90 e0       	ldi	r25, 0x00	; 0
    7b3a:	0e 94 d2 3e 	call	0x7da4	; 0x7da4 <fputc>
    7b3e:	2a 94       	dec	r2
    7b40:	28 14       	cp	r2, r8
    7b42:	19 04       	cpc	r1, r9
    7b44:	09 f0       	breq	.+2      	; 0x7b48 <vfprintf+0x1ca>
    7b46:	b0 f7       	brcc	.-20     	; 0x7b34 <vfprintf+0x1b6>
    7b48:	ce cf       	rjmp	.-100    	; 0x7ae6 <vfprintf+0x168>
    7b4a:	f6 01       	movw	r30, r12
    7b4c:	37 fc       	sbrc	r3, 7
    7b4e:	85 91       	lpm	r24, Z+
    7b50:	37 fe       	sbrs	r3, 7
    7b52:	81 91       	ld	r24, Z+
    7b54:	6f 01       	movw	r12, r30
    7b56:	b7 01       	movw	r22, r14
    7b58:	90 e0       	ldi	r25, 0x00	; 0
    7b5a:	0e 94 d2 3e 	call	0x7da4	; 0x7da4 <fputc>
    7b5e:	51 10       	cpse	r5, r1
    7b60:	5a 94       	dec	r5
    7b62:	f1 e0       	ldi	r31, 0x01	; 1
    7b64:	8f 1a       	sub	r8, r31
    7b66:	91 08       	sbc	r9, r1
    7b68:	bf cf       	rjmp	.-130    	; 0x7ae8 <vfprintf+0x16a>
    7b6a:	84 36       	cpi	r24, 0x64	; 100
    7b6c:	19 f0       	breq	.+6      	; 0x7b74 <vfprintf+0x1f6>
    7b6e:	89 36       	cpi	r24, 0x69	; 105
    7b70:	09 f0       	breq	.+2      	; 0x7b74 <vfprintf+0x1f6>
    7b72:	77 c0       	rjmp	.+238    	; 0x7c62 <vfprintf+0x2e4>
    7b74:	f8 01       	movw	r30, r16
    7b76:	37 fe       	sbrs	r3, 7
    7b78:	6b c0       	rjmp	.+214    	; 0x7c50 <vfprintf+0x2d2>
    7b7a:	60 81       	ld	r22, Z
    7b7c:	71 81       	ldd	r23, Z+1	; 0x01
    7b7e:	82 81       	ldd	r24, Z+2	; 0x02
    7b80:	93 81       	ldd	r25, Z+3	; 0x03
    7b82:	0c 5f       	subi	r16, 0xFC	; 252
    7b84:	1f 4f       	sbci	r17, 0xFF	; 255
    7b86:	f3 2d       	mov	r31, r3
    7b88:	ff 76       	andi	r31, 0x6F	; 111
    7b8a:	3f 2e       	mov	r3, r31
    7b8c:	97 ff       	sbrs	r25, 7
    7b8e:	09 c0       	rjmp	.+18     	; 0x7ba2 <vfprintf+0x224>
    7b90:	90 95       	com	r25
    7b92:	80 95       	com	r24
    7b94:	70 95       	com	r23
    7b96:	61 95       	neg	r22
    7b98:	7f 4f       	sbci	r23, 0xFF	; 255
    7b9a:	8f 4f       	sbci	r24, 0xFF	; 255
    7b9c:	9f 4f       	sbci	r25, 0xFF	; 255
    7b9e:	68 94       	set
    7ba0:	37 f8       	bld	r3, 7
    7ba2:	2a e0       	ldi	r18, 0x0A	; 10
    7ba4:	30 e0       	ldi	r19, 0x00	; 0
    7ba6:	a5 01       	movw	r20, r10
    7ba8:	0e 94 02 3f 	call	0x7e04	; 0x7e04 <__ultoa_invert>
    7bac:	c8 2e       	mov	r12, r24
    7bae:	ca 18       	sub	r12, r10
    7bb0:	8c 2c       	mov	r8, r12
    7bb2:	43 2c       	mov	r4, r3
    7bb4:	36 fe       	sbrs	r3, 6
    7bb6:	0c c0       	rjmp	.+24     	; 0x7bd0 <vfprintf+0x252>
    7bb8:	e8 94       	clt
    7bba:	40 f8       	bld	r4, 0
    7bbc:	c9 14       	cp	r12, r9
    7bbe:	40 f4       	brcc	.+16     	; 0x7bd0 <vfprintf+0x252>
    7bc0:	34 fe       	sbrs	r3, 4
    7bc2:	05 c0       	rjmp	.+10     	; 0x7bce <vfprintf+0x250>
    7bc4:	32 fc       	sbrc	r3, 2
    7bc6:	03 c0       	rjmp	.+6      	; 0x7bce <vfprintf+0x250>
    7bc8:	f3 2d       	mov	r31, r3
    7bca:	fe 7e       	andi	r31, 0xEE	; 238
    7bcc:	4f 2e       	mov	r4, r31
    7bce:	89 2c       	mov	r8, r9
    7bd0:	44 fe       	sbrs	r4, 4
    7bd2:	a7 c0       	rjmp	.+334    	; 0x7d22 <vfprintf+0x3a4>
    7bd4:	fe 01       	movw	r30, r28
    7bd6:	ec 0d       	add	r30, r12
    7bd8:	f1 1d       	adc	r31, r1
    7bda:	80 81       	ld	r24, Z
    7bdc:	80 33       	cpi	r24, 0x30	; 48
    7bde:	09 f0       	breq	.+2      	; 0x7be2 <vfprintf+0x264>
    7be0:	99 c0       	rjmp	.+306    	; 0x7d14 <vfprintf+0x396>
    7be2:	24 2d       	mov	r18, r4
    7be4:	29 7e       	andi	r18, 0xE9	; 233
    7be6:	42 2e       	mov	r4, r18
    7be8:	84 2d       	mov	r24, r4
    7bea:	88 70       	andi	r24, 0x08	; 8
    7bec:	58 2e       	mov	r5, r24
    7bee:	43 fc       	sbrc	r4, 3
    7bf0:	a7 c0       	rjmp	.+334    	; 0x7d40 <vfprintf+0x3c2>
    7bf2:	40 fe       	sbrs	r4, 0
    7bf4:	a1 c0       	rjmp	.+322    	; 0x7d38 <vfprintf+0x3ba>
    7bf6:	9c 2c       	mov	r9, r12
    7bf8:	82 14       	cp	r8, r2
    7bfa:	18 f4       	brcc	.+6      	; 0x7c02 <vfprintf+0x284>
    7bfc:	2c 0c       	add	r2, r12
    7bfe:	92 2c       	mov	r9, r2
    7c00:	98 18       	sub	r9, r8
    7c02:	44 fe       	sbrs	r4, 4
    7c04:	a3 c0       	rjmp	.+326    	; 0x7d4c <vfprintf+0x3ce>
    7c06:	b7 01       	movw	r22, r14
    7c08:	80 e3       	ldi	r24, 0x30	; 48
    7c0a:	90 e0       	ldi	r25, 0x00	; 0
    7c0c:	0e 94 d2 3e 	call	0x7da4	; 0x7da4 <fputc>
    7c10:	42 fe       	sbrs	r4, 2
    7c12:	09 c0       	rjmp	.+18     	; 0x7c26 <vfprintf+0x2a8>
    7c14:	88 e7       	ldi	r24, 0x78	; 120
    7c16:	90 e0       	ldi	r25, 0x00	; 0
    7c18:	41 fe       	sbrs	r4, 1
    7c1a:	02 c0       	rjmp	.+4      	; 0x7c20 <vfprintf+0x2a2>
    7c1c:	88 e5       	ldi	r24, 0x58	; 88
    7c1e:	90 e0       	ldi	r25, 0x00	; 0
    7c20:	b7 01       	movw	r22, r14
    7c22:	0e 94 d2 3e 	call	0x7da4	; 0x7da4 <fputc>
    7c26:	c9 14       	cp	r12, r9
    7c28:	08 f4       	brcc	.+2      	; 0x7c2c <vfprintf+0x2ae>
    7c2a:	9c c0       	rjmp	.+312    	; 0x7d64 <vfprintf+0x3e6>
    7c2c:	ca 94       	dec	r12
    7c2e:	d1 2c       	mov	r13, r1
    7c30:	9f ef       	ldi	r25, 0xFF	; 255
    7c32:	c9 1a       	sub	r12, r25
    7c34:	d9 0a       	sbc	r13, r25
    7c36:	ca 0c       	add	r12, r10
    7c38:	db 1c       	adc	r13, r11
    7c3a:	f6 01       	movw	r30, r12
    7c3c:	82 91       	ld	r24, -Z
    7c3e:	6f 01       	movw	r12, r30
    7c40:	b7 01       	movw	r22, r14
    7c42:	90 e0       	ldi	r25, 0x00	; 0
    7c44:	0e 94 d2 3e 	call	0x7da4	; 0x7da4 <fputc>
    7c48:	ac 14       	cp	r10, r12
    7c4a:	bd 04       	cpc	r11, r13
    7c4c:	b1 f7       	brne	.-20     	; 0x7c3a <vfprintf+0x2bc>
    7c4e:	4f cf       	rjmp	.-354    	; 0x7aee <vfprintf+0x170>
    7c50:	60 81       	ld	r22, Z
    7c52:	71 81       	ldd	r23, Z+1	; 0x01
    7c54:	07 2e       	mov	r0, r23
    7c56:	00 0c       	add	r0, r0
    7c58:	88 0b       	sbc	r24, r24
    7c5a:	99 0b       	sbc	r25, r25
    7c5c:	0e 5f       	subi	r16, 0xFE	; 254
    7c5e:	1f 4f       	sbci	r17, 0xFF	; 255
    7c60:	92 cf       	rjmp	.-220    	; 0x7b86 <vfprintf+0x208>
    7c62:	d3 2c       	mov	r13, r3
    7c64:	e8 94       	clt
    7c66:	d4 f8       	bld	r13, 4
    7c68:	2a e0       	ldi	r18, 0x0A	; 10
    7c6a:	30 e0       	ldi	r19, 0x00	; 0
    7c6c:	85 37       	cpi	r24, 0x75	; 117
    7c6e:	c9 f1       	breq	.+114    	; 0x7ce2 <vfprintf+0x364>
    7c70:	23 2d       	mov	r18, r3
    7c72:	29 7f       	andi	r18, 0xF9	; 249
    7c74:	d2 2e       	mov	r13, r18
    7c76:	8f 36       	cpi	r24, 0x6F	; 111
    7c78:	91 f1       	breq	.+100    	; 0x7cde <vfprintf+0x360>
    7c7a:	d8 f4       	brcc	.+54     	; 0x7cb2 <vfprintf+0x334>
    7c7c:	88 35       	cpi	r24, 0x58	; 88
    7c7e:	39 f1       	breq	.+78     	; 0x7cce <vfprintf+0x350>
    7c80:	f7 01       	movw	r30, r14
    7c82:	86 81       	ldd	r24, Z+6	; 0x06
    7c84:	97 81       	ldd	r25, Z+7	; 0x07
    7c86:	2b 96       	adiw	r28, 0x0b	; 11
    7c88:	cd bf       	out	0x3d, r28	; 61
    7c8a:	de bf       	out	0x3e, r29	; 62
    7c8c:	df 91       	pop	r29
    7c8e:	cf 91       	pop	r28
    7c90:	1f 91       	pop	r17
    7c92:	0f 91       	pop	r16
    7c94:	ff 90       	pop	r15
    7c96:	ef 90       	pop	r14
    7c98:	df 90       	pop	r13
    7c9a:	cf 90       	pop	r12
    7c9c:	bf 90       	pop	r11
    7c9e:	af 90       	pop	r10
    7ca0:	9f 90       	pop	r9
    7ca2:	8f 90       	pop	r8
    7ca4:	7f 90       	pop	r7
    7ca6:	6f 90       	pop	r6
    7ca8:	5f 90       	pop	r5
    7caa:	4f 90       	pop	r4
    7cac:	3f 90       	pop	r3
    7cae:	2f 90       	pop	r2
    7cb0:	08 95       	ret
    7cb2:	80 37       	cpi	r24, 0x70	; 112
    7cb4:	49 f0       	breq	.+18     	; 0x7cc8 <vfprintf+0x34a>
    7cb6:	88 37       	cpi	r24, 0x78	; 120
    7cb8:	19 f7       	brne	.-58     	; 0x7c80 <vfprintf+0x302>
    7cba:	d4 fe       	sbrs	r13, 4
    7cbc:	02 c0       	rjmp	.+4      	; 0x7cc2 <vfprintf+0x344>
    7cbe:	68 94       	set
    7cc0:	d2 f8       	bld	r13, 2
    7cc2:	20 e1       	ldi	r18, 0x10	; 16
    7cc4:	30 e0       	ldi	r19, 0x00	; 0
    7cc6:	0d c0       	rjmp	.+26     	; 0x7ce2 <vfprintf+0x364>
    7cc8:	68 94       	set
    7cca:	d4 f8       	bld	r13, 4
    7ccc:	f6 cf       	rjmp	.-20     	; 0x7cba <vfprintf+0x33c>
    7cce:	34 fe       	sbrs	r3, 4
    7cd0:	03 c0       	rjmp	.+6      	; 0x7cd8 <vfprintf+0x35a>
    7cd2:	82 2f       	mov	r24, r18
    7cd4:	86 60       	ori	r24, 0x06	; 6
    7cd6:	d8 2e       	mov	r13, r24
    7cd8:	20 e1       	ldi	r18, 0x10	; 16
    7cda:	32 e0       	ldi	r19, 0x02	; 2
    7cdc:	02 c0       	rjmp	.+4      	; 0x7ce2 <vfprintf+0x364>
    7cde:	28 e0       	ldi	r18, 0x08	; 8
    7ce0:	30 e0       	ldi	r19, 0x00	; 0
    7ce2:	f8 01       	movw	r30, r16
    7ce4:	d7 fe       	sbrs	r13, 7
    7ce6:	0f c0       	rjmp	.+30     	; 0x7d06 <vfprintf+0x388>
    7ce8:	60 81       	ld	r22, Z
    7cea:	71 81       	ldd	r23, Z+1	; 0x01
    7cec:	82 81       	ldd	r24, Z+2	; 0x02
    7cee:	93 81       	ldd	r25, Z+3	; 0x03
    7cf0:	0c 5f       	subi	r16, 0xFC	; 252
    7cf2:	1f 4f       	sbci	r17, 0xFF	; 255
    7cf4:	a5 01       	movw	r20, r10
    7cf6:	0e 94 02 3f 	call	0x7e04	; 0x7e04 <__ultoa_invert>
    7cfa:	c8 2e       	mov	r12, r24
    7cfc:	ca 18       	sub	r12, r10
    7cfe:	3d 2c       	mov	r3, r13
    7d00:	e8 94       	clt
    7d02:	37 f8       	bld	r3, 7
    7d04:	55 cf       	rjmp	.-342    	; 0x7bb0 <vfprintf+0x232>
    7d06:	60 81       	ld	r22, Z
    7d08:	71 81       	ldd	r23, Z+1	; 0x01
    7d0a:	90 e0       	ldi	r25, 0x00	; 0
    7d0c:	80 e0       	ldi	r24, 0x00	; 0
    7d0e:	0e 5f       	subi	r16, 0xFE	; 254
    7d10:	1f 4f       	sbci	r17, 0xFF	; 255
    7d12:	f0 cf       	rjmp	.-32     	; 0x7cf4 <vfprintf+0x376>
    7d14:	42 fc       	sbrc	r4, 2
    7d16:	02 c0       	rjmp	.+4      	; 0x7d1c <vfprintf+0x39e>
    7d18:	83 94       	inc	r8
    7d1a:	66 cf       	rjmp	.-308    	; 0x7be8 <vfprintf+0x26a>
    7d1c:	83 94       	inc	r8
    7d1e:	83 94       	inc	r8
    7d20:	63 cf       	rjmp	.-314    	; 0x7be8 <vfprintf+0x26a>
    7d22:	84 2d       	mov	r24, r4
    7d24:	86 78       	andi	r24, 0x86	; 134
    7d26:	09 f4       	brne	.+2      	; 0x7d2a <vfprintf+0x3ac>
    7d28:	5f cf       	rjmp	.-322    	; 0x7be8 <vfprintf+0x26a>
    7d2a:	f6 cf       	rjmp	.-20     	; 0x7d18 <vfprintf+0x39a>
    7d2c:	b7 01       	movw	r22, r14
    7d2e:	80 e2       	ldi	r24, 0x20	; 32
    7d30:	90 e0       	ldi	r25, 0x00	; 0
    7d32:	0e 94 d2 3e 	call	0x7da4	; 0x7da4 <fputc>
    7d36:	83 94       	inc	r8
    7d38:	82 14       	cp	r8, r2
    7d3a:	c0 f3       	brcs	.-16     	; 0x7d2c <vfprintf+0x3ae>
    7d3c:	51 2c       	mov	r5, r1
    7d3e:	61 cf       	rjmp	.-318    	; 0x7c02 <vfprintf+0x284>
    7d40:	52 2c       	mov	r5, r2
    7d42:	58 18       	sub	r5, r8
    7d44:	82 14       	cp	r8, r2
    7d46:	08 f4       	brcc	.+2      	; 0x7d4a <vfprintf+0x3cc>
    7d48:	5c cf       	rjmp	.-328    	; 0x7c02 <vfprintf+0x284>
    7d4a:	f8 cf       	rjmp	.-16     	; 0x7d3c <vfprintf+0x3be>
    7d4c:	84 2d       	mov	r24, r4
    7d4e:	86 78       	andi	r24, 0x86	; 134
    7d50:	09 f4       	brne	.+2      	; 0x7d54 <vfprintf+0x3d6>
    7d52:	69 cf       	rjmp	.-302    	; 0x7c26 <vfprintf+0x2a8>
    7d54:	8b e2       	ldi	r24, 0x2B	; 43
    7d56:	41 fe       	sbrs	r4, 1
    7d58:	80 e2       	ldi	r24, 0x20	; 32
    7d5a:	47 fc       	sbrc	r4, 7
    7d5c:	8d e2       	ldi	r24, 0x2D	; 45
    7d5e:	b7 01       	movw	r22, r14
    7d60:	90 e0       	ldi	r25, 0x00	; 0
    7d62:	5f cf       	rjmp	.-322    	; 0x7c22 <vfprintf+0x2a4>
    7d64:	b7 01       	movw	r22, r14
    7d66:	80 e3       	ldi	r24, 0x30	; 48
    7d68:	90 e0       	ldi	r25, 0x00	; 0
    7d6a:	0e 94 d2 3e 	call	0x7da4	; 0x7da4 <fputc>
    7d6e:	9a 94       	dec	r9
    7d70:	5a cf       	rjmp	.-332    	; 0x7c26 <vfprintf+0x2a8>
    7d72:	8f ef       	ldi	r24, 0xFF	; 255
    7d74:	9f ef       	ldi	r25, 0xFF	; 255
    7d76:	87 cf       	rjmp	.-242    	; 0x7c86 <vfprintf+0x308>

00007d78 <strnlen_P>:
    7d78:	fc 01       	movw	r30, r24
    7d7a:	05 90       	lpm	r0, Z+
    7d7c:	61 50       	subi	r22, 0x01	; 1
    7d7e:	70 40       	sbci	r23, 0x00	; 0
    7d80:	01 10       	cpse	r0, r1
    7d82:	d8 f7       	brcc	.-10     	; 0x7d7a <strnlen_P+0x2>
    7d84:	80 95       	com	r24
    7d86:	90 95       	com	r25
    7d88:	8e 0f       	add	r24, r30
    7d8a:	9f 1f       	adc	r25, r31
    7d8c:	08 95       	ret

00007d8e <strnlen>:
    7d8e:	fc 01       	movw	r30, r24
    7d90:	61 50       	subi	r22, 0x01	; 1
    7d92:	70 40       	sbci	r23, 0x00	; 0
    7d94:	01 90       	ld	r0, Z+
    7d96:	01 10       	cpse	r0, r1
    7d98:	d8 f7       	brcc	.-10     	; 0x7d90 <strnlen+0x2>
    7d9a:	80 95       	com	r24
    7d9c:	90 95       	com	r25
    7d9e:	8e 0f       	add	r24, r30
    7da0:	9f 1f       	adc	r25, r31
    7da2:	08 95       	ret

00007da4 <fputc>:
    7da4:	0f 93       	push	r16
    7da6:	1f 93       	push	r17
    7da8:	cf 93       	push	r28
    7daa:	df 93       	push	r29
    7dac:	18 2f       	mov	r17, r24
    7dae:	09 2f       	mov	r16, r25
    7db0:	eb 01       	movw	r28, r22
    7db2:	8b 81       	ldd	r24, Y+3	; 0x03
    7db4:	81 fd       	sbrc	r24, 1
    7db6:	09 c0       	rjmp	.+18     	; 0x7dca <fputc+0x26>
    7db8:	1f ef       	ldi	r17, 0xFF	; 255
    7dba:	0f ef       	ldi	r16, 0xFF	; 255
    7dbc:	81 2f       	mov	r24, r17
    7dbe:	90 2f       	mov	r25, r16
    7dc0:	df 91       	pop	r29
    7dc2:	cf 91       	pop	r28
    7dc4:	1f 91       	pop	r17
    7dc6:	0f 91       	pop	r16
    7dc8:	08 95       	ret
    7dca:	82 ff       	sbrs	r24, 2
    7dcc:	14 c0       	rjmp	.+40     	; 0x7df6 <fputc+0x52>
    7dce:	2e 81       	ldd	r18, Y+6	; 0x06
    7dd0:	3f 81       	ldd	r19, Y+7	; 0x07
    7dd2:	8c 81       	ldd	r24, Y+4	; 0x04
    7dd4:	9d 81       	ldd	r25, Y+5	; 0x05
    7dd6:	28 17       	cp	r18, r24
    7dd8:	39 07       	cpc	r19, r25
    7dda:	3c f4       	brge	.+14     	; 0x7dea <fputc+0x46>
    7ddc:	e8 81       	ld	r30, Y
    7dde:	f9 81       	ldd	r31, Y+1	; 0x01
    7de0:	cf 01       	movw	r24, r30
    7de2:	01 96       	adiw	r24, 0x01	; 1
    7de4:	88 83       	st	Y, r24
    7de6:	99 83       	std	Y+1, r25	; 0x01
    7de8:	10 83       	st	Z, r17
    7dea:	8e 81       	ldd	r24, Y+6	; 0x06
    7dec:	9f 81       	ldd	r25, Y+7	; 0x07
    7dee:	01 96       	adiw	r24, 0x01	; 1
    7df0:	8e 83       	std	Y+6, r24	; 0x06
    7df2:	9f 83       	std	Y+7, r25	; 0x07
    7df4:	e3 cf       	rjmp	.-58     	; 0x7dbc <fputc+0x18>
    7df6:	e8 85       	ldd	r30, Y+8	; 0x08
    7df8:	f9 85       	ldd	r31, Y+9	; 0x09
    7dfa:	81 2f       	mov	r24, r17
    7dfc:	09 95       	icall
    7dfe:	89 2b       	or	r24, r25
    7e00:	a1 f3       	breq	.-24     	; 0x7dea <fputc+0x46>
    7e02:	da cf       	rjmp	.-76     	; 0x7db8 <fputc+0x14>

00007e04 <__ultoa_invert>:
    7e04:	fa 01       	movw	r30, r20
    7e06:	aa 27       	eor	r26, r26
    7e08:	28 30       	cpi	r18, 0x08	; 8
    7e0a:	51 f1       	breq	.+84     	; 0x7e60 <__ultoa_invert+0x5c>
    7e0c:	20 31       	cpi	r18, 0x10	; 16
    7e0e:	81 f1       	breq	.+96     	; 0x7e70 <__ultoa_invert+0x6c>
    7e10:	e8 94       	clt
    7e12:	6f 93       	push	r22
    7e14:	6e 7f       	andi	r22, 0xFE	; 254
    7e16:	6e 5f       	subi	r22, 0xFE	; 254
    7e18:	7f 4f       	sbci	r23, 0xFF	; 255
    7e1a:	8f 4f       	sbci	r24, 0xFF	; 255
    7e1c:	9f 4f       	sbci	r25, 0xFF	; 255
    7e1e:	af 4f       	sbci	r26, 0xFF	; 255
    7e20:	b1 e0       	ldi	r27, 0x01	; 1
    7e22:	3e d0       	rcall	.+124    	; 0x7ea0 <__ultoa_invert+0x9c>
    7e24:	b4 e0       	ldi	r27, 0x04	; 4
    7e26:	3c d0       	rcall	.+120    	; 0x7ea0 <__ultoa_invert+0x9c>
    7e28:	67 0f       	add	r22, r23
    7e2a:	78 1f       	adc	r23, r24
    7e2c:	89 1f       	adc	r24, r25
    7e2e:	9a 1f       	adc	r25, r26
    7e30:	a1 1d       	adc	r26, r1
    7e32:	68 0f       	add	r22, r24
    7e34:	79 1f       	adc	r23, r25
    7e36:	8a 1f       	adc	r24, r26
    7e38:	91 1d       	adc	r25, r1
    7e3a:	a1 1d       	adc	r26, r1
    7e3c:	6a 0f       	add	r22, r26
    7e3e:	71 1d       	adc	r23, r1
    7e40:	81 1d       	adc	r24, r1
    7e42:	91 1d       	adc	r25, r1
    7e44:	a1 1d       	adc	r26, r1
    7e46:	20 d0       	rcall	.+64     	; 0x7e88 <__ultoa_invert+0x84>
    7e48:	09 f4       	brne	.+2      	; 0x7e4c <__ultoa_invert+0x48>
    7e4a:	68 94       	set
    7e4c:	3f 91       	pop	r19
    7e4e:	2a e0       	ldi	r18, 0x0A	; 10
    7e50:	26 9f       	mul	r18, r22
    7e52:	11 24       	eor	r1, r1
    7e54:	30 19       	sub	r19, r0
    7e56:	30 5d       	subi	r19, 0xD0	; 208
    7e58:	31 93       	st	Z+, r19
    7e5a:	de f6       	brtc	.-74     	; 0x7e12 <__ultoa_invert+0xe>
    7e5c:	cf 01       	movw	r24, r30
    7e5e:	08 95       	ret
    7e60:	46 2f       	mov	r20, r22
    7e62:	47 70       	andi	r20, 0x07	; 7
    7e64:	40 5d       	subi	r20, 0xD0	; 208
    7e66:	41 93       	st	Z+, r20
    7e68:	b3 e0       	ldi	r27, 0x03	; 3
    7e6a:	0f d0       	rcall	.+30     	; 0x7e8a <__ultoa_invert+0x86>
    7e6c:	c9 f7       	brne	.-14     	; 0x7e60 <__ultoa_invert+0x5c>
    7e6e:	f6 cf       	rjmp	.-20     	; 0x7e5c <__ultoa_invert+0x58>
    7e70:	46 2f       	mov	r20, r22
    7e72:	4f 70       	andi	r20, 0x0F	; 15
    7e74:	40 5d       	subi	r20, 0xD0	; 208
    7e76:	4a 33       	cpi	r20, 0x3A	; 58
    7e78:	18 f0       	brcs	.+6      	; 0x7e80 <__ultoa_invert+0x7c>
    7e7a:	49 5d       	subi	r20, 0xD9	; 217
    7e7c:	31 fd       	sbrc	r19, 1
    7e7e:	40 52       	subi	r20, 0x20	; 32
    7e80:	41 93       	st	Z+, r20
    7e82:	02 d0       	rcall	.+4      	; 0x7e88 <__ultoa_invert+0x84>
    7e84:	a9 f7       	brne	.-22     	; 0x7e70 <__ultoa_invert+0x6c>
    7e86:	ea cf       	rjmp	.-44     	; 0x7e5c <__ultoa_invert+0x58>
    7e88:	b4 e0       	ldi	r27, 0x04	; 4
    7e8a:	a6 95       	lsr	r26
    7e8c:	97 95       	ror	r25
    7e8e:	87 95       	ror	r24
    7e90:	77 95       	ror	r23
    7e92:	67 95       	ror	r22
    7e94:	ba 95       	dec	r27
    7e96:	c9 f7       	brne	.-14     	; 0x7e8a <__ultoa_invert+0x86>
    7e98:	00 97       	sbiw	r24, 0x00	; 0
    7e9a:	61 05       	cpc	r22, r1
    7e9c:	71 05       	cpc	r23, r1
    7e9e:	08 95       	ret
    7ea0:	9b 01       	movw	r18, r22
    7ea2:	ac 01       	movw	r20, r24
    7ea4:	0a 2e       	mov	r0, r26
    7ea6:	06 94       	lsr	r0
    7ea8:	57 95       	ror	r21
    7eaa:	47 95       	ror	r20
    7eac:	37 95       	ror	r19
    7eae:	27 95       	ror	r18
    7eb0:	ba 95       	dec	r27
    7eb2:	c9 f7       	brne	.-14     	; 0x7ea6 <__ultoa_invert+0xa2>
    7eb4:	62 0f       	add	r22, r18
    7eb6:	73 1f       	adc	r23, r19
    7eb8:	84 1f       	adc	r24, r20
    7eba:	95 1f       	adc	r25, r21
    7ebc:	a0 1d       	adc	r26, r0
    7ebe:	08 95       	ret

00007ec0 <__do_global_dtors>:
    7ec0:	10 e0       	ldi	r17, 0x00	; 0
    7ec2:	c2 eb       	ldi	r28, 0xB2	; 178
    7ec4:	d0 e0       	ldi	r29, 0x00	; 0
    7ec6:	04 c0       	rjmp	.+8      	; 0x7ed0 <__do_global_dtors+0x10>
    7ec8:	fe 01       	movw	r30, r28
    7eca:	0e 94 0d 3b 	call	0x761a	; 0x761a <__tablejump2__>
    7ece:	21 96       	adiw	r28, 0x01	; 1
    7ed0:	c4 3b       	cpi	r28, 0xB4	; 180
    7ed2:	d1 07       	cpc	r29, r17
    7ed4:	c9 f7       	brne	.-14     	; 0x7ec8 <__do_global_dtors+0x8>
    7ed6:	f8 94       	cli

00007ed8 <__stop_program>:
    7ed8:	ff cf       	rjmp	.-2      	; 0x7ed8 <__stop_program>
